Component: ARM Compiler 5.06 update 5 (build 528) Tool: armlink [4d35e2]

==============================================================================

Section Cross References

    main.o(i.__sti___8_main_cpp_sys) refers to lib.o(i._ZN7cSystemC1Eh) for cSystem::cSystem(unsigned char)
    main.o(i.__sti___8_main_cpp_sys) refers to lib.o(i._ZN10cHwTimer_NC1ENS_7TimerIdEj) for cHwTimer_N::cHwTimer_N(cHwTimer_N::TimerId, unsigned)
    main.o(i.__sti___8_main_cpp_sys) refers to lib.o(i._ZN9cHwPort_NC1ENS_6PortIdE) for cHwPort_N::cHwPort_N(cHwPort_N::PortId)
    main.o(i.__sti___8_main_cpp_sys) refers to lib.o(i._ZN8cHwADC_0C1EP8cHwTimer) for cHwADC_0::cHwADC_0(cHwTimer*)
    main.o(i.__sti___8_main_cpp_sys) refers to lib.o(i._ZN15cDevAnalogInADCC1ER6cHwADChffh) for cDevAnalogInADC::cDevAnalogInADC(cHwADC&, unsigned char, float, float, unsigned char)
    main.o(i.__sti___8_main_cpp_sys) refers to lib.o(i._ZN8cHwDAC_0C1Ev) for cHwDAC_0::cHwDAC_0()
    main.o(i.__sti___8_main_cpp_sys) refers to lib.o(i._ZN16cDevAnalogOutDACC1ER6cHwDAChff) for cDevAnalogOutDAC::cDevAnalogOutDAC(cHwDAC&, unsigned char, float, float)
    main.o(i.__sti___8_main_cpp_sys) refers to main.o(i._ZN6cHwFMCC1ENS_7FMCtypeEb) for cHwFMC::cHwFMC(cHwFMC::FMCtype, bool)
    main.o(i.__sti___8_main_cpp_sys) refers to lib.o(i._ZN7cHwPort3PinC1ERS_h) for cHwPort::Pin::Pin(cHwPort&, unsigned char)
    main.o(i.__sti___8_main_cpp_sys) refers to lib.o(i._ZN14cHwDisplayFontC1EPK24cHwDisplayFontPropertiesPKh) for cHwDisplayFont::cHwDisplayFont(const cHwDisplayFontProperties*, const unsigned char*)
    main.o(i.__sti___8_main_cpp_sys) refers to disp_otm8009a.o(i._ZN19cHwDisp_OTM8009AramC1ER6cHwDSIRN7cHwPort3PinEN16cHwDisp_OTM8009A11OrientationE14cHwDisplayFonth) for cHwDisp_OTM8009Aram::cHwDisp_OTM8009Aram(cHwDSI&, cHwPort::Pin&, cHwDisp_OTM8009A::Orientation, cHwDisplayFont, unsigned char)
    main.o(i.__sti___8_main_cpp_sys) refers to lib.o(i._ZN18cDevDisplayGraphicC1ER17cHwDisplayGraphic) for cDevDisplayGraphic::cDevDisplayGraphic(cHwDisplayGraphic&)
    main.o(i.__sti___8_main_cpp_sys) refers to lib.o(i._ZN14cHwI2Cmaster_NC1ENS_6I2C_IDEN12cHwI2Cmaster4MODEEh) for cHwI2Cmaster_N::cHwI2Cmaster_N(cHwI2Cmaster_N::I2C_ID, cHwI2Cmaster::MODE, unsigned char)
    main.o(i.__sti___8_main_cpp_sys) refers to touch_ft6206.o(i._ZN15cHwTouch_FT6206C1ER12cHwI2Cmaster) for cHwTouch_FT6206::cHwTouch_FT6206(cHwI2Cmaster&)
    main.o(i.__sti___8_main_cpp_sys) refers to lib.o(i._ZN18cDevControlPointerC1ER8cHwTouch) for cDevControlPointer::cDevControlPointer(cHwTouch&)
    main.o(i.__sti___8_main_cpp_sys) refers to lib.o(i._ZN11cDevDigitalC1ER7cHwPorthNS_4ModeEb) for cDevDigital::cDevDigital(cHwPort&, unsigned char, cDevDigital::Mode, bool)
    main.o(i.__sti___8_main_cpp_sys) refers to lib.o(i._ZN26cDevControlEncoderJoystickC1EP11cDevDigitalS1_S1_P8cHwTimert) for cDevControlEncoderJoystick::cDevControlEncoderJoystick(cDevDigital*, cDevDigital*, cDevDigital*, cHwTimer*, unsigned short)
    main.o(i.__sti___8_main_cpp_sys) refers to lib.o(i._ZN8cHwRTC_0C1ENS_17RTC_ClockConfig_tE) for cHwRTC_0::cHwRTC_0(cHwRTC_0::RTC_ClockConfig_t)
    main.o(i.__sti___8_main_cpp_sys) refers to lib.o(i._ZN12cTaskHandlerC1EP8cHwTimer) for cTaskHandler::cTaskHandler(cHwTimer*)
    main.o(i.__sti___8_main_cpp_sys) refers to lib.o(i._ZN12cTaskHandler4TaskC2ERS_) for cTaskHandler::Task::Task__sub_object(cTaskHandler&)
    main.o(i.__sti___8_main_cpp_sys) refers to rtos.o(i._ZN5cRTOSC2Ev) for cRTOS::cRTOS__sub_object()
    main.o(i.__sti___8_main_cpp_sys) refers to dflt_clz.o(x$fpl$dfltu) for __aeabi_ui2d
    main.o(i.__sti___8_main_cpp_sys) refers to dmul.o(x$fpl$dmul) for __aeabi_dmul
    main.o(i.__sti___8_main_cpp_sys) refers to daddsub_clz.o(x$fpl$dsub) for __aeabi_dsub
    main.o(i.__sti___8_main_cpp_sys) refers to dfixu.o(x$fpl$dfixu) for __aeabi_d2uiz
    main.o(i.__sti___8_main_cpp_sys) refers to rtos.o(i._ZN5cRTOS4TaskC2ERS_j) for cRTOS::Task::Task__sub_object(cRTOS&, unsigned)
    main.o(i.__sti___8_main_cpp_sys) refers to rtos.o(i._ZN5cRTOS5TimerC1Et) for cRTOS::Timer::Timer(unsigned short)
    main.o(i.__sti___8_main_cpp_sys) refers to rtos.o(i._ZN5cRTOS4Task5StartEv) for cRTOS::Task::Start()
    main.o(i.__sti___8_main_cpp_sys) refers to aeabi_atexit.o(.text) for __aeabi_atexit
    main.o(i.__sti___8_main_cpp_sys) refers to main.o(.data) for .data
    main.o(i.__sti___8_main_cpp_sys) refers to main.o(.bss) for .bss
    main.o(i.__sti___8_main_cpp_sys) refers to main.o(.constdata__ZTV6cHwDSI) for vtable for cHwDSI
    main.o(i.__sti___8_main_cpp_sys) refers to main.o(.constdata) for .constdata
    main.o(i.__sti___8_main_cpp_sys) refers to main.o(.constdata__ZTV13cTask_Example) for vtable for cTask_Example
    main.o(i.__sti___8_main_cpp_sys) refers to main.o(.constdata__ZTV8cRTOS_RRILh3EE) for vtable for cRTOS_RR<(unsigned char)3>
    main.o(i.__sti___8_main_cpp_sys) refers to main.o(i._ZN5cRTOS8scheduleEjh) for cRTOS::schedule(unsigned, unsigned char)
    main.o(i.__sti___8_main_cpp_sys) refers to lib.o(.data) for cHwRTOS_MCU::schedule
    main.o(i.__sti___8_main_cpp_sys) refers to lib.o(.data) for cHwRTOS_MCU::sysTicTime
    main.o(i.__sti___8_main_cpp_sys) refers to main.o(.constdata__ZTV17cRtosTask_Example) for vtable for cRtosTask_Example
    main.o(i.__sti___8_main_cpp_sys) refers to main.o(i._ZN17cRtosTask_ExampleD1Ev) for cRtosTask_Example::~cRtosTask_Example()
    main.o(i.main) refers to main.o(i._ZN6ButtonC1Eiiii) for Button::Button(int, int, int, int)
    main.o(i.main) refers to main.o(i._ZN4View15createStartViewE6ButtonS0_) for View::createStartView(Button, Button)
    main.o(i.main) refers to lib.o(i._ZN18cDevControlEncoder3getEv) for cDevControlEncoder::get()
    main.o(i.main) refers to lib.o(i._ZN8cHwRTC_03getERN6cHwRTC10PropertiesE) for cHwRTC_0::get(cHwRTC::Properties&)
    main.o(i.main) refers to lib.o(i._ZN18cDevDisplayGraphic6printfEhhhPKcz) for cDevDisplayGraphic::printf(unsigned char, unsigned char, unsigned char, const char*, ...)
    main.o(i.main) refers to f2d.o(x$fpl$f2d) for __aeabi_f2d
    main.o(i.main) refers to lib.o(i._ZN11cDevDigital3getEv) for cDevDigital::get()
    main.o(i.main) refers to lib.o(i._ZN12cDevAnalogIn3getEv) for cDevAnalogIn::get()
    main.o(i.main) refers to lib.o(i._ZN13cDevAnalogOut3setEf) for cDevAnalogOut::set(float)
    main.o(i.main) refers to lib.o(i._ZN18cDevControlPointer3getEv) for cDevControlPointer::get()
    main.o(i.main) refers to main.o(i._ZN10Controller10duringGameEN18cDevControlPointer5cDataE) for Controller::duringGame(cDevControlPointer::cData)
    main.o(i.main) refers to main.o(i._ZN10Controller10beforeGameEN18cDevControlPointer5cDataE) for Controller::beforeGame(cDevControlPointer::cData)
    main.o(i.main) refers to main.o(.data) for .data
    main.o(i.main) refers to main.o(.bss) for .bss
    main.o(.ARM.exidx) refers to main.o(i.main) for i.main
    main.o(.ARM.exidx) refers to main.o(i.__sti___8_main_cpp_sys) for i.__sti___8_main_cpp_sys
    main.o(.init_array) refers to main.o(i.__sti___8_main_cpp_sys) for __sti___8_main_cpp_sys
    main.o(.init_array) refers to init_aeabi.o(.text) for __cpp_initialize__aeabi_
    lib.o(i.ADC_IRQHandler) refers to lib.o(.data) for .data
    lib.o(i.OTG_FS_IRQHandler) refers to lib.o(i._ZN7cSystem16disableInterruptEv) for cSystem::disableInterrupt()
    lib.o(i.OTG_FS_IRQHandler) refers to lib.o(i._ZN8cHwUSB_03isrEv) for cHwUSB_0::isr()
    lib.o(i.OTG_FS_IRQHandler) refers to lib.o(i._ZN7cSystem15enableInterruptEv) for cSystem::enableInterrupt()
    lib.o(i.OTG_FS_IRQHandler) refers to lib.o(.data) for .data
    lib.o(i.PendSV_Handler) refers to rtoscontext.o(.text) for save_context
    lib.o(i.PendSV_Handler) refers to lib.o(.data) for stackPointer
    lib.o(i.SysTick_Handler) refers to rtoscontext.o(.text) for save_context
    lib.o(i.SysTick_Handler) refers to lib.o(.data) for stackPointer
    lib.o(i.TIM1_UP_TIM10_IRQHandler) refers to lib.o(i._ZN10cHwTimer_N5isr_NEv) for cHwTimer_N::isr_N()
    lib.o(i.TIM1_UP_TIM10_IRQHandler) refers to lib.o(.data) for .data
    lib.o(i.TIM2_IRQHandler) refers to lib.o(i._ZN10cHwTimer_N5isr_NEv) for cHwTimer_N::isr_N()
    lib.o(i.TIM2_IRQHandler) refers to lib.o(.data) for .data
    lib.o(i.TIM3_IRQHandler) refers to lib.o(i._ZN10cHwTimer_N5isr_NEv) for cHwTimer_N::isr_N()
    lib.o(i.TIM3_IRQHandler) refers to lib.o(.data) for .data
    lib.o(i.TIM4_IRQHandler) refers to lib.o(i._ZN10cHwTimer_N5isr_NEv) for cHwTimer_N::isr_N()
    lib.o(i.TIM4_IRQHandler) refers to lib.o(.data) for .data
    lib.o(i.TIM5_IRQHandler) refers to lib.o(i._ZN10cHwTimer_N5isr_NEv) for cHwTimer_N::isr_N()
    lib.o(i.TIM5_IRQHandler) refers to lib.o(.data) for .data
    lib.o(i.TIM7_IRQHandler) refers to lib.o(i._ZN10cHwTimer_N5isr_NEv) for cHwTimer_N::isr_N()
    lib.o(i.TIM7_IRQHandler) refers to lib.o(.data) for .data
    lib.o(i.TIM8_CC_IRQHandler) refers to lib.o(i._ZN10cHwTimer_N5isr_NEv) for cHwTimer_N::isr_N()
    lib.o(i.TIM8_CC_IRQHandler) refers to lib.o(.data) for .data
    lib.o(i.UART4_IRQHandler) refers to lib.o(i._ZN9cHwUART_N3isrEv) for cHwUART_N::isr()
    lib.o(i.UART4_IRQHandler) refers to lib.o(.data) for .data
    lib.o(i.UART5_IRQHandler) refers to lib.o(i._ZN9cHwUART_N3isrEv) for cHwUART_N::isr()
    lib.o(i.UART5_IRQHandler) refers to lib.o(.data) for .data
    lib.o(i.USART1_IRQHandler) refers to lib.o(i._ZN9cHwUART_N3isrEv) for cHwUART_N::isr()
    lib.o(i.USART1_IRQHandler) refers to lib.o(.data) for .data
    lib.o(i.USART2_IRQHandler) refers to lib.o(i._ZN9cHwUART_N3isrEv) for cHwUART_N::isr()
    lib.o(i.USART2_IRQHandler) refers to lib.o(.data) for .data
    lib.o(i.USART3_IRQHandler) refers to lib.o(i._ZN9cHwUART_N3isrEv) for cHwUART_N::isr()
    lib.o(i.USART3_IRQHandler) refers to lib.o(.data) for .data
    lib.o(i.USART6_IRQHandler) refers to lib.o(i._ZN9cHwUART_N3isrEv) for cHwUART_N::isr()
    lib.o(i.USART6_IRQHandler) refers to lib.o(.data) for .data
    lib.o(i._Z4ntohj) refers to lib.o(i._Z4htonj) for hton(unsigned)
    lib.o(i._Z4ntoht) refers to lib.o(i._Z4htont) for hton(unsigned short)
    lib.o(i._ZN10cDevTextIO6printfEPKcz) refers to c89vsnprintf.o(.text) for __c89vsnprintf
    lib.o(i._ZN10cDevTextIO6printfEPKcz) refers to strlen.o(.text) for strlen
    lib.o(i._ZN10cDevTextIO9getStringEv) refers to strchr.o(.text) for strchr
    lib.o(i._ZN10cDevTextIOC2EhhPKcS1_) refers to lib.o(i._Znaj) for operator new[] (unsigned)
    lib.o(i._ZN10cDevTextIOC2EhhPKcS1_) refers to lib.o(.constdata__ZTV10cDevTextIO) for vtable for cDevTextIO
    lib.o(i._ZN10cHwDisplayC2Ehh) refers to lib.o(.constdata__ZTV10cHwDisplay) for vtable for cHwDisplay
    lib.o(i._ZN10cHwTimer_N9enablePWMEhN8cHwTimer4ModeE) refers to lib.o(i._ZN12cHwPinConfig3setENS_8FunctionEj) for cHwPinConfig::set(cHwPinConfig::Function, unsigned)
    lib.o(i._ZN10cHwTimer_NC1ENS_7TimerIdEj) refers to lib.o(i._ZN5cListC1Ev) for cList::cList()
    lib.o(i._ZN10cHwTimer_NC1ENS_7TimerIdEj) refers to lib.o(i._Z16__NVIC_EnableIRQ9IRQn_Type) for __NVIC_EnableIRQ(IRQn_Type)
    lib.o(i._ZN10cHwTimer_NC1ENS_7TimerIdEj) refers to dflt_clz.o(x$fpl$dfltu) for __aeabi_ui2d
    lib.o(i._ZN10cHwTimer_NC1ENS_7TimerIdEj) refers to dmul.o(x$fpl$dmul) for __aeabi_dmul
    lib.o(i._ZN10cHwTimer_NC1ENS_7TimerIdEj) refers to d2f.o(x$fpl$d2f) for __aeabi_d2f
    lib.o(i._ZN10cHwTimer_NC1ENS_7TimerIdEj) refers to ddiv.o(x$fpl$ddiv) for __aeabi_ddiv
    lib.o(i._ZN10cHwTimer_NC1ENS_7TimerIdEj) refers to dfixu.o(x$fpl$dfixu) for __aeabi_d2uiz
    lib.o(i._ZN10cHwTimer_NC1ENS_7TimerIdEj) refers to lib.o(.constdata__ZTV8cHwTimer) for vtable for cHwTimer
    lib.o(i._ZN10cHwTimer_NC1ENS_7TimerIdEj) refers to lib.o(.constdata__ZTV10cHwTimer_N) for vtable for cHwTimer_N
    lib.o(i._ZN10cHwTimer_NC1ENS_7TimerIdEj) refers to lib.o(.data) for .data
    lib.o(i._ZN10cHwUSBctrl2inEv) refers to lib.o(i._ZN14cHwUSBendpoint6inCtrlEv) for cHwUSBendpoint::inCtrl()
    lib.o(i._ZN10cHwUSBctrl2inEv) refers to lib.o(i._ZN14cHwUSBendpoint9writeDataEv) for cHwUSBendpoint::writeData()
    lib.o(i._ZN10cHwUSBctrl3outEv) refers to lib.o(i._ZN14cHwUSBendpoint7outCtrlEv) for cHwUSBendpoint::outCtrl()
    lib.o(i._ZN10cHwUSBctrl5setupEv) refers to lib.o(i._ZN10cHwUSBctrl9ReqDeviceEv) for cHwUSBctrl::ReqDevice()
    lib.o(i._ZN10cHwUSBctrl5setupEv) refers to lib.o(i._ZN10cHwUSBctrl12ReqInterfaceEv) for cHwUSBctrl::ReqInterface()
    lib.o(i._ZN10cHwUSBctrl5setupEv) refers to lib.o(i._ZN10cHwUSBctrl11ReqEndpointEv) for cHwUSBctrl::ReqEndpoint()
    lib.o(i._ZN10cHwUSBctrlC1ER6cHwUSB) refers to lib.o(i._ZN14cHwUSBendpointC1ER6cHwUSBht) for cHwUSBendpoint::cHwUSBendpoint(cHwUSB&, unsigned char, unsigned short)
    lib.o(i._ZN10cHwUSBctrlC1ER6cHwUSB) refers to lib.o(.constdata__ZTV10cHwUSBctrl) for vtable for cHwUSBctrl
    lib.o(i._ZN10cHwUSBdesc16getDescriptorHIDEhhh) refers to lib.o(i._ZN10cHwUSBdesc5getIdEhhhh) for cHwUSBdesc::getId(unsigned char, unsigned char, unsigned char, unsigned char)
    lib.o(i._ZN10cHwUSBdesc16getDescriptorHIDEhhh) refers to lib.o(i._ZN12cDataPointerC1Ev) for cDataPointer::cDataPointer()
    lib.o(i._ZN10cHwUSBdesc17getMaxPacketSize0Ev) refers to lib.o(i._ZN10cHwUSBdesc19getDescriptorDeviceEv) for cHwUSBdesc::getDescriptorDevice()
    lib.o(i._ZN10cHwUSBdesc19getDescriptorConfigEh) refers to lib.o(i._ZN10cHwUSBdesc5getIdEhhhh) for cHwUSBdesc::getId(unsigned char, unsigned char, unsigned char, unsigned char)
    lib.o(i._ZN10cHwUSBdesc19getDescriptorConfigEh) refers to lib.o(i._ZN12cDataPointerC1Ev) for cDataPointer::cDataPointer()
    lib.o(i._ZN10cHwUSBdesc19getDescriptorDeviceEv) refers to lib.o(i._ZN10cHwUSBdesc5getIdEhhhh) for cHwUSBdesc::getId(unsigned char, unsigned char, unsigned char, unsigned char)
    lib.o(i._ZN10cHwUSBdesc19getDescriptorDeviceEv) refers to lib.o(i._ZN12cDataPointerC1Ev) for cDataPointer::cDataPointer()
    lib.o(i._ZN10cHwUSBdesc19getDescriptorStringEh) refers to lib.o(i._ZN10cHwUSBdesc5getIdEhhhh) for cHwUSBdesc::getId(unsigned char, unsigned char, unsigned char, unsigned char)
    lib.o(i._ZN10cHwUSBdesc19getDescriptorStringEh) refers to lib.o(i._ZN12cDataPointerC1Ev) for cDataPointer::cDataPointer()
    lib.o(i._ZN10cHwUSBdesc21getConfigDeviceStatusEh) refers to lib.o(i._ZN10cHwUSBdesc19getDescriptorConfigEh) for cHwUSBdesc::getDescriptorConfig(unsigned char)
    lib.o(i._ZN10cHwUSBdesc21getDescriptorEndpointEhhh) refers to lib.o(i._ZN10cHwUSBdesc5getIdEhhhh) for cHwUSBdesc::getId(unsigned char, unsigned char, unsigned char, unsigned char)
    lib.o(i._ZN10cHwUSBdesc21getDescriptorEndpointEhhh) refers to lib.o(i._ZN12cDataPointerC1Ev) for cDataPointer::cDataPointer()
    lib.o(i._ZN10cHwUSBdesc22getDescriptorHIDreportEhhh) refers to lib.o(i._ZN10cHwUSBdesc5getIdEhhhh) for cHwUSBdesc::getId(unsigned char, unsigned char, unsigned char, unsigned char)
    lib.o(i._ZN10cHwUSBdesc22getDescriptorHIDreportEhhh) refers to lib.o(i._ZN12cDataPointerC1Ev) for cDataPointer::cDataPointer()
    lib.o(i._ZN10cHwUSBdesc22getDescriptorInterfaceEhh) refers to lib.o(i._ZN10cHwUSBdesc5getIdEhhhh) for cHwUSBdesc::getId(unsigned char, unsigned char, unsigned char, unsigned char)
    lib.o(i._ZN10cHwUSBdesc22getDescriptorInterfaceEhh) refers to lib.o(i._ZN12cDataPointerC1Ev) for cDataPointer::cDataPointer()
    lib.o(i._ZN11cDevDigital3getEv) refers to lib.o(i._ZN7cHwPort3Pin3getEv) for cHwPort::Pin::get()
    lib.o(i._ZN11cDevDigital3setEb) refers to lib.o(i._ZN7cHwPort3Pin3setEb) for cHwPort::Pin::set(bool)
    lib.o(i._ZN11cDevDigital7setModeENS_4ModeE) refers to lib.o(i._ZN7cHwPort3Pin7setModeENS_4ModeE) for cHwPort::Pin::setMode(cHwPort::Mode)
    lib.o(i._ZN11cDevDigitalC1ER7cHwPorthNS_4ModeEb) refers to lib.o(i._ZN7cHwPort3PinC1ERS_h) for cHwPort::Pin::Pin(cHwPort&, unsigned char)
    lib.o(i._ZN11cDevDigitalC1ER7cHwPorthNS_4ModeEb) refers to lib.o(i._ZN7cHwPort3Pin3setEb) for cHwPort::Pin::set(bool)
    lib.o(i._ZN11cDevDigitalC1ER7cHwPorthNS_4ModeEb) refers to lib.o(i._ZN7cHwPort3Pin7setModeENS_4ModeE) for cHwPort::Pin::setMode(cHwPort::Mode)
    lib.o(i._ZN11cDevDigitalC1ER7cHwPorthNS_4ModeEb) refers to lib.o(.constdata__ZTV11cDevDigital) for vtable for cDevDigital
    lib.o(i._ZN11cDevDisplayC2Ev) refers to lib.o(.constdata__ZTV11cDevDisplay) for vtable for cDevDisplay
    lib.o(i._ZN11cHwEthernet5getIPEv) refers to cxa_guard_acquire.o(i.__cxa_guard_acquire) for __cxa_guard_acquire
    lib.o(i._ZN11cHwEthernet5getIPEv) refers to lib.o(.data) for .data
    lib.o(i._ZN11cHwEthernet5getIPEv) refers to lib.o(.constdata) for .constdata
    lib.o(i._ZN11cHwEthernet6updateEv) refers to lib.o(i._ZN7cNetARP7processEv) for cNetARP::process()
    lib.o(i._ZN11cHwEthernet6updateEv) refers to lib.o(i._ZN6cNetIP7processEv) for cNetIP::process()
    lib.o(i._ZN11cHwEthernet6updateEv) refers to lib.o(i._ZN6cNetIP6updateEv) for cNetIP::update()
    lib.o(i._ZN11cHwEthernetC2ERK8cNetAddrILh6EE) refers to lib.o(.constdata__ZTV11cHwEthernet) for vtable for cHwEthernet
    lib.o(i._ZN12cDevAnalogInC2Ehff) refers to lib.o(i._ZN10cDevAnalogC1Ehff) for cDevAnalog::cDevAnalog(unsigned char, float, float)
    lib.o(i._ZN12cDevAnalogInC2Ehff) refers to lib.o(.constdata__ZTV12cDevAnalogIn) for vtable for cDevAnalogIn
    lib.o(i._ZN12cHwI2Cmaster4readEhPhhS0_h) refers to lib.o(i._ZN7cSystem16disableInterruptEv) for cSystem::disableInterrupt()
    lib.o(i._ZN12cHwI2Cmaster4readEhPhhS0_h) refers to lib.o(i._ZN7cSystem15enableInterruptEv) for cSystem::enableInterrupt()
    lib.o(i._ZN12cHwI2Cmaster5writeEhPhhS0_h) refers to lib.o(i._ZN7cSystem16disableInterruptEv) for cSystem::disableInterrupt()
    lib.o(i._ZN12cHwI2Cmaster5writeEhPhhS0_h) refers to lib.o(i._ZN7cSystem15enableInterruptEv) for cSystem::enableInterrupt()
    lib.o(i._ZN12cHwI2CmasterC2Eh) refers to lib.o(.constdata__ZTV12cHwI2Cmaster) for vtable for cHwI2Cmaster
    lib.o(i._ZN12cHwPinConfig3setENS_8FunctionEj) refers to lib.o(i._ZN12cHwPinConfig3setEP12GPIO_TypeDefhjh) for cHwPinConfig::set(GPIO_TypeDef*, unsigned char, unsigned, unsigned char)
    lib.o(i._ZN12cHwPinConfig3setENS_8FunctionEj) refers to main.o(.data) for cHwPinConfig::table
    lib.o(i._ZN12cHwPinConfig3setEP12GPIO_TypeDefhjh) refers to lib.o(i._ZN7cSystem16disableInterruptEv) for cSystem::disableInterrupt()
    lib.o(i._ZN12cHwPinConfig3setEP12GPIO_TypeDefhjh) refers to lib.o(i._ZN7cSystem15enableInterruptEv) for cSystem::enableInterrupt()
    lib.o(i._ZN12cHwSPImaster6Device10transceiveEPht) refers to lib.o(i._ZN7cSystem16disableInterruptEv) for cSystem::disableInterrupt()
    lib.o(i._ZN12cHwSPImaster6Device10transceiveEPht) refers to lib.o(i._ZN7cHwPort3Pin3clrEv) for cHwPort::Pin::clr()
    lib.o(i._ZN12cHwSPImaster6Device10transceiveEPht) refers to lib.o(i._ZN7cHwPort3Pin3setEv) for cHwPort::Pin::set()
    lib.o(i._ZN12cHwSPImaster6Device10transceiveEPht) refers to lib.o(i._ZN7cSystem15enableInterruptEv) for cSystem::enableInterrupt()
    lib.o(i._ZN12cHwSPImaster6Device10transceiveEh) refers to lib.o(i._ZN7cSystem16disableInterruptEv) for cSystem::disableInterrupt()
    lib.o(i._ZN12cHwSPImaster6Device10transceiveEh) refers to lib.o(i._ZN7cHwPort3Pin3clrEv) for cHwPort::Pin::clr()
    lib.o(i._ZN12cHwSPImaster6Device10transceiveEh) refers to lib.o(i._ZN7cHwPort3Pin3setEv) for cHwPort::Pin::set()
    lib.o(i._ZN12cHwSPImaster6Device10transceiveEh) refers to lib.o(i._ZN7cSystem15enableInterruptEv) for cSystem::enableInterrupt()
    lib.o(i._ZN12cHwSPImasterC2Ev) refers to lib.o(.constdata__ZTV12cHwSPImaster) for vtable for cHwSPImaster
    lib.o(i._ZN12cHwUSBinterfC2ER6cHwUSBhh) refers to h1_alloc.o(.text) for malloc
    lib.o(i._ZN12cHwUSBinterfC2ER6cHwUSBhh) refers to lib.o(i._ZN14cHwUSBendpointC1ER6cHwUSBP12cHwUSBinterfhth) for cHwUSBendpoint::cHwUSBendpoint(cHwUSB&, cHwUSBinterf*, unsigned char, unsigned short, unsigned char)
    lib.o(i._ZN12cHwUSBinterfC2ER6cHwUSBhh) refers to lib.o(.constdata__ZTV12cHwUSBinterf) for vtable for cHwUSBinterf
    lib.o(i._ZN12cTaskHandler4TaskC2ERS_) refers to lib.o(i._ZN5cList4ItemC1EPS_) for cList::Item::Item(cList*)
    lib.o(i._ZN12cTaskHandler4TaskC2ERS_) refers to lib.o(.constdata__ZTVN12cTaskHandler4TaskE) for vtable for cTaskHandler::Task
    lib.o(i._ZN12cTaskHandler5TimerC1ERS_tt) refers to lib.o(i._ZN6cTimerC2Ev) for cTimer::cTimer__sub_object()
    lib.o(i._ZN12cTaskHandler5TimerC1ERS_tt) refers to lib.o(i._ZN6cTimer3setEtt) for cTimer::set(unsigned short, unsigned short)
    lib.o(i._ZN12cTaskHandler5TimerC1ERS_tt) refers to lib.o(.constdata__ZTVN12cTaskHandler5TimerE) for vtable for cTaskHandler::Timer
    lib.o(i._ZN12cTaskHandler7addTaskEPNS_4TaskE) refers to lib.o(i._ZN5cList3addEPNS_4ItemE) for cList::add(cList::Item*)
    lib.o(i._ZN12cTaskHandlerC1EP8cHwTimer) refers to lib.o(i._ZN5cList4ItemC1EPS_) for cList::Item::Item(cList*)
    lib.o(i._ZN12cTaskHandlerC1EP8cHwTimer) refers to lib.o(i._ZN5cListC1Ev) for cList::cList()
    lib.o(i._ZN12cTaskHandlerC1EP8cHwTimer) refers to lib.o(.constdata__ZTV12cTaskHandler) for vtable for cTaskHandler
    lib.o(i._ZN12cTaskHandlerC1EPS_) refers to lib.o(i._ZN5cList4ItemC1EPS_) for cList::Item::Item(cList*)
    lib.o(i._ZN12cTaskHandlerC1EPS_) refers to lib.o(i._ZN5cListC1Ev) for cList::cList()
    lib.o(i._ZN12cTaskHandlerC1EPS_) refers to lib.o(.constdata__ZTV12cTaskHandler) for vtable for cTaskHandler
    lib.o(i._ZN13cDevAnalogOutC2Ehff) refers to lib.o(i._ZN10cDevAnalogC1Ehff) for cDevAnalog::cDevAnalog(unsigned char, float, float)
    lib.o(i._ZN13cDevAnalogOutC2Ehff) refers to lib.o(.constdata__ZTV13cDevAnalogOut) for vtable for cDevAnalogOut
    lib.o(i._ZN13cNetTransport6SocketC2ERS_R15cNetApplication8cNetAddrILh4EEt) refers to lib.o(i._ZN5cList4ItemC1EPS_) for cList::Item::Item(cList*)
    lib.o(i._ZN13cNetTransport6SocketC2ERS_R15cNetApplication8cNetAddrILh4EEt) refers to lib.o(t._ZN8cNetTYPEItEaSEt) for cNetTYPE<unsigned short>::operator =(unsigned short)
    lib.o(i._ZN13cNetTransport6SocketC2ERS_R15cNetApplication8cNetAddrILh4EEt) refers to lib.o(t._ZNK8cNetAddrILh4EEeqERKS0_) for cNetAddr<(unsigned char)4>::operator ==(const cNetAddr<(unsigned char)4>&) const
    lib.o(i._ZN13cNetTransport6SocketC2ERS_R15cNetApplication8cNetAddrILh4EEt) refers to lib.o(i._ZN5cList3addEPNS_4ItemE) for cList::add(cList::Item*)
    lib.o(i._ZN13cNetTransport6SocketC2ERS_R15cNetApplication8cNetAddrILh4EEt) refers to lib.o(.constdata__ZTVN13cNetTransport6SocketE) for vtable for cNetTransport::Socket
    lib.o(i._ZN13cNetTransport6SocketC2ERS_R15cNetApplication8cNetAddrILh4EEt) refers to lib.o(.constdata) for .constdata
    lib.o(i._ZN13cNetTransport6updateEv) refers to lib.o(i._ZN5cList8getFirstEv) for cList::getFirst()
    lib.o(i._ZN13cNetTransport6updateEv) refers to lib.o(i._ZN5cList4Item7getNextEv) for cList::Item::getNext()
    lib.o(i._ZN13cNetTransport7processEv) refers to lib.o(i._ZN5cList8getFirstEv) for cList::getFirst()
    lib.o(i._ZN13cNetTransport7processEv) refers to lib.o(i._ZN5cList4Item7getNextEv) for cList::Item::getNext()
    lib.o(i._ZN13cNetTransport7timeoutEv) refers to lib.o(i._ZN5cList8getFirstEv) for cList::getFirst()
    lib.o(i._ZN13cNetTransport7timeoutEv) refers to lib.o(i._ZN5cList4Item7getNextEv) for cList::Item::getNext()
    lib.o(i._ZN13cNetTransportC2Ev) refers to lib.o(i._ZN5cListC1Ev) for cList::cList()
    lib.o(i._ZN13cNetTransportC2Ev) refers to lib.o(.constdata__ZTV13cNetTransport) for vtable for cNetTransport
    lib.o(i._ZN14cHwDisplayFont8getPixelEhh) refers to lib.o(i._ZNK14cHwDisplayFont12getCharWidthEv) for cHwDisplayFont::getCharWidth() const
    lib.o(i._ZN14cHwI2Cmaster_N4readEhPhhS0_h) refers to lib.o(i._ZN7cSystem16disableInterruptEv) for cSystem::disableInterrupt()
    lib.o(i._ZN14cHwI2Cmaster_N4readEhPhhS0_h) refers to lib.o(i._ZN7cSystem15enableInterruptEv) for cSystem::enableInterrupt()
    lib.o(i._ZN14cHwI2Cmaster_N5writeEhPhhS0_h) refers to lib.o(i._ZN7cSystem16disableInterruptEv) for cSystem::disableInterrupt()
    lib.o(i._ZN14cHwI2Cmaster_N5writeEhPhhS0_h) refers to lib.o(i._ZN7cSystem15enableInterruptEv) for cSystem::enableInterrupt()
    lib.o(i._ZN14cHwI2Cmaster_NC1ENS_6I2C_IDEN12cHwI2Cmaster4MODEEh) refers to lib.o(i._ZN12cHwI2CmasterC2Eh) for cHwI2Cmaster::cHwI2Cmaster__sub_object(unsigned char)
    lib.o(i._ZN14cHwI2Cmaster_NC1ENS_6I2C_IDEN12cHwI2Cmaster4MODEEh) refers to lib.o(i._ZN12cHwPinConfig3setENS_8FunctionEj) for cHwPinConfig::set(cHwPinConfig::Function, unsigned)
    lib.o(i._ZN14cHwI2Cmaster_NC1ENS_6I2C_IDEN12cHwI2Cmaster4MODEEh) refers to lib.o(.constdata__ZTV14cHwI2Cmaster_N) for vtable for cHwI2Cmaster_N
    lib.o(i._ZN14cHwI2Cmaster_NC1ENS_6I2C_IDEN12cHwI2Cmaster4MODEEh) refers to lib.o(.constdata) for .constdata
    lib.o(i._ZN14cHwUSBendpoint12writeDataLenERK12cDataPointert) refers to lib.o(t._Z3MINItET_S0_S0_) for T1 MIN<unsigned short>(T1, T1)
    lib.o(i._ZN14cHwUSBendpoint12writeDataLenERK12cDataPointert) refers to lib.o(i._ZN14cHwUSBendpoint9writeDataEv) for cHwUSBendpoint::writeData()
    lib.o(i._ZN14cHwUSBendpoint2inEv) refers to lib.o(i._ZN12cDataPointer7isEmptyEv) for cDataPointer::isEmpty()
    lib.o(i._ZN14cHwUSBendpoint2inEv) refers to lib.o(i._ZN14cHwUSBendpoint9writeDataEv) for cHwUSBendpoint::writeData()
    lib.o(i._ZN14cHwUSBendpoint3outEv) refers to lib.o(i._ZN14cHwUSBendpoint8readDataEv) for cHwUSBendpoint::readData()
    lib.o(i._ZN14cHwUSBendpoint3outEv) refers to lib.o(i._ZN14cHwUSBendpoint5stallEv) for cHwUSBendpoint::stall()
    lib.o(i._ZN14cHwUSBendpoint6inCtrlEv) refers to lib.o(i._ZN14cHwUSBendpoint9writeDataEv) for cHwUSBendpoint::writeData()
    lib.o(i._ZN14cHwUSBendpoint7outCtrlEv) refers to lib.o(i._ZN14cHwUSBendpoint8readDataEv) for cHwUSBendpoint::readData()
    lib.o(i._ZN14cHwUSBendpoint7outCtrlEv) refers to lib.o(i._ZN14cHwUSBendpoint16writeAcknowledgeEv) for cHwUSBendpoint::writeAcknowledge()
    lib.o(i._ZN14cHwUSBendpoint7outCtrlEv) refers to lib.o(i._ZN14cHwUSBendpoint5stallEv) for cHwUSBendpoint::stall()
    lib.o(i._ZN14cHwUSBendpoint8readDataEv) refers to lib.o(i._ZN12cDataPointer5shiftEt) for cDataPointer::shift(unsigned short)
    lib.o(i._ZN14cHwUSBendpoint9writeDataERK12cDataPointer) refers to lib.o(i._ZN14cHwUSBendpoint9writeDataEv) for cHwUSBendpoint::writeData()
    lib.o(i._ZN14cHwUSBendpoint9writeDataEv) refers to lib.o(t._Z3MINItET_S0_S0_) for T1 MIN<unsigned short>(T1, T1)
    lib.o(i._ZN14cHwUSBendpoint9writeDataEv) refers to lib.o(i._ZN12cDataPointer5shiftEt) for cDataPointer::shift(unsigned short)
    lib.o(i._ZN14cHwUSBendpointC1ER6cHwUSBP12cHwUSBinterfhth) refers to lib.o(i._ZN12cDataPointerC1Ev) for cDataPointer::cDataPointer()
    lib.o(i._ZN14cHwUSBendpointC1ER6cHwUSBht) refers to lib.o(i._ZN12cDataPointerC1Ev) for cDataPointer::cDataPointer()
    lib.o(i._ZN15cDevAnalogInADCC1ER6cHwADChffh) refers to lib.o(i._ZN12cDevAnalogInC2Ehff) for cDevAnalogIn::cDevAnalogIn__sub_object(unsigned char, float, float)
    lib.o(i._ZN15cDevAnalogInADCC1ER6cHwADChffh) refers to lib.o(.constdata__ZTV15cDevAnalogInADC) for vtable for cDevAnalogInADC
    lib.o(i._ZN15cDevDisplayChar6printfEhhhPKcz) refers to c89vsnprintf.o(.text) for __c89vsnprintf
    lib.o(i._ZN15cDevDisplayCharC1ER10cHwDisplay) refers to lib.o(.constdata__ZTV15cDevDisplayChar) for vtable for cDevDisplayChar
    lib.o(i._ZN15cDevTextIO_UARTC1ER7cHwUARThhPKcS3_) refers to lib.o(i._ZN10cDevTextIOC2EhhPKcS1_) for cDevTextIO::cDevTextIO__sub_object(unsigned char, unsigned char, const char*, const char*)
    lib.o(i._ZN15cDevTextIO_UARTC1ER7cHwUARThhPKcS3_) refers to lib.o(.constdata__ZTV15cDevTextIO_UART) for vtable for cDevTextIO_UART
    lib.o(i._ZN15cHwEthernet_MCU10PacketSendEPht) refers to lib.o(i._ZN15cHwEthernet_MCU16low_level_outputEPhj) for cHwEthernet_MCU::low_level_output(unsigned char*, unsigned)
    lib.o(i._ZN15cHwEthernet_MCU13PacketReceiveEv) refers to lib.o(i._ZN15cHwEthernet_MCU22ETH_CheckFrameReceivedEv) for cHwEthernet_MCU::ETH_CheckFrameReceived()
    lib.o(i._ZN15cHwEthernet_MCU13PacketReceiveEv) refers to lib.o(i._ZN15cHwEthernet_MCU15low_level_inputEPhj) for cHwEthernet_MCU::low_level_input(unsigned char*, unsigned)
    lib.o(i._ZN15cHwEthernet_MCU14low_level_initEv) refers to lib.o(i._ZN15cHwEthernet_MCU22ETH_DMATxDescChainInitEP18ETH_DMADESCTypeDefPhj) for cHwEthernet_MCU::ETH_DMATxDescChainInit(ETH_DMADESCTypeDef*, unsigned char*, unsigned)
    lib.o(i._ZN15cHwEthernet_MCU14low_level_initEv) refers to lib.o(i._ZN15cHwEthernet_MCU22ETH_DMARxDescChainInitEP18ETH_DMADESCTypeDefPhj) for cHwEthernet_MCU::ETH_DMARxDescChainInit(ETH_DMADESCTypeDef*, unsigned char*, unsigned)
    lib.o(i._ZN15cHwEthernet_MCU14low_level_initEv) refers to lib.o(.ARM.__AT_0x20002100) for .ARM.__AT_0x20002100
    lib.o(i._ZN15cHwEthernet_MCU14low_level_initEv) refers to lib.o(.ARM.__AT_0x20002000) for .ARM.__AT_0x20002000
    lib.o(i._ZN15cHwEthernet_MCU14low_level_initEv) refers to lib.o(.ARM.__AT_0x20000100) for .ARM.__AT_0x20000100
    lib.o(i._ZN15cHwEthernet_MCU14low_level_initEv) refers to lib.o(.ARM.__AT_0x20000000) for .ARM.__AT_0x20000000
    lib.o(i._ZN15cHwEthernet_MCU15low_level_inputEPhj) refers to lib.o(i._ZN15cHwEthernet_MCU22ETH_Get_Received_FrameEv) for cHwEthernet_MCU::ETH_Get_Received_Frame()
    lib.o(i._ZN15cHwEthernet_MCU15low_level_inputEPhj) refers to rt_memcpy_v6.o(.text) for __aeabi_memcpy
    lib.o(i._ZN15cHwEthernet_MCU15low_level_inputEPhj) refers to lib.o(.data) for .data
    lib.o(i._ZN15cHwEthernet_MCU16low_level_outputEPhj) refers to rt_memcpy_v6.o(.text) for __aeabi_memcpy
    lib.o(i._ZN15cHwEthernet_MCU16low_level_outputEPhj) refers to lib.o(i._ZN15cHwEthernet_MCU32ETH_Prepare_Transmit_DescriptorsEt) for cHwEthernet_MCU::ETH_Prepare_Transmit_Descriptors(unsigned short)
    lib.o(i._ZN15cHwEthernet_MCU16low_level_outputEPhj) refers to lib.o(.data) for .data
    lib.o(i._ZN15cHwEthernet_MCU22ETH_CheckFrameReceivedEv) refers to lib.o(.data) for .data
    lib.o(i._ZN15cHwEthernet_MCU22ETH_DMARxDescChainInitEP18ETH_DMADESCTypeDefPhj) refers to lib.o(.data) for .data
    lib.o(i._ZN15cHwEthernet_MCU22ETH_DMARxDescChainInitEP18ETH_DMADESCTypeDefPhj) refers to lib.o(.bss) for .bss
    lib.o(i._ZN15cHwEthernet_MCU22ETH_DMATxDescChainInitEP18ETH_DMADESCTypeDefPhj) refers to lib.o(.data) for .data
    lib.o(i._ZN15cHwEthernet_MCU22ETH_Get_Received_FrameEv) refers to lib.o(.data) for .data
    lib.o(i._ZN15cHwEthernet_MCU32ETH_Prepare_Transmit_DescriptorsEt) refers to lib.o(.data) for .data
    lib.o(i._ZN15cHwEthernet_MCU6createE8cNetAddrILh6EEt) refers to lib.o(t._ZN8cNetTYPEItEaSEt) for cNetTYPE<unsigned short>::operator =(unsigned short)
    lib.o(i._ZN15cHwEthernet_MCU7getTypeEv) refers to lib.o(t._ZN8cNetTYPEItEcvtEv) for cNetTYPE<unsigned short>::operator unsigned short()
    lib.o(i._ZN15cHwEthernet_MCUC1ERN7cHwPort3PinERK8cNetAddrILh6EE) refers to lib.o(i._ZN11cHwEthernetC2ERK8cNetAddrILh6EE) for cHwEthernet::cHwEthernet__sub_object(const cNetAddr<(unsigned char)6>&)
    lib.o(i._ZN15cHwEthernet_MCUC1ERN7cHwPort3PinERK8cNetAddrILh6EE) refers to lib.o(i._ZN12cHwPinConfig3setENS_8FunctionEj) for cHwPinConfig::set(cHwPinConfig::Function, unsigned)
    lib.o(i._ZN15cHwEthernet_MCUC1ERN7cHwPort3PinERK8cNetAddrILh6EE) refers to lib.o(i._ZN7cSystem13delayMilliSecEt) for cSystem::delayMilliSec(unsigned short)
    lib.o(i._ZN15cHwEthernet_MCUC1ERN7cHwPort3PinERK8cNetAddrILh6EE) refers to lib.o(i._ZN15cHwEthernet_MCU19ETH_ReadPHYRegisterEtt) for cHwEthernet_MCU::ETH_ReadPHYRegister(unsigned short, unsigned short)
    lib.o(i._ZN15cHwEthernet_MCUC1ERN7cHwPort3PinERK8cNetAddrILh6EE) refers to lib.o(i._ZN15cHwEthernet_MCU8ETH_InitEt) for cHwEthernet_MCU::ETH_Init(unsigned short)
    lib.o(i._ZN15cHwEthernet_MCUC1ERN7cHwPort3PinERK8cNetAddrILh6EE) refers to lib.o(i._ZN15cHwEthernet_MCU14low_level_initEv) for cHwEthernet_MCU::low_level_init()
    lib.o(i._ZN15cHwEthernet_MCUC1ERN7cHwPort3PinERK8cNetAddrILh6EE) refers to lib.o(.constdata__ZTV15cHwEthernet_MCU) for vtable for cHwEthernet_MCU
    lib.o(i._ZN15cHwMemory_FlashC1ENS_6SectorE) refers to lib.o(i._ZN9cHwMemoryC2Ejh) for cHwMemory::cHwMemory__sub_object(unsigned, unsigned char)
    lib.o(i._ZN15cHwMemory_FlashC1ENS_6SectorE) refers to lib.o(.constdata__ZTV15cHwMemory_Flash) for vtable for cHwMemory_Flash
    lib.o(i._ZN16cDevAnalogOutDACC1ER6cHwDAChff) refers to lib.o(i._ZN13cDevAnalogOutC2Ehff) for cDevAnalogOut::cDevAnalogOut__sub_object(unsigned char, float, float)
    lib.o(i._ZN16cDevAnalogOutDACC1ER6cHwDAChff) refers to lib.o(.constdata__ZTV16cDevAnalogOutDAC) for vtable for cDevAnalogOutDAC
    lib.o(i._ZN16cDevAnalogOutPWMC1ER8cHwTimerNS0_4ModeEhff) refers to lib.o(i._ZN13cDevAnalogOutC2Ehff) for cDevAnalogOut::cDevAnalogOut__sub_object(unsigned char, float, float)
    lib.o(i._ZN16cDevAnalogOutPWMC1ER8cHwTimerNS0_4ModeEhff) refers to lib.o(.constdata__ZTV16cDevAnalogOutPWM) for vtable for cDevAnalogOutPWM
    lib.o(i._ZN17cHwDisplayGraphic11gotoTextPosEhh) refers to lib.o(i._ZNK14cHwDisplayFont12getCharWidthEv) for cHwDisplayFont::getCharWidth() const
    lib.o(i._ZN17cHwDisplayGraphic11gotoTextPosEhh) refers to lib.o(i._ZNK14cHwDisplayFont13getCharHeightEv) for cHwDisplayFont::getCharHeight() const
    lib.o(i._ZN17cHwDisplayGraphic7putCharEc) refers to lib.o(i._ZN14cHwDisplayFont7setCharEh) for cHwDisplayFont::setChar(unsigned char)
    lib.o(i._ZN17cHwDisplayGraphic7putCharEc) refers to lib.o(i._ZNK14cHwDisplayFont13getCharHeightEv) for cHwDisplayFont::getCharHeight() const
    lib.o(i._ZN17cHwDisplayGraphic7putCharEc) refers to lib.o(i._ZNK14cHwDisplayFont12getCharWidthEv) for cHwDisplayFont::getCharWidth() const
    lib.o(i._ZN17cHwDisplayGraphic7putCharEc) refers to lib.o(i._ZN14cHwDisplayFont8getPixelEhh) for cHwDisplayFont::getPixel(unsigned char, unsigned char)
    lib.o(i._ZN17cHwDisplayGraphicC2E14cHwDisplayFonth) refers to lib.o(i._ZN10cHwDisplayC2Ehh) for cHwDisplay::cHwDisplay__sub_object(unsigned char, unsigned char)
    lib.o(i._ZN17cHwDisplayGraphicC2E14cHwDisplayFonth) refers to lib.o(.constdata__ZTV17cHwDisplayGraphic) for vtable for cHwDisplayGraphic
    lib.o(i._ZN17cHwI2Cmaster_Emul4waitEv) refers to lib.o(i._ZN7cSystem13delayMicroSecEt) for cSystem::delayMicroSec(unsigned short)
    lib.o(i._ZN17cHwI2Cmaster_EmulC1ERN7cHwPort3PinES2_N12cHwI2Cmaster4MODEE) refers to lib.o(i._ZN12cHwI2CmasterC2Eh) for cHwI2Cmaster::cHwI2Cmaster__sub_object(unsigned char)
    lib.o(i._ZN17cHwI2Cmaster_EmulC1ERN7cHwPort3PinES2_N12cHwI2Cmaster4MODEE) refers to lib.o(.constdata__ZTV17cHwI2Cmaster_Emul) for vtable for cHwI2Cmaster_Emul
    lib.o(i._ZN18cDevControlEncoder3getEv) refers to lib.o(i._ZN7cSystem16disableInterruptEv) for cSystem::disableInterrupt()
    lib.o(i._ZN18cDevControlEncoder3getEv) refers to lib.o(i._ZN7cSystem15enableInterruptEv) for cSystem::enableInterrupt()
    lib.o(i._ZN18cDevControlEncoder6updateEv) refers to lib.o(t._ZN5cFifoIN18cDevControlEncoder6tEventEE6isFullEv) for cFifo<cDevControlEncoder::tEvent>::isFull()
    lib.o(i._ZN18cDevControlEncoder6updateEv) refers to lib.o(t._ZN5cFifoIN18cDevControlEncoder6tEventEElsERKS1_) for cFifo<cDevControlEncoder::tEvent>::operator <<(const cDevControlEncoder::tEvent&)
    lib.o(i._ZN18cDevControlEncoderC2EP11cDevDigitalP8cHwTimer) refers to lib.o(i._ZN5cList4ItemC1EPS_) for cList::Item::Item(cList*)
    lib.o(i._ZN18cDevControlEncoderC2EP11cDevDigitalP8cHwTimer) refers to lib.o(i._Znaj) for operator new[] (unsigned)
    lib.o(i._ZN18cDevControlEncoderC2EP11cDevDigitalP8cHwTimer) refers to lib.o(.constdata__ZTV18cDevControlEncoder) for vtable for cDevControlEncoder
    lib.o(i._ZN18cDevControlPointer3getEv) refers to lib.o(t._Z5RANGEIsET_S0_S0_S0_) for T1 RANGE<short>(T1, T1, T1)
    lib.o(i._ZN18cDevControlPointerC1ER8cHwTouch) refers to lib.o(.constdata__ZTV18cDevControlPointer) for vtable for cDevControlPointer
    lib.o(i._ZN18cDevDisplayGraphic10drawCircleEtttt) refers to sqrtf.o(i.__hardfp_sqrtf) for __hardfp_sqrtf
    lib.o(i._ZN18cDevDisplayGraphic6printfEhhhPKcz) refers to c89vsprintf.o(.text) for __c89vsprintf
    lib.o(i._ZN18cDevDisplayGraphic8drawTextEtthPKcz) refers to c89vsprintf.o(.text) for __c89vsprintf
    lib.o(i._ZN18cDevDisplayGraphicC1ER17cHwDisplayGraphic) refers to lib.o(i._ZN18cDevDisplayGraphic5clearEv) for cDevDisplayGraphic::clear()
    lib.o(i._ZN18cDevDisplayGraphicC1ER17cHwDisplayGraphic) refers to lib.o(.constdata__ZTV18cDevDisplayGraphic) for vtable for cDevDisplayGraphic
    lib.o(i._ZN20cDevAnalogOutPWMemul6setRawEt) refers to lib.o(i._ZN7cSystem16disableInterruptEv) for cSystem::disableInterrupt()
    lib.o(i._ZN20cDevAnalogOutPWMemul6setRawEt) refers to lib.o(i._ZN7cSystem15enableInterruptEv) for cSystem::enableInterrupt()
    lib.o(i._ZN20cDevAnalogOutPWMemul6updateEv) refers to lib.o(i._ZN7cSystem16disableInterruptEv) for cSystem::disableInterrupt()
    lib.o(i._ZN20cDevAnalogOutPWMemul6updateEv) refers to lib.o(i._ZN7cSystem15enableInterruptEv) for cSystem::enableInterrupt()
    lib.o(i._ZN20cDevAnalogOutPWMemulC1ER8cHwTimerR11cDevDigitalhff) refers to lib.o(i._ZN13cDevAnalogOutC2Ehff) for cDevAnalogOut::cDevAnalogOut__sub_object(unsigned char, float, float)
    lib.o(i._ZN20cDevAnalogOutPWMemulC1ER8cHwTimerR11cDevDigitalhff) refers to lib.o(i._ZN5cList4ItemC1EPS_) for cList::Item::Item(cList*)
    lib.o(i._ZN20cDevAnalogOutPWMemulC1ER8cHwTimerR11cDevDigitalhff) refers to lib.o(.constdata__ZTV20cDevAnalogOutPWMemul) for vtable for cDevAnalogOutPWMemul
    lib.o(i._ZN20cDevDigitalIndicatorC1ER11cDevDigitalR8cHwTimer) refers to lib.o(i._ZN5cList4ItemC1EPS_) for cList::Item::Item(cList*)
    lib.o(i._ZN20cDevDigitalIndicatorC1ER11cDevDigitalR8cHwTimer) refers to dflt_clz.o(x$fpl$dfltu) for __aeabi_ui2d
    lib.o(i._ZN20cDevDigitalIndicatorC1ER11cDevDigitalR8cHwTimer) refers to ddiv.o(x$fpl$ddiv) for __aeabi_ddiv
    lib.o(i._ZN20cDevDigitalIndicatorC1ER11cDevDigitalR8cHwTimer) refers to dfix.o(x$fpl$dfix) for __aeabi_d2iz
    lib.o(i._ZN20cDevDigitalIndicatorC1ER11cDevDigitalR8cHwTimer) refers to lib.o(.constdata__ZTV20cDevDigitalIndicator) for vtable for cDevDigitalIndicator
    lib.o(i._ZN26cDevControlEncoderJoystickC1EP11cDevDigitalS1_S1_P8cHwTimert) refers to lib.o(i._ZN18cDevControlEncoderC2EP11cDevDigitalP8cHwTimer) for cDevControlEncoder::cDevControlEncoder__sub_object(cDevDigital*, cHwTimer*)
    lib.o(i._ZN26cDevControlEncoderJoystickC1EP11cDevDigitalS1_S1_P8cHwTimert) refers to lib.o(.constdata__ZTV26cDevControlEncoderJoystick) for vtable for cDevControlEncoderJoystick
    lib.o(i._ZN28cDevControlEncoderRotaryKnobC1EP11cDevDigitalS1_S1_P8cHwTimer) refers to lib.o(i._ZN18cDevControlEncoderC2EP11cDevDigitalP8cHwTimer) for cDevControlEncoder::cDevControlEncoder__sub_object(cDevDigital*, cHwTimer*)
    lib.o(i._ZN28cDevControlEncoderRotaryKnobC1EP11cDevDigitalS1_S1_P8cHwTimer) refers to lib.o(.constdata__ZTV28cDevControlEncoderRotaryKnob) for vtable for cDevControlEncoderRotaryKnob
    lib.o(i._ZN4cCRCC1ENS_4MODEEtt) refers to lib.o(i._Znaj) for operator new[] (unsigned)
    lib.o(i._ZN4cCRCC1ENS_4MODEEtt) refers to lib.o(i._ZN4cCRC9tabMethodEh) for cCRC::tabMethod(unsigned char)
    lib.o(i._ZN4cCRCD1Ev) refers to h1_free.o(.text) for free
    lib.o(i._ZN4cCRCclEPKhj) refers to lib.o(i._ZN4cCRC9tabMethodEh) for cCRC::tabMethod(unsigned char)
    lib.o(i._ZN4cCRCclEh) refers to lib.o(i._ZN4cCRC9tabMethodEh) for cCRC::tabMethod(unsigned char)
    lib.o(i._ZN5cList4Item7getPrevERS_) refers to lib.o(i._ZN5cList8getFirstEv) for cList::getFirst()
    lib.o(i._ZN5cList4Item7getPrevERS_) refers to lib.o(i._ZN5cList4Item7getNextEv) for cList::Item::getNext()
    lib.o(i._ZN5cList4ItemC1EPS_) refers to lib.o(i._ZN5cList3addEPNS_4ItemE) for cList::add(cList::Item*)
    lib.o(i._ZN5cList4ItemC1EPS_) refers to lib.o(.constdata__ZTVN5cList4ItemE) for vtable for cList::Item
    lib.o(i._ZN6cHwADCC2EhP8cHwTimer) refers to lib.o(i._ZN5cList4ItemC1EPS_) for cList::Item::Item(cList*)
    lib.o(i._ZN6cHwADCC2EhP8cHwTimer) refers to lib.o(i._Znaj) for operator new[] (unsigned)
    lib.o(i._ZN6cHwADCC2EhP8cHwTimer) refers to lib.o(.constdata__ZTV6cHwADC) for vtable for cHwADC
    lib.o(i._ZN6cHwDACC2Eh) refers to lib.o(.constdata__ZTV6cHwDAC) for vtable for cHwDAC
    lib.o(i._ZN6cHwRTCC2Ev) refers to lib.o(.constdata__ZTV6cHwRTC) for vtable for cHwRTC
    lib.o(i._ZN6cHwUSB12eventHandlerEhh) refers to lib.o(i._ZN14cHwUSBendpoint2inEv) for cHwUSBendpoint::in()
    lib.o(i._ZN6cHwUSB12eventHandlerEhh) refers to lib.o(i._ZN10cHwUSBctrl5setupEv) for cHwUSBctrl::setup()
    lib.o(i._ZN6cHwUSB12eventHandlerEhh) refers to lib.o(i._ZN10cHwUSBctrl3outEv) for cHwUSBctrl::out()
    lib.o(i._ZN6cHwUSB12eventHandlerEhh) refers to lib.o(i._ZN10cHwUSBctrl2inEv) for cHwUSBctrl::in()
    lib.o(i._ZN6cHwUSB12eventHandlerEhh) refers to lib.o(i._ZN14cHwUSBendpoint3outEv) for cHwUSBendpoint::out()
    lib.o(i._ZN6cHwUSBC2ER10cHwUSBdesc) refers to lib.o(i._ZN10cHwUSBctrlC1ER6cHwUSB) for cHwUSBctrl::cHwUSBctrl(cHwUSB&)
    lib.o(i._ZN6cHwUSBC2ER10cHwUSBdesc) refers to lib.o(.constdata__ZTV6cHwUSB) for vtable for cHwUSB
    lib.o(i._ZN6cNetIP6createE8cNetAddrILh6EES0_ILh4EEtt) refers to lib.o(t._ZN8cNetTYPEItEaSEt) for cNetTYPE<unsigned short>::operator =(unsigned short)
    lib.o(i._ZN6cNetIP6createE8cNetAddrILh6EES0_ILh4EEtt) refers to lib.o(i._Z8ChecksumPhtj) for Checksum(unsigned char*, unsigned short, unsigned)
    lib.o(i._ZN6cNetIP7processEv) refers to lib.o(t._ZNK8cNetAddrILh4EEeqERKS0_) for cNetAddr<(unsigned char)4>::operator ==(const cNetAddr<(unsigned char)4>&) const
    lib.o(i._ZN6cNetIP7processEv) refers to lib.o(i._ZN8cNetICMP7processEv) for cNetICMP::process()
    lib.o(i._ZN6cNetIPC1ER11cHwEthernetRK8cNetAddrILh4EER8cHwTimer) refers to lib.o(i._ZN7cNetARPC1ER11cHwEthernetR8cNetAddrILh4EE) for cNetARP::cNetARP(cHwEthernet&, cNetAddr<(unsigned char)4>&)
    lib.o(i._ZN6cNetIPC1ER11cHwEthernetRK8cNetAddrILh4EER8cHwTimer) refers to lib.o(i._ZN5cList4ItemC1EPS_) for cList::Item::Item(cList*)
    lib.o(i._ZN6cNetIPC1ER11cHwEthernetRK8cNetAddrILh4EER8cHwTimer) refers to lib.o(i._ZN11cHwEthernet5setIPEP6cNetIP) for cHwEthernet::setIP(cNetIP*)
    lib.o(i._ZN6cNetIPC1ER11cHwEthernetRK8cNetAddrILh4EER8cHwTimer) refers to lib.o(.constdata__ZTVN6cNetIP13cTimeOutTimerE) for vtable for cNetIP::cTimeOutTimer
    lib.o(i._ZN6cTimer5startEtt) refers to lib.o(i._ZN6cTimer3setEtt) for cTimer::set(unsigned short, unsigned short)
    lib.o(i._ZN6cTimer5startEtt) refers to lib.o(i._ZN6cTimer5startEv) for cTimer::start()
    lib.o(i._ZN6cTimer7timeoutEtt) refers to lib.o(i._ZN6cTimer3setEtt) for cTimer::set(unsigned short, unsigned short)
    lib.o(i._ZN6cTimer7timeoutEtt) refers to lib.o(i._ZN6cTimer7timeoutEv) for cTimer::timeout()
    lib.o(i._ZN6cTimer7timeoutEv) refers to lib.o(i._ZN6cTimer5startEv) for cTimer::start()
    lib.o(i._ZN6cTimer9isRunningEv) refers to lib.o(i._ZN6cTimer7timeoutEv) for cTimer::timeout()
    lib.o(i._ZN6cTimer9isRunningEv) refers to lib.o(i._ZN6cTimer4stopEv) for cTimer::stop()
    lib.o(i._ZN6cTimerC2Ev) refers to lib.o(.constdata__ZTV6cTimer) for vtable for cTimer
    lib.o(i._ZN7cHwPort3PinC1ERS_h) refers to lib.o(.constdata__ZTVN7cHwPort3PinE) for vtable for cHwPort::Pin
    lib.o(i._ZN7cHwPort3PinC1ERS_hNS_4ModeE) refers to lib.o(.constdata__ZTVN7cHwPort3PinE) for vtable for cHwPort::Pin
    lib.o(i._ZN7cHwUART12transmitByteEh) refers to lib.o(t._ZN5cFifoIhE6isFullEv) for cFifo<unsigned char>::isFull()
    lib.o(i._ZN7cHwUART12transmitByteEh) refers to lib.o(t._ZN5cFifoIhElsERKh) for cFifo<unsigned char>::operator <<(const unsigned char&)
    lib.o(i._ZN7cHwUART3getEPh) refers to lib.o(t._ZN5cFifoIhErsERh) for cFifo<unsigned char>::operator >>(unsigned char&)
    lib.o(i._ZN7cHwUARTC2Ehh) refers to lib.o(t._ZN5cFifoIhEC1Eh) for cFifo<unsigned char>::cFifo(unsigned char)
    lib.o(i._ZN7cHwUARTC2Ehh) refers to lib.o(.constdata__ZTV7cHwUART) for vtable for cHwUART
    lib.o(i._ZN7cNetARP7processEv) refers to lib.o(t._ZN8cNetTYPEItEcvtEv) for cNetTYPE<unsigned short>::operator unsigned short()
    lib.o(i._ZN7cNetARP7processEv) refers to lib.o(t._ZNK8cNetAddrILh4EEeqERKS0_) for cNetAddr<(unsigned char)4>::operator ==(const cNetAddr<(unsigned char)4>&) const
    lib.o(i._ZN7cNetARP7processEv) refers to lib.o(t._ZN8cNetTYPEItEaSEt) for cNetTYPE<unsigned short>::operator =(unsigned short)
    lib.o(i._ZN7cNetARP7requestER8cNetAddrILh4EE) refers to lib.o(t._ZN8cNetTYPEItEaSEt) for cNetTYPE<unsigned short>::operator =(unsigned short)
    lib.o(i._ZN7cNetARP7requestER8cNetAddrILh4EE) refers to lib.o(.constdata) for .constdata
    lib.o(i._ZN7cNetARPC1ER11cHwEthernetR8cNetAddrILh4EE) refers to lib.o(i._ZN11cHwEthernet6setARPEP7cNetARP) for cHwEthernet::setARP(cNetARP*)
    lib.o(i._ZN7cNetTCP6Socket4openE8cNetAddrILh4EEt) refers to lib.o(t._ZN8cNetTYPEItEaSEt) for cNetTYPE<unsigned short>::operator =(unsigned short)
    lib.o(i._ZN7cNetTCP6Socket4openE8cNetAddrILh4EEt) refers to lib.o(t._ZNK8cNetAddrILh4EEeqERKS0_) for cNetAddr<(unsigned char)4>::operator ==(const cNetAddr<(unsigned char)4>&) const
    lib.o(i._ZN7cNetTCP6Socket4openE8cNetAddrILh4EEt) refers to lib.o(t._ZNK8cNetAddrILh6EEeqERKS0_) for cNetAddr<(unsigned char)6>::operator ==(const cNetAddr<(unsigned char)6>&) const
    lib.o(i._ZN7cNetTCP6Socket4openE8cNetAddrILh4EEt) refers to lib.o(i._ZN7cNetARP7requestER8cNetAddrILh4EE) for cNetARP::request(cNetAddr<(unsigned char)4>&)
    lib.o(i._ZN7cNetTCP6Socket4openE8cNetAddrILh4EEt) refers to lib.o(i._ZN7cNetTCP6createERNS_6SocketEt) for cNetTCP::create(cNetTCP::Socket&, unsigned short)
    lib.o(i._ZN7cNetTCP6Socket4openE8cNetAddrILh4EEt) refers to lib.o(.constdata) for .constdata
    lib.o(i._ZN7cNetTCP6Socket4sendEv) refers to lib.o(i._ZN7cNetTCP6createERNS_6SocketEt) for cNetTCP::create(cNetTCP::Socket&, unsigned short)
    lib.o(i._ZN7cNetTCP6Socket5closeEv) refers to lib.o(i._ZN7cNetTCP6createERNS_6SocketEt) for cNetTCP::create(cNetTCP::Socket&, unsigned short)
    lib.o(i._ZN7cNetTCP6Socket6updateEv) refers to lib.o(t._ZNK8cNetAddrILh6EEeqERKS0_) for cNetAddr<(unsigned char)6>::operator ==(const cNetAddr<(unsigned char)6>&) const
    lib.o(i._ZN7cNetTCP6Socket6updateEv) refers to lib.o(i._ZN7cNetTCP6createERNS_6SocketEt) for cNetTCP::create(cNetTCP::Socket&, unsigned short)
    lib.o(i._ZN7cNetTCP6Socket6updateEv) refers to lib.o(.constdata) for .constdata
    lib.o(i._ZN7cNetTCP6Socket7isReadyEv) refers to lib.o(t._ZNK8cNetAddrILh4EEeqERKS0_) for cNetAddr<(unsigned char)4>::operator ==(const cNetAddr<(unsigned char)4>&) const
    lib.o(i._ZN7cNetTCP6Socket7isReadyEv) refers to lib.o(.constdata) for .constdata
    lib.o(i._ZN7cNetTCP6Socket7processEv) refers to lib.o(i._Z4ntohj) for ntoh(unsigned)
    lib.o(i._ZN7cNetTCP6Socket7processEv) refers to lib.o(t._ZN8cNetTYPEItEcvtEv) for cNetTYPE<unsigned short>::operator unsigned short()
    lib.o(i._ZN7cNetTCP6Socket7processEv) refers to lib.o(i._ZN7cNetTCP6createERNS_6SocketEt) for cNetTCP::create(cNetTCP::Socket&, unsigned short)
    lib.o(i._ZN7cNetTCP6SocketC1ERS_R15cNetApplication8cNetAddrILh4EEt) refers to lib.o(i._ZN13cNetTransport6SocketC2ERS_R15cNetApplication8cNetAddrILh4EEt) for cNetTransport::Socket::Socket__sub_object(cNetTransport&, cNetApplication&, cNetAddr<(unsigned char)4>, unsigned short)
    lib.o(i._ZN7cNetTCP6SocketC1ERS_R15cNetApplication8cNetAddrILh4EEt) refers to lib.o(.constdata__ZTVN7cNetTCP6SocketE) for vtable for cNetTCP::Socket
    lib.o(i._ZN7cNetTCP6createERNS_6SocketEt) refers to lib.o(i._Z4htonj) for hton(unsigned)
    lib.o(i._ZN7cNetTCP6createERNS_6SocketEt) refers to lib.o(t._ZN8cNetTYPEItEaSEt) for cNetTYPE<unsigned short>::operator =(unsigned short)
    lib.o(i._ZN7cNetTCP6createERNS_6SocketEt) refers to lib.o(i._ZN6cNetIP6createE8cNetAddrILh6EES0_ILh4EEtt) for cNetIP::create(cNetAddr<(unsigned char)6>, cNetAddr<(unsigned char)4>, unsigned short, unsigned short)
    lib.o(i._ZN7cNetTCP6createERNS_6SocketEt) refers to lib.o(i._Z8ChecksumPhtj) for Checksum(unsigned char*, unsigned short, unsigned)
    lib.o(i._ZN7cNetTCP9handleARPE8cNetAddrILh4EES0_ILh6EE) refers to lib.o(i._ZN5cList8getFirstEv) for cList::getFirst()
    lib.o(i._ZN7cNetTCP9handleARPE8cNetAddrILh4EES0_ILh6EE) refers to lib.o(t._ZNK8cNetAddrILh4EEeqERKS0_) for cNetAddr<(unsigned char)4>::operator ==(const cNetAddr<(unsigned char)4>&) const
    lib.o(i._ZN7cNetTCP9handleARPE8cNetAddrILh4EES0_ILh6EE) refers to lib.o(i._ZN5cList4Item7getNextEv) for cList::Item::getNext()
    lib.o(i._ZN7cNetTCPC1ER6cNetIP) refers to lib.o(i._ZN13cNetTransportC2Ev) for cNetTransport::cNetTransport__sub_object()
    lib.o(i._ZN7cNetTCPC1ER6cNetIP) refers to lib.o(i._ZN7cNetARP6setTCPEP7cNetTCP) for cNetARP::setTCP(cNetTCP*)
    lib.o(i._ZN7cNetTCPC1ER6cNetIP) refers to lib.o(.constdata__ZTV7cNetTCP) for vtable for cNetTCP
    lib.o(i._ZN7cNetUDP6Socket4openE8cNetAddrILh4EEt) refers to lib.o(t._ZN8cNetTYPEItEaSEt) for cNetTYPE<unsigned short>::operator =(unsigned short)
    lib.o(i._ZN7cNetUDP6Socket4openE8cNetAddrILh4EEt) refers to lib.o(t._ZNK8cNetAddrILh4EEeqERKS0_) for cNetAddr<(unsigned char)4>::operator ==(const cNetAddr<(unsigned char)4>&) const
    lib.o(i._ZN7cNetUDP6Socket4openE8cNetAddrILh4EEt) refers to lib.o(i._ZN7cNetARP7requestER8cNetAddrILh4EE) for cNetARP::request(cNetAddr<(unsigned char)4>&)
    lib.o(i._ZN7cNetUDP6Socket4openE8cNetAddrILh4EEt) refers to lib.o(.constdata) for .constdata
    lib.o(i._ZN7cNetUDP6Socket4sendEv) refers to lib.o(i._ZN7cNetUDP6createERNS_6SocketEt) for cNetUDP::create(cNetUDP::Socket&, unsigned short)
    lib.o(i._ZN7cNetUDP6Socket6updateEv) refers to lib.o(t._ZNK8cNetAddrILh6EEeqERKS0_) for cNetAddr<(unsigned char)6>::operator ==(const cNetAddr<(unsigned char)6>&) const
    lib.o(i._ZN7cNetUDP6Socket6updateEv) refers to lib.o(.constdata) for .constdata
    lib.o(i._ZN7cNetUDP6Socket7isReadyEv) refers to lib.o(t._ZNK8cNetAddrILh4EEeqERKS0_) for cNetAddr<(unsigned char)4>::operator ==(const cNetAddr<(unsigned char)4>&) const
    lib.o(i._ZN7cNetUDP6Socket7isReadyEv) refers to lib.o(.constdata) for .constdata
    lib.o(i._ZN7cNetUDP6Socket7processEv) refers to lib.o(t._ZN8cNetTYPEItEcvtEv) for cNetTYPE<unsigned short>::operator unsigned short()
    lib.o(i._ZN7cNetUDP6Socket7processEv) refers to lib.o(t._ZNK8cNetAddrILh4EEeqERKS0_) for cNetAddr<(unsigned char)4>::operator ==(const cNetAddr<(unsigned char)4>&) const
    lib.o(i._ZN7cNetUDP6Socket7processEv) refers to lib.o(.constdata) for .constdata
    lib.o(i._ZN7cNetUDP6SocketC1ERS_R15cNetApplication8cNetAddrILh4EEtt) refers to lib.o(i._ZN13cNetTransport6SocketC2ERS_R15cNetApplication8cNetAddrILh4EEt) for cNetTransport::Socket::Socket__sub_object(cNetTransport&, cNetApplication&, cNetAddr<(unsigned char)4>, unsigned short)
    lib.o(i._ZN7cNetUDP6SocketC1ERS_R15cNetApplication8cNetAddrILh4EEtt) refers to lib.o(.constdata__ZTVN7cNetUDP6SocketE) for vtable for cNetUDP::Socket
    lib.o(i._ZN7cNetUDP6createERNS_6SocketEt) refers to lib.o(t._ZN8cNetTYPEItEaSEt) for cNetTYPE<unsigned short>::operator =(unsigned short)
    lib.o(i._ZN7cNetUDP6createERNS_6SocketEt) refers to lib.o(i._ZN6cNetIP6createE8cNetAddrILh6EES0_ILh4EEtt) for cNetIP::create(cNetAddr<(unsigned char)6>, cNetAddr<(unsigned char)4>, unsigned short, unsigned short)
    lib.o(i._ZN7cNetUDP6createERNS_6SocketEt) refers to lib.o(i._Z8ChecksumPhtj) for Checksum(unsigned char*, unsigned short, unsigned)
    lib.o(i._ZN7cNetUDP9handleARPE8cNetAddrILh4EES0_ILh6EE) refers to lib.o(i._ZN5cList8getFirstEv) for cList::getFirst()
    lib.o(i._ZN7cNetUDP9handleARPE8cNetAddrILh4EES0_ILh6EE) refers to lib.o(t._ZNK8cNetAddrILh4EEeqERKS0_) for cNetAddr<(unsigned char)4>::operator ==(const cNetAddr<(unsigned char)4>&) const
    lib.o(i._ZN7cNetUDP9handleARPE8cNetAddrILh4EES0_ILh6EE) refers to lib.o(i._ZN5cList4Item7getNextEv) for cList::Item::getNext()
    lib.o(i._ZN7cNetUDPC1ER6cNetIP) refers to lib.o(i._ZN13cNetTransportC2Ev) for cNetTransport::cNetTransport__sub_object()
    lib.o(i._ZN7cNetUDPC1ER6cNetIP) refers to lib.o(i._ZN7cNetARP6setUDPEP7cNetUDP) for cNetARP::setUDP(cNetUDP*)
    lib.o(i._ZN7cNetUDPC1ER6cNetIP) refers to lib.o(.constdata__ZTV7cNetUDP) for vtable for cNetUDP
    lib.o(i._ZN7cSystem13delayMilliSecEt) refers to lib.o(i._ZN7cSystem13delayMicroSecEt) for cSystem::delayMicroSec(unsigned short)
    lib.o(i._ZN7cSystem15enableInterruptEv) refers to lib.o(.data) for .data
    lib.o(i._ZN7cSystem16disableInterruptEv) refers to lib.o(.data) for .data
    lib.o(i._ZN7cSystem5startEv) refers to lib.o(i._ZN7cSystem15enableInterruptEv) for cSystem::enableInterrupt()
    lib.o(i._ZN7cSystem8enterISREv) refers to lib.o(.data) for .data
    lib.o(i._ZN7cSystem8leaveISREv) refers to lib.o(.data) for .data
    lib.o(i._ZN7cSystemC1Eh) refers to lib.o(i._ZN7cSystem15disableWatchdogEv) for cSystem::disableWatchdog()
    lib.o(i._ZN7cSystemC1Eh) refers to lib.o(i._ZN7cSystem16disableInterruptEv) for cSystem::disableInterrupt()
    lib.o(i._ZN8cHwADC_08configChEhh) refers to lib.o(i._ZN12cHwPinConfig3setENS_8FunctionEj) for cHwPinConfig::set(cHwPinConfig::Function, unsigned)
    lib.o(i._ZN8cHwADC_0C1EP8cHwTimer) refers to lib.o(i._ZN6cHwADCC2EhP8cHwTimer) for cHwADC::cHwADC__sub_object(unsigned char, cHwTimer*)
    lib.o(i._ZN8cHwADC_0C1EP8cHwTimer) refers to lib.o(i._Z16__NVIC_EnableIRQ9IRQn_Type) for __NVIC_EnableIRQ(IRQn_Type)
    lib.o(i._ZN8cHwADC_0C1EP8cHwTimer) refers to lib.o(.constdata__ZTV8cHwADC_0) for vtable for cHwADC_0
    lib.o(i._ZN8cHwADC_0C1EP8cHwTimer) refers to lib.o(.data) for .data
    lib.o(i._ZN8cHwDAC_0C1Ev) refers to lib.o(i._ZN6cHwDACC2Eh) for cHwDAC::cHwDAC__sub_object(unsigned char)
    lib.o(i._ZN8cHwDAC_0C1Ev) refers to lib.o(.constdata__ZTV8cHwDAC_0) for vtable for cHwDAC_0
    lib.o(i._ZN8cHwRTC_0C1ENS_17RTC_ClockConfig_tE) refers to lib.o(i._ZN6cHwRTCC2Ev) for cHwRTC::cHwRTC__sub_object()
    lib.o(i._ZN8cHwRTC_0C1ENS_17RTC_ClockConfig_tE) refers to lib.o(.constdata__ZTV8cHwRTC_0) for vtable for cHwRTC_0
    lib.o(i._ZN8cHwTimer3addEPN5cList4ItemE) refers to lib.o(i._ZN5cList3addEPNS_4ItemE) for cList::add(cList::Item*)
    lib.o(i._ZN8cHwTouchC2Ett) refers to lib.o(.constdata__ZTV8cHwTouch) for vtable for cHwTouch
    lib.o(i._ZN8cHwUSB_010EndpointIN5writeEPht) refers to lib.o(t._Z3MINItET_S0_S0_) for T1 MIN<unsigned short>(T1, T1)
    lib.o(i._ZN8cHwUSB_010EndpointIN8transmitEb) refers to lib.o(i._ZN8cHwUSB_010EndpointIN11transmitZLPEv) for cHwUSB_0::EndpointIN::transmitZLP()
    lib.o(i._ZN8cHwUSB_010EndpointINC1Ev) refers to lib.o(i._ZN8cHwUSB_06BufferC1Ev) for cHwUSB_0::Buffer::Buffer()
    lib.o(i._ZN8cHwUSB_010clrStallEPEh) refers to lib.o(i._ZN8cHwUSB_010EndpointIN8clrStallEv) for cHwUSB_0::EndpointIN::clrStall()
    lib.o(i._ZN8cHwUSB_010clrStallEPEh) refers to lib.o(i._ZN8cHwUSB_011EndpointOUT8clrStallEv) for cHwUSB_0::EndpointOUT::clrStall()
    lib.o(i._ZN8cHwUSB_010setAddressEh) refers to lib.o(i._ZN8cHwUSB_010EndpointIN11transmitZLPEv) for cHwUSB_0::EndpointIN::transmitZLP()
    lib.o(i._ZN8cHwUSB_010setStallEPEh) refers to lib.o(i._ZN8cHwUSB_010EndpointIN8setStallEv) for cHwUSB_0::EndpointIN::setStall()
    lib.o(i._ZN8cHwUSB_010setStallEPEh) refers to lib.o(i._ZN8cHwUSB_011EndpointOUT8setStallEv) for cHwUSB_0::EndpointOUT::setStall()
    lib.o(i._ZN8cHwUSB_011EndpointOUT4readEPht) refers to lib.o(t._Z3MINItET_S0_S0_) for T1 MIN<unsigned short>(T1, T1)
    lib.o(i._ZN8cHwUSB_011EndpointOUT6configEth) refers to lib.o(i._ZN8cHwUSB_011EndpointOUT7receiveEv) for cHwUSB_0::EndpointOUT::receive()
    lib.o(i._ZN8cHwUSB_011EndpointOUT7receiveEv) refers to lib.o(i._ZN8cHwUSB_011EndpointOUT10receiveZLPEv) for cHwUSB_0::EndpointOUT::receiveZLP()
    lib.o(i._ZN8cHwUSB_011EndpointOUTC1Ev) refers to lib.o(i._ZN8cHwUSB_06BufferC1Ev) for cHwUSB_0::Buffer::Buffer()
    lib.o(i._ZN8cHwUSB_05resetEv) refers to lib.o(i._ZN8cHwUSB_010EndpointIN5flushEv) for cHwUSB_0::EndpointIN::flush()
    lib.o(i._ZN8cHwUSB_05resetEv) refers to lib.o(i._ZN8cHwUSB_010EndpointIN5resetEv) for cHwUSB_0::EndpointIN::reset()
    lib.o(i._ZN8cHwUSB_05resetEv) refers to lib.o(i._ZN8cHwUSB_011EndpointOUT5resetEv) for cHwUSB_0::EndpointOUT::reset()
    lib.o(i._ZN8cHwUSB_05startEv) refers to lib.o(i._ZN12cHwPinConfig3setENS_8FunctionEj) for cHwPinConfig::set(cHwPinConfig::Function, unsigned)
    lib.o(i._ZN8cHwUSB_05startEv) refers to lib.o(i._Z16__NVIC_EnableIRQ9IRQn_Type) for __NVIC_EnableIRQ(IRQn_Type)
    lib.o(i._ZN8cHwUSB_05startEv) refers to lib.o(i._ZN8cHwUSB_09CoreResetEv) for cHwUSB_0::CoreReset()
    lib.o(i._ZN8cHwUSB_05startEv) refers to lib.o(i._ZN8cHwUSB_010EndpointIN5flushEv) for cHwUSB_0::EndpointIN::flush()
    lib.o(i._ZN8cHwUSB_05startEv) refers to lib.o(i._ZN8cHwUSB_011EndpointOUT5flushEv) for cHwUSB_0::EndpointOUT::flush()
    lib.o(i._ZN8cHwUSB_05startEv) refers to lib.o(i._ZN8cHwUSB_010EndpointIN5startEv) for cHwUSB_0::EndpointIN::start()
    lib.o(i._ZN8cHwUSB_05startEv) refers to lib.o(i._ZN8cHwUSB_011EndpointOUT5startEv) for cHwUSB_0::EndpointOUT::start()
    lib.o(i._ZN8cHwUSB_06readEPEhPht) refers to lib.o(i._ZN8cHwUSB_011EndpointOUT4readEPht) for cHwUSB_0::EndpointOUT::read(unsigned char*, unsigned short)
    lib.o(i._ZN8cHwUSB_07writeEPEhPht) refers to lib.o(i._ZN8cHwUSB_010EndpointIN5writeEPht) for cHwUSB_0::EndpointIN::write(unsigned char*, unsigned short)
    lib.o(i._ZN8cHwUSB_08configEPEhth) refers to lib.o(i._ZN8cHwUSB_010EndpointIN6configEth) for cHwUSB_0::EndpointIN::config(unsigned short, unsigned char)
    lib.o(i._ZN8cHwUSB_08configEPEhth) refers to lib.o(i._ZN8cHwUSB_011EndpointOUT6configEth) for cHwUSB_0::EndpointOUT::config(unsigned short, unsigned char)
    lib.o(i._ZN8cHwUSB_08configEPEhth) refers to lib.o(i._ZN8cHwUSB_010EndpointIN11transmitZLPEv) for cHwUSB_0::EndpointIN::transmitZLP()
    lib.o(i._ZN8cHwUSB_0C1ER10cHwUSBdesc) refers to lib.o(i._ZN6cHwUSBC2ER10cHwUSBdesc) for cHwUSB::cHwUSB__sub_object(cHwUSBdesc&)
    lib.o(i._ZN8cHwUSB_0C1ER10cHwUSBdesc) refers to aeabi_vec_ctor_nocookie_nodtor.o(i.__aeabi_vec_ctor_nocookie_nodtor) for __aeabi_vec_ctor_nocookie_nodtor
    lib.o(i._ZN8cHwUSB_0C1ER10cHwUSBdesc) refers to lib.o(i._ZN8cHwUSB_010EndpointIN4initEh) for cHwUSB_0::EndpointIN::init(unsigned char)
    lib.o(i._ZN8cHwUSB_0C1ER10cHwUSBdesc) refers to lib.o(i._ZN8cHwUSB_011EndpointOUT4initEh) for cHwUSB_0::EndpointOUT::init(unsigned char)
    lib.o(i._ZN8cHwUSB_0C1ER10cHwUSBdesc) refers to lib.o(.constdata__ZTV8cHwUSB_0) for vtable for cHwUSB_0
    lib.o(i._ZN8cHwUSB_0C1ER10cHwUSBdesc) refers to lib.o(i._ZN8cHwUSB_010EndpointINC1Ev) for cHwUSB_0::EndpointIN::EndpointIN()
    lib.o(i._ZN8cHwUSB_0C1ER10cHwUSBdesc) refers to lib.o(i._ZN8cHwUSB_011EndpointOUTC1Ev) for cHwUSB_0::EndpointOUT::EndpointOUT()
    lib.o(i._ZN8cHwUSB_0C1ER10cHwUSBdesc) refers to lib.o(.data) for .data
    lib.o(i._ZN8cNetDHCP4sendEh) refers to lib.o(i._ZN7cNetUDP6Socket10getDataPtrEv) for cNetUDP::Socket::getDataPtr()
    lib.o(i._ZN8cNetDHCP4sendEh) refers to rt_memclr.o(.text) for __aeabi_memclr
    lib.o(i._ZN8cNetDHCP4sendEh) refers to lib.o(i._Z4htonj) for hton(unsigned)
    lib.o(i._ZN8cNetDHCP4sendEh) refers to lib.o(t._ZN8cNetTYPEItEaSEt) for cNetTYPE<unsigned short>::operator =(unsigned short)
    lib.o(i._ZN8cNetDHCP4sendEh) refers to rt_memcpy_v6.o(.text) for __aeabi_memcpy
    lib.o(i._ZN8cNetDHCP4sendEh) refers to lib.o(i._ZN7cNetUDP6Socket13setDataLengthEt) for cNetUDP::Socket::setDataLength(unsigned short)
    lib.o(i._ZN8cNetDHCP4sendEh) refers to lib.o(i._ZN13cNetTransport6Socket4fillEc) for cNetTransport::Socket::fill(char)
    lib.o(i._ZN8cNetDHCP4sendEh) refers to strlen.o(.text) for strlen
    lib.o(i._ZN8cNetDHCP4sendEh) refers to lib.o(i._ZN13cNetTransport6Socket4fillEPKc) for cNetTransport::Socket::fill(const char*)
    lib.o(i._ZN8cNetDHCP4sendEh) refers to lib.o(i._ZN7cNetUDP6Socket4sendEv) for cNetUDP::Socket::send()
    lib.o(i._ZN8cNetDHCP9OnReceiveEv) refers to lib.o(i._ZN7cNetUDP6Socket10getDataPtrEv) for cNetUDP::Socket::getDataPtr()
    lib.o(i._ZN8cNetDHCP9OnReceiveEv) refers to memcmp.o(.text) for memcmp
    lib.o(i._ZN8cNetDHCP9OnReceiveEv) refers to lib.o(i._ZN8cNetDHCP13parse_optionsEPhi) for cNetDHCP::parse_options(unsigned char*, int)
    lib.o(i._ZN8cNetDHCP9OnReceiveEv) refers to lib.o(t._ZNK8cNetAddrILh4EEeqERKS0_) for cNetAddr<(unsigned char)4>::operator ==(const cNetAddr<(unsigned char)4>&) const
    lib.o(i._ZN8cNetDHCP9OnReceiveEv) refers to lib.o(i._ZN7cNetUDP6Socket4openE8cNetAddrILh4EEt) for cNetUDP::Socket::open(cNetAddr<(unsigned char)4>, unsigned short)
    lib.o(i._ZN8cNetDHCP9OnReceiveEv) refers to lib.o(i._ZN8cNetDHCP4sendEh) for cNetDHCP::send(unsigned char)
    lib.o(i._ZN8cNetDHCP9OnReceiveEv) refers to lib.o(.constdata) for .constdata
    lib.o(i._ZN8cNetDHCP9OnTimeoutEv) refers to lib.o(t._ZNK8cNetAddrILh4EEeqERKS0_) for cNetAddr<(unsigned char)4>::operator ==(const cNetAddr<(unsigned char)4>&) const
    lib.o(i._ZN8cNetDHCP9OnTimeoutEv) refers to lib.o(i._ZN7cNetUDP6Socket4openE8cNetAddrILh4EEt) for cNetUDP::Socket::open(cNetAddr<(unsigned char)4>, unsigned short)
    lib.o(i._ZN8cNetDHCP9OnTimeoutEv) refers to lib.o(i._ZN8cNetDHCP4sendEh) for cNetDHCP::send(unsigned char)
    lib.o(i._ZN8cNetDHCP9OnTimeoutEv) refers to lib.o(.constdata) for .constdata
    lib.o(i._ZN8cNetDHCPC1ER7cNetUDPPKc) refers to lib.o(i._ZN5cList4ItemC1EPS_) for cList::Item::Item(cList*)
    lib.o(i._ZN8cNetDHCPC1ER7cNetUDPPKc) refers to lib.o(i._ZN7cNetUDP6SocketC1ERS_R15cNetApplication8cNetAddrILh4EEtt) for cNetUDP::Socket::Socket(cNetUDP&, cNetApplication&, cNetAddr<(unsigned char)4>, unsigned short, unsigned short)
    lib.o(i._ZN8cNetDHCPC1ER7cNetUDPPKc) refers to lib.o(.constdata__ZTV8cNetDHCP) for vtable for cNetDHCP
    lib.o(i._ZN8cNetDHCPC1ER7cNetUDPPKc) refers to lib.o(.constdata) for .constdata
    lib.o(i._ZN8cNetICMP7processEv) refers to lib.o(t._ZN8cNetTYPEItEcvtEv) for cNetTYPE<unsigned short>::operator unsigned short()
    lib.o(i._ZN8cNetICMP7processEv) refers to lib.o(i._ZN6cNetIP6createE8cNetAddrILh6EES0_ILh4EEtt) for cNetIP::create(cNetAddr<(unsigned char)6>, cNetAddr<(unsigned char)4>, unsigned short, unsigned short)
    lib.o(i._ZN8cNetICMP7processEv) refers to lib.o(t._ZN8cNetTYPEItEaSEt) for cNetTYPE<unsigned short>::operator =(unsigned short)
    lib.o(i._ZN8cNetICMP7processEv) refers to lib.o(i._Z8ChecksumPhtj) for Checksum(unsigned char*, unsigned short, unsigned)
    lib.o(i._ZN9cHwMemoryC2Ejh) refers to lib.o(.constdata__ZTV9cHwMemory) for vtable for cHwMemory
    lib.o(i._ZN9cHwPort_N10setPinModeEhN7cHwPort4ModeE) refers to lib.o(i._ZN7cSystem16disableInterruptEv) for cSystem::disableInterrupt()
    lib.o(i._ZN9cHwPort_N10setPinModeEhN7cHwPort4ModeE) refers to lib.o(i._ZN7cSystem15enableInterruptEv) for cSystem::enableInterrupt()
    lib.o(i._ZN9cHwPort_NC1ENS_6PortIdE) refers to lib.o(.constdata__ZTV9cHwPort_N) for vtable for cHwPort_N
    lib.o(i._ZN9cHwUART_NC1ENS_8USART_IdEjhh) refers to lib.o(i._ZN7cHwUARTC2Ehh) for cHwUART::cHwUART__sub_object(unsigned char, unsigned char)
    lib.o(i._ZN9cHwUART_NC1ENS_8USART_IdEjhh) refers to lib.o(i._ZN12cHwPinConfig3setENS_8FunctionEj) for cHwPinConfig::set(cHwPinConfig::Function, unsigned)
    lib.o(i._ZN9cHwUART_NC1ENS_8USART_IdEjhh) refers to lib.o(i._Z16__NVIC_EnableIRQ9IRQn_Type) for __NVIC_EnableIRQ(IRQn_Type)
    lib.o(i._ZN9cHwUART_NC1ENS_8USART_IdEjhh) refers to lib.o(.constdata__ZTV9cHwUART_N) for vtable for cHwUART_N
    lib.o(i._ZN9cHwUART_NC1ENS_8USART_IdEjhh) refers to lib.o(.data) for .data
    lib.o(i._ZThn16_N20cDevAnalogOutPWMemul6updateEv) refers to lib.o(i._ZN20cDevAnalogOutPWMemul6updateEv) for cDevAnalogOutPWMemul::update()
    lib.o(i.__cxa_pure_virtual) refers to abort.o(.text) for abort
    lib.o(.ARM.exidx) refers to lib.o(i.SystemInit) for i.SystemInit
    lib.o(.ARM.exidx) refers to lib.o(i.SysTick_Handler) for i.SysTick_Handler
    lib.o(.ARM.exidx) refers to lib.o(i.PendSV_Handler) for i.PendSV_Handler
    lib.o(.ARM.exidx) refers to lib.o(i.ADC_IRQHandler) for i.ADC_IRQHandler
    lib.o(.ARM.exidx) refers to lib.o(i._ZN10cHwTimer_N5isr_NEv) for i._ZN10cHwTimer_N5isr_NEv
    lib.o(.ARM.exidx) refers to lib.o(i.TIM1_UP_TIM10_IRQHandler) for i.TIM1_UP_TIM10_IRQHandler
    lib.o(.ARM.exidx) refers to lib.o(i.TIM2_IRQHandler) for i.TIM2_IRQHandler
    lib.o(.ARM.exidx) refers to lib.o(i.TIM3_IRQHandler) for i.TIM3_IRQHandler
    lib.o(.ARM.exidx) refers to lib.o(i.TIM4_IRQHandler) for i.TIM4_IRQHandler
    lib.o(.ARM.exidx) refers to lib.o(i.TIM5_IRQHandler) for i.TIM5_IRQHandler
    lib.o(.ARM.exidx) refers to lib.o(i.TIM7_IRQHandler) for i.TIM7_IRQHandler
    lib.o(.ARM.exidx) refers to lib.o(i.TIM8_CC_IRQHandler) for i.TIM8_CC_IRQHandler
    lib.o(.ARM.exidx) refers to lib.o(i._ZN9cHwUART_N3isrEv) for i._ZN9cHwUART_N3isrEv
    lib.o(.ARM.exidx) refers to lib.o(i.USART1_IRQHandler) for i.USART1_IRQHandler
    lib.o(.ARM.exidx) refers to lib.o(i.USART2_IRQHandler) for i.USART2_IRQHandler
    lib.o(.ARM.exidx) refers to lib.o(i.USART3_IRQHandler) for i.USART3_IRQHandler
    lib.o(.ARM.exidx) refers to lib.o(i.UART4_IRQHandler) for i.UART4_IRQHandler
    lib.o(.ARM.exidx) refers to lib.o(i.UART5_IRQHandler) for i.UART5_IRQHandler
    lib.o(.ARM.exidx) refers to lib.o(i.USART6_IRQHandler) for i.USART6_IRQHandler
    lib.o(.ARM.exidx) refers to lib.o(i._ZN7cSystem15enableInterruptEv) for i._ZN7cSystem15enableInterruptEv
    lib.o(.ARM.exidx) refers to lib.o(i._ZN8cHwUSB_018isInterruptPendingEj) for i._ZN8cHwUSB_018isInterruptPendingEj
    lib.o(.ARM.exidx) refers to lib.o(i._ZN8cHwUSB_012clrInterruptEj) for i._ZN8cHwUSB_012clrInterruptEj
    lib.o(.ARM.exidx) refers to lib.o(i._ZN8cHwUSB_011EndpointOUT12readFromFifoEt) for i._ZN8cHwUSB_011EndpointOUT12readFromFifoEt
    lib.o(.ARM.exidx) refers to lib.o(i._ZN8cHwUSB_010EndpointIN6configEth) for i._ZN8cHwUSB_010EndpointIN6configEth
    lib.o(.ARM.exidx) refers to lib.o(i._ZN8cHwUSB_011EndpointOUT10receiveZLPEv) for i._ZN8cHwUSB_011EndpointOUT10receiveZLPEv
    lib.o(.ARM.exidx) refers to lib.o(i._ZN8cHwUSB_011EndpointOUT7receiveEv) for i._ZN8cHwUSB_011EndpointOUT7receiveEv
    lib.o(.ARM.exidx) refers to lib.o(i._ZN8cHwUSB_011EndpointOUT6configEth) for i._ZN8cHwUSB_011EndpointOUT6configEth
    lib.o(.ARM.exidx) refers to lib.o(i._ZN8cHwUSB_010EndpointIN12clrInterruptEj) for i._ZN8cHwUSB_010EndpointIN12clrInterruptEj
    lib.o(.ARM.exidx) refers to lib.o(i._ZN8cHwUSB_010EndpointIN11writeToFifoEv) for i._ZN8cHwUSB_010EndpointIN11writeToFifoEv
    lib.o(.ARM.exidx) refers to lib.o(i._ZN8cHwUSB_010EndpointIN11transmitZLPEv) for i._ZN8cHwUSB_010EndpointIN11transmitZLPEv
    lib.o(.ARM.exidx) refers to lib.o(i._ZN8cHwUSB_010EndpointIN8transmitEb) for i._ZN8cHwUSB_010EndpointIN8transmitEb
    lib.o(.ARM.exidx) refers to lib.o(i._ZN8cHwUSB_010EndpointIN12getInterruptEv) for i._ZN8cHwUSB_010EndpointIN12getInterruptEv
    lib.o(.ARM.exidx) refers to lib.o(i._ZN8cHwUSB_014getInInterruptEv) for i._ZN8cHwUSB_014getInInterruptEv
    lib.o(.ARM.exidx) refers to lib.o(i._ZN8cHwUSB_011EndpointOUT12clrInterruptEj) for i._ZN8cHwUSB_011EndpointOUT12clrInterruptEj
    lib.o(.ARM.exidx) refers to lib.o(i._ZN8cHwUSB_011EndpointOUT12getInterruptEv) for i._ZN8cHwUSB_011EndpointOUT12getInterruptEv
    lib.o(.ARM.exidx) refers to lib.o(i._ZN8cHwUSB_015getOutInterruptEv) for i._ZN8cHwUSB_015getOutInterruptEv
    lib.o(.ARM.exidx) refers to lib.o(i._ZN7cSystem16disableInterruptEv) for i._ZN7cSystem16disableInterruptEv
    lib.o(.ARM.exidx) refers to lib.o(i.OTG_FS_IRQHandler) for i.OTG_FS_IRQHandler
    lib.o(.ARM.exidx) refers to lib.o(i._Z4htont) for i._Z4htont
    lib.o(.ARM.exidx) refers to lib.o(i._Z4htonj) for i._Z4htonj
    lib.o(.ARM.exidx) refers to lib.o(i._Z4ntoht) for i._Z4ntoht
    lib.o(.ARM.exidx) refers to lib.o(i._Z4ntohj) for i._Z4ntohj
    lib.o(.ARM.exidx) refers to lib.o(i._Z8ChecksumPhtj) for i._Z8ChecksumPhtj
    lib.o(.ARM.exidx) refers to lib.o(i.__cxa_pure_virtual) for i.__cxa_pure_virtual
    lib.o(.ARM.exidx) refers to lib.o(i._ZN7cSystem15disableWatchdogEv) for i._ZN7cSystem15disableWatchdogEv
    lib.o(.ARM.exidx) refers to lib.o(i._ZN7cSystemC1Eh) for i._ZN7cSystemC1Eh
    lib.o(.ARM.exidx) refers to lib.o(i._ZN7cSystem5startEv) for i._ZN7cSystem5startEv
    lib.o(.ARM.exidx) refers to lib.o(i._ZN7cSystem8enterISREv) for i._ZN7cSystem8enterISREv
    lib.o(.ARM.exidx) refers to lib.o(i._ZN7cSystem8leaveISREv) for i._ZN7cSystem8leaveISREv
    lib.o(.ARM.exidx) refers to lib.o(i._ZN7cSystem14enableWatchdogENS_4MODEE) for i._ZN7cSystem14enableWatchdogENS_4MODEE
    lib.o(.ARM.exidx) refers to lib.o(i._ZN7cSystem12feedWatchdogEv) for i._ZN7cSystem12feedWatchdogEv
    lib.o(.ARM.exidx) refers to lib.o(i._ZN7cSystem5resetEv) for i._ZN7cSystem5resetEv
    lib.o(.ARM.exidx) refers to lib.o(i._ZN7cSystem13delayMicroSecEt) for i._ZN7cSystem13delayMicroSecEt
    lib.o(.ARM.exidx) refers to lib.o(i._ZN7cSystem13delayMilliSecEt) for i._ZN7cSystem13delayMilliSecEt
    lib.o(.ARM.exidx) refers to lib.o(i._ZN12cHwPinConfig3setEP12GPIO_TypeDefhjh) for i._ZN12cHwPinConfig3setEP12GPIO_TypeDefhjh
    lib.o(.ARM.exidx) refers to lib.o(i._ZN12cHwPinConfig3setENS_8FunctionEj) for i._ZN12cHwPinConfig3setENS_8FunctionEj
    lib.o(.ARM.exidx) refers to lib.o(i._ZN11cHwRTOS_MCUC1Ev) for i._ZN11cHwRTOS_MCUC1Ev
    lib.o(.ARM.exidx) refers to lib.o(i._ZN5cListC1Ev) for i._ZN5cListC1Ev
    lib.o(.ARM.exidx) refers to lib.o(i._ZN5cList3addEPNS_4ItemE) for i._ZN5cList3addEPNS_4ItemE
    lib.o(.ARM.exidx) refers to lib.o(i._ZN5cList9updateAllEv) for i._ZN5cList9updateAllEv
    lib.o(.ARM.exidx) refers to lib.o(i._ZN5cList8getFirstEv) for i._ZN5cList8getFirstEv
    lib.o(.ARM.exidx) refers to lib.o(i._ZN5cListixEt) for i._ZN5cListixEt
    lib.o(.ARM.exidx) refers to lib.o(i._ZN5cList4ItemC1EPS_) for i._ZN5cList4ItemC1EPS_
    lib.o(.ARM.exidx) refers to lib.o(i._ZN5cList4Item7getNextEv) for i._ZN5cList4Item7getNextEv
    lib.o(.ARM.exidx) refers to lib.o(i._ZN5cList4Item7getPrevERS_) for i._ZN5cList4Item7getPrevERS_
    lib.o(.ARM.exidx) refers to lib.o(i._ZN8cHwTimer12getCycleTimeEv) for i._ZN8cHwTimer12getCycleTimeEv
    lib.o(.ARM.exidx) refers to lib.o(i._ZN8cHwTimer3addEPN5cList4ItemE) for i._ZN8cHwTimer3addEPN5cList4ItemE
    lib.o(.ARM.exidx) refers to lib.o(i._ZN6cHwADCC2EhP8cHwTimer) for i._ZN6cHwADCC2EhP8cHwTimer
    lib.o(.ARM.exidx) refers to lib.o(i._ZN6cHwADC6enableEhh) for i._ZN6cHwADC6enableEhh
    lib.o(.ARM.exidx) refers to lib.o(i._ZN8cHwADC_0C1EP8cHwTimer) for i._ZN8cHwADC_0C1EP8cHwTimer
    lib.o(.ARM.exidx) refers to lib.o(i._ZN8cHwADC_08configChEhh) for i._ZN8cHwADC_08configChEhh
    lib.o(.ARM.exidx) refers to lib.o(i._ZN6cHwDACC2Eh) for i._ZN6cHwDACC2Eh
    lib.o(.ARM.exidx) refers to lib.o(i._ZN8cHwDAC_0C1Ev) for i._ZN8cHwDAC_0C1Ev
    lib.o(.ARM.exidx) refers to lib.o(i._ZN11cHwEthernetC2ERK8cNetAddrILh6EE) for i._ZN11cHwEthernetC2ERK8cNetAddrILh6EE
    lib.o(.ARM.exidx) refers to lib.o(i._ZN6cNetIP6updateEv) for i._ZN6cNetIP6updateEv
    lib.o(.ARM.exidx) refers to lib.o(i._ZN6cNetIP6createE8cNetAddrILh6EES0_ILh4EEtt) for i._ZN6cNetIP6createE8cNetAddrILh6EES0_ILh4EEtt
    lib.o(.ARM.exidx) refers to lib.o(i._ZN8cNetICMP7processEv) for i._ZN8cNetICMP7processEv
    lib.o(.ARM.exidx) refers to lib.o(i._ZN6cNetIP7processEv) for i._ZN6cNetIP7processEv
    lib.o(.ARM.exidx) refers to lib.o(i._ZN7cNetARP7processEv) for i._ZN7cNetARP7processEv
    lib.o(.ARM.exidx) refers to lib.o(i._ZN11cHwEthernet6updateEv) for i._ZN11cHwEthernet6updateEv
    lib.o(.ARM.exidx) refers to lib.o(i._ZN11cHwEthernet6setARPEP7cNetARP) for i._ZN11cHwEthernet6setARPEP7cNetARP
    lib.o(.ARM.exidx) refers to lib.o(i._ZN11cHwEthernet5setIPEP6cNetIP) for i._ZN11cHwEthernet5setIPEP6cNetIP
    lib.o(.ARM.exidx) refers to lib.o(i._ZN11cHwEthernet5getIPEv) for i._ZN11cHwEthernet5getIPEv
    lib.o(.ARM.exidx) refers to lib.o(i._ZN11cHwEthernet7isNewIPEv) for i._ZN11cHwEthernet7isNewIPEv
    lib.o(.ARM.exidx) refers to lib.o(i._ZN7cHwPort3PinC1ERS_h) for i._ZN7cHwPort3PinC1ERS_h
    lib.o(.ARM.exidx) refers to lib.o(i._ZN7cHwPort3PinC1ERS_hNS_4ModeE) for i._ZN7cHwPort3PinC1ERS_hNS_4ModeE
    lib.o(.ARM.exidx) refers to lib.o(i._ZN15cHwEthernet_MCU22ETH_DMARxDescChainInitEP18ETH_DMADESCTypeDefPhj) for i._ZN15cHwEthernet_MCU22ETH_DMARxDescChainInitEP18ETH_DMADESCTypeDefPhj
    lib.o(.ARM.exidx) refers to lib.o(i._ZN15cHwEthernet_MCU22ETH_DMATxDescChainInitEP18ETH_DMADESCTypeDefPhj) for i._ZN15cHwEthernet_MCU22ETH_DMATxDescChainInitEP18ETH_DMADESCTypeDefPhj
    lib.o(.ARM.exidx) refers to lib.o(i._ZN15cHwEthernet_MCU14low_level_initEv) for i._ZN15cHwEthernet_MCU14low_level_initEv
    lib.o(.ARM.exidx) refers to lib.o(i._ZN15cHwEthernet_MCUC1ERN7cHwPort3PinERK8cNetAddrILh6EE) for i._ZN15cHwEthernet_MCUC1ERN7cHwPort3PinERK8cNetAddrILh6EE
    lib.o(.ARM.exidx) refers to lib.o(i._ZN15cHwEthernet_MCU6createE8cNetAddrILh6EEt) for i._ZN15cHwEthernet_MCU6createE8cNetAddrILh6EEt
    lib.o(.ARM.exidx) refers to lib.o(i._ZN15cHwEthernet_MCU32ETH_Prepare_Transmit_DescriptorsEt) for i._ZN15cHwEthernet_MCU32ETH_Prepare_Transmit_DescriptorsEt
    lib.o(.ARM.exidx) refers to lib.o(i._ZN15cHwEthernet_MCU16low_level_outputEPhj) for i._ZN15cHwEthernet_MCU16low_level_outputEPhj
    lib.o(.ARM.exidx) refers to lib.o(i._ZN15cHwEthernet_MCU10PacketSendEPht) for i._ZN15cHwEthernet_MCU10PacketSendEPht
    lib.o(.ARM.exidx) refers to lib.o(i._ZN15cHwEthernet_MCU22ETH_Get_Received_FrameEv) for i._ZN15cHwEthernet_MCU22ETH_Get_Received_FrameEv
    lib.o(.ARM.exidx) refers to lib.o(i._ZN15cHwEthernet_MCU15low_level_inputEPhj) for i._ZN15cHwEthernet_MCU15low_level_inputEPhj
    lib.o(.ARM.exidx) refers to lib.o(i._ZN15cHwEthernet_MCU22ETH_CheckFrameReceivedEv) for i._ZN15cHwEthernet_MCU22ETH_CheckFrameReceivedEv
    lib.o(.ARM.exidx) refers to lib.o(i._ZN15cHwEthernet_MCU13PacketReceiveEv) for i._ZN15cHwEthernet_MCU13PacketReceiveEv
    lib.o(.ARM.exidx) refers to lib.o(i._ZN15cHwEthernet_MCU7getTypeEv) for i._ZN15cHwEthernet_MCU7getTypeEv
    lib.o(.ARM.exidx) refers to lib.o(i._ZN12cHwI2CmasterC2Eh) for i._ZN12cHwI2CmasterC2Eh
    lib.o(.ARM.exidx) refers to lib.o(i._ZN12cHwI2Cmaster5writeEhPhhS0_h) for i._ZN12cHwI2Cmaster5writeEhPhhS0_h
    lib.o(.ARM.exidx) refers to lib.o(i._ZN12cHwI2Cmaster4readEhPhhS0_h) for i._ZN12cHwI2Cmaster4readEhPhhS0_h
    lib.o(.ARM.exidx) refers to lib.o(i._ZN12cHwI2Cmaster6Device4readEv) for i._ZN12cHwI2Cmaster6Device4readEv
    lib.o(.ARM.exidx) refers to lib.o(i._ZN12cHwI2Cmaster6Device4readEh) for i._ZN12cHwI2Cmaster6Device4readEh
    lib.o(.ARM.exidx) refers to lib.o(i._ZN12cHwI2Cmaster6Device4readEt) for i._ZN12cHwI2Cmaster6Device4readEt
    lib.o(.ARM.exidx) refers to lib.o(i._ZN12cHwI2Cmaster6Device4readEPhh) for i._ZN12cHwI2Cmaster6Device4readEPhh
    lib.o(.ARM.exidx) refers to lib.o(i._ZN12cHwI2Cmaster6Device4readEhPhh) for i._ZN12cHwI2Cmaster6Device4readEhPhh
    lib.o(.ARM.exidx) refers to lib.o(i._ZN12cHwI2Cmaster6Device4readEtPhh) for i._ZN12cHwI2Cmaster6Device4readEtPhh
    lib.o(.ARM.exidx) refers to lib.o(i._ZN12cHwI2Cmaster6Device5writeEh) for i._ZN12cHwI2Cmaster6Device5writeEh
    lib.o(.ARM.exidx) refers to lib.o(i._ZN12cHwI2Cmaster6Device5writeEhh) for i._ZN12cHwI2Cmaster6Device5writeEhh
    lib.o(.ARM.exidx) refers to lib.o(i._ZN12cHwI2Cmaster6Device5writeEth) for i._ZN12cHwI2Cmaster6Device5writeEth
    lib.o(.ARM.exidx) refers to lib.o(i._ZN12cHwI2Cmaster6Device5writeEPhh) for i._ZN12cHwI2Cmaster6Device5writeEPhh
    lib.o(.ARM.exidx) refers to lib.o(i._ZN12cHwI2Cmaster6Device5writeEhPhh) for i._ZN12cHwI2Cmaster6Device5writeEhPhh
    lib.o(.ARM.exidx) refers to lib.o(i._ZN12cHwI2Cmaster6Device5writeEtPhh) for i._ZN12cHwI2Cmaster6Device5writeEtPhh
    lib.o(.ARM.exidx) refers to lib.o(i._ZN12cHwI2Cmaster6Device7isErrorEv) for i._ZN12cHwI2Cmaster6Device7isErrorEv
    lib.o(.ARM.exidx) refers to lib.o(i._ZN17cHwI2Cmaster_EmulC1ERN7cHwPort3PinES2_N12cHwI2Cmaster4MODEE) for i._ZN17cHwI2Cmaster_EmulC1ERN7cHwPort3PinES2_N12cHwI2Cmaster4MODEE
    lib.o(.ARM.exidx) refers to lib.o(i._ZN17cHwI2Cmaster_Emul5startEv) for i._ZN17cHwI2Cmaster_Emul5startEv
    lib.o(.ARM.exidx) refers to lib.o(i._ZN17cHwI2Cmaster_Emul4stopEv) for i._ZN17cHwI2Cmaster_Emul4stopEv
    lib.o(.ARM.exidx) refers to lib.o(i._ZN17cHwI2Cmaster_Emul8sendAddrEh) for i._ZN17cHwI2Cmaster_Emul8sendAddrEh
    lib.o(.ARM.exidx) refers to lib.o(i._ZN17cHwI2Cmaster_Emul9writeByteEh) for i._ZN17cHwI2Cmaster_Emul9writeByteEh
    lib.o(.ARM.exidx) refers to lib.o(i._ZN17cHwI2Cmaster_Emul11readByteAckEv) for i._ZN17cHwI2Cmaster_Emul11readByteAckEv
    lib.o(.ARM.exidx) refers to lib.o(i._ZN17cHwI2Cmaster_Emul12readByteNackEv) for i._ZN17cHwI2Cmaster_Emul12readByteNackEv
    lib.o(.ARM.exidx) refers to lib.o(i._ZN17cHwI2Cmaster_Emul11waitForAcknEv) for i._ZN17cHwI2Cmaster_Emul11waitForAcknEv
    lib.o(.ARM.exidx) refers to lib.o(i._ZN17cHwI2Cmaster_Emul4waitEv) for i._ZN17cHwI2Cmaster_Emul4waitEv
    lib.o(.ARM.exidx) refers to lib.o(i._ZN14cHwI2Cmaster_NC1ENS_6I2C_IDEN12cHwI2Cmaster4MODEEh) for i._ZN14cHwI2Cmaster_NC1ENS_6I2C_IDEN12cHwI2Cmaster4MODEEh
    lib.o(.ARM.exidx) refers to lib.o(i._ZN14cHwI2Cmaster_N5writeEhPhhS0_h) for i._ZN14cHwI2Cmaster_N5writeEhPhhS0_h
    lib.o(.ARM.exidx) refers to lib.o(i._ZN14cHwI2Cmaster_N4readEhPhhS0_h) for i._ZN14cHwI2Cmaster_N4readEhPhhS0_h
    lib.o(.ARM.exidx) refers to lib.o(i._ZN9cHwMemoryC2Ejh) for i._ZN9cHwMemoryC2Ejh
    lib.o(.ARM.exidx) refers to lib.o(i._ZN15cHwMemory_FlashC1ENS_6SectorE) for i._ZN15cHwMemory_FlashC1ENS_6SectorE
    lib.o(.ARM.exidx) refers to lib.o(i._ZN15cHwMemory_Flash4lockEv) for i._ZN15cHwMemory_Flash4lockEv
    lib.o(.ARM.exidx) refers to lib.o(i._ZN15cHwMemory_Flash6unlockEv) for i._ZN15cHwMemory_Flash6unlockEv
    lib.o(.ARM.exidx) refers to lib.o(i._ZN15cHwMemory_Flash9writeByteEjh) for i._ZN15cHwMemory_Flash9writeByteEjh
    lib.o(.ARM.exidx) refers to lib.o(i._ZN15cHwMemory_Flash8readByteEj) for i._ZN15cHwMemory_Flash8readByteEj
    lib.o(.ARM.exidx) refers to lib.o(i._ZN15cHwMemory_Flash5clearEj) for i._ZN15cHwMemory_Flash5clearEj
    lib.o(.ARM.exidx) refers to lib.o(i._ZN9cHwPort_NC1ENS_6PortIdE) for i._ZN9cHwPort_NC1ENS_6PortIdE
    lib.o(.ARM.exidx) refers to lib.o(i._ZN9cHwPort_N7setModeEjN7cHwPort4ModeE) for i._ZN9cHwPort_N7setModeEjN7cHwPort4ModeE
    lib.o(.ARM.exidx) refers to lib.o(i._ZN9cHwPort_N10setPinModeEhN7cHwPort4ModeE) for i._ZN9cHwPort_N10setPinModeEhN7cHwPort4ModeE
    lib.o(.ARM.exidx) refers to lib.o(i._ZN6cHwRTCC2Ev) for i._ZN6cHwRTCC2Ev
    lib.o(.ARM.exidx) refers to lib.o(i._ZN8cHwRTC_0C1ENS_17RTC_ClockConfig_tE) for i._ZN8cHwRTC_0C1ENS_17RTC_ClockConfig_tE
    lib.o(.ARM.exidx) refers to lib.o(i._ZN8cHwRTC_03setERKN6cHwRTC10PropertiesE) for i._ZN8cHwRTC_03setERKN6cHwRTC10PropertiesE
    lib.o(.ARM.exidx) refers to lib.o(i._ZN8cHwRTC_03getERN6cHwRTC10PropertiesE) for i._ZN8cHwRTC_03getERN6cHwRTC10PropertiesE
    lib.o(.ARM.exidx) refers to lib.o(i._ZN10cHwTimer_NC1ENS_7TimerIdEj) for i._ZN10cHwTimer_NC1ENS_7TimerIdEj
    lib.o(.ARM.exidx) refers to lib.o(i._ZN10cHwTimer_N9enablePWMEhN8cHwTimer4ModeE) for i._ZN10cHwTimer_N9enablePWMEhN8cHwTimer4ModeE
    lib.o(.ARM.exidx) refers to lib.o(i._ZN10cHwTimer_N6setPWMEth) for i._ZN10cHwTimer_N6setPWMEth
    lib.o(.ARM.exidx) refers to lib.o(i._ZN7cHwUARTC2Ehh) for i._ZN7cHwUARTC2Ehh
    lib.o(.ARM.exidx) refers to lib.o(i._ZN7cHwUART3setEh) for i._ZN7cHwUART3setEh
    lib.o(.ARM.exidx) refers to lib.o(i._ZN7cHwUART3setEPKhh) for i._ZN7cHwUART3setEPKhh
    lib.o(.ARM.exidx) refers to lib.o(i._ZN7cHwUART3setEPKc) for i._ZN7cHwUART3setEPKc
    lib.o(.ARM.exidx) refers to lib.o(i._ZN7cHwUART3getEPh) for i._ZN7cHwUART3getEPh
    lib.o(.ARM.exidx) refers to lib.o(i._ZN7cHwUART3getEv) for i._ZN7cHwUART3getEv
    lib.o(.ARM.exidx) refers to lib.o(i._ZN7cHwUART12transmitByteEh) for i._ZN7cHwUART12transmitByteEh
    lib.o(.ARM.exidx) refers to lib.o(i._ZN9cHwUART_NC1ENS_8USART_IdEjhh) for i._ZN9cHwUART_NC1ENS_8USART_IdEjhh
    lib.o(.ARM.exidx) refers to lib.o(i._ZN10cHwUSBdesc19getDescriptorDeviceEv) for i._ZN10cHwUSBdesc19getDescriptorDeviceEv
    lib.o(.ARM.exidx) refers to lib.o(i._ZN10cHwUSBdesc19getDescriptorConfigEh) for i._ZN10cHwUSBdesc19getDescriptorConfigEh
    lib.o(.ARM.exidx) refers to lib.o(i._ZN10cHwUSBdesc22getDescriptorInterfaceEhh) for i._ZN10cHwUSBdesc22getDescriptorInterfaceEhh
    lib.o(.ARM.exidx) refers to lib.o(i._ZN10cHwUSBdesc21getDescriptorEndpointEhhh) for i._ZN10cHwUSBdesc21getDescriptorEndpointEhhh
    lib.o(.ARM.exidx) refers to lib.o(i._ZN10cHwUSBdesc16getDescriptorHIDEhhh) for i._ZN10cHwUSBdesc16getDescriptorHIDEhhh
    lib.o(.ARM.exidx) refers to lib.o(i._ZN10cHwUSBdesc22getDescriptorHIDreportEhhh) for i._ZN10cHwUSBdesc22getDescriptorHIDreportEhhh
    lib.o(.ARM.exidx) refers to lib.o(i._ZN10cHwUSBdesc19getDescriptorStringEh) for i._ZN10cHwUSBdesc19getDescriptorStringEh
    lib.o(.ARM.exidx) refers to lib.o(i._ZN10cHwUSBdesc17getMaxPacketSize0Ev) for i._ZN10cHwUSBdesc17getMaxPacketSize0Ev
    lib.o(.ARM.exidx) refers to lib.o(i._ZN10cHwUSBdesc21getConfigDeviceStatusEh) for i._ZN10cHwUSBdesc21getConfigDeviceStatusEh
    lib.o(.ARM.exidx) refers to lib.o(i._ZN14cHwUSBendpointC1ER6cHwUSBP12cHwUSBinterfhth) for i._ZN14cHwUSBendpointC1ER6cHwUSBP12cHwUSBinterfhth
    lib.o(.ARM.exidx) refers to lib.o(i._ZN14cHwUSBendpointC1ER6cHwUSBht) for i._ZN14cHwUSBendpointC1ER6cHwUSBht
    lib.o(.ARM.exidx) refers to lib.o(i._ZN14cHwUSBendpoint9writeDataEv) for i._ZN14cHwUSBendpoint9writeDataEv
    lib.o(.ARM.exidx) refers to lib.o(i._ZN14cHwUSBendpoint2inEv) for i._ZN14cHwUSBendpoint2inEv
    lib.o(.ARM.exidx) refers to lib.o(i._ZN14cHwUSBendpoint6inCtrlEv) for i._ZN14cHwUSBendpoint6inCtrlEv
    lib.o(.ARM.exidx) refers to lib.o(i._ZN14cHwUSBendpoint5stallEv) for i._ZN14cHwUSBendpoint5stallEv
    lib.o(.ARM.exidx) refers to lib.o(i._ZN14cHwUSBendpoint8readDataEv) for i._ZN14cHwUSBendpoint8readDataEv
    lib.o(.ARM.exidx) refers to lib.o(i._ZN14cHwUSBendpoint3outEv) for i._ZN14cHwUSBendpoint3outEv
    lib.o(.ARM.exidx) refers to lib.o(i._ZN14cHwUSBendpoint16writeAcknowledgeEv) for i._ZN14cHwUSBendpoint16writeAcknowledgeEv
    lib.o(.ARM.exidx) refers to lib.o(i._ZN14cHwUSBendpoint7outCtrlEv) for i._ZN14cHwUSBendpoint7outCtrlEv
    lib.o(.ARM.exidx) refers to lib.o(i._ZN14cHwUSBendpoint9writeDataERK12cDataPointer) for i._ZN14cHwUSBendpoint9writeDataERK12cDataPointer
    lib.o(.ARM.exidx) refers to lib.o(i._ZN14cHwUSBendpoint12writeDataLenERK12cDataPointert) for i._ZN14cHwUSBendpoint12writeDataLenERK12cDataPointert
    lib.o(.ARM.exidx) refers to lib.o(i._ZN14cHwUSBendpoint15readAcknowledgeEv) for i._ZN14cHwUSBendpoint15readAcknowledgeEv
    lib.o(.ARM.exidx) refers to lib.o(i._ZN14cHwUSBendpoint8clrStallEv) for i._ZN14cHwUSBendpoint8clrStallEv
    lib.o(.ARM.exidx) refers to lib.o(i._ZN14cHwUSBendpoint10clrFeatureEv) for i._ZN14cHwUSBendpoint10clrFeatureEv
    lib.o(.ARM.exidx) refers to lib.o(i._ZN14cHwUSBendpoint16setConfigurationEv) for i._ZN14cHwUSBendpoint16setConfigurationEv
    lib.o(.ARM.exidx) refers to lib.o(i._ZN10cHwUSBctrlC1ER6cHwUSB) for i._ZN10cHwUSBctrlC1ER6cHwUSB
    lib.o(.ARM.exidx) refers to lib.o(i._ZN10cHwUSBctrl5setupEv) for i._ZN10cHwUSBctrl5setupEv
    lib.o(.ARM.exidx) refers to lib.o(i._ZN10cHwUSBctrl3outEv) for i._ZN10cHwUSBctrl3outEv
    lib.o(.ARM.exidx) refers to lib.o(i._ZN10cHwUSBctrl2inEv) for i._ZN10cHwUSBctrl2inEv
    lib.o(.ARM.exidx) refers to lib.o(i._ZN12cHwUSBinterfC2ER6cHwUSBhh) for i._ZN12cHwUSBinterfC2ER6cHwUSBhh
    lib.o(.ARM.exidx) refers to lib.o(i._ZN6cHwUSBC2ER10cHwUSBdesc) for i._ZN6cHwUSBC2ER10cHwUSBdesc
    lib.o(.ARM.exidx) refers to lib.o(i._ZN6cHwUSB12eventHandlerEhh) for i._ZN6cHwUSB12eventHandlerEhh
    lib.o(.ARM.exidx) refers to lib.o(i._ZN8cHwUSB_011EndpointOUT4initEh) for i._ZN8cHwUSB_011EndpointOUT4initEh
    lib.o(.ARM.exidx) refers to lib.o(i._ZN8cHwUSB_010EndpointIN4initEh) for i._ZN8cHwUSB_010EndpointIN4initEh
    lib.o(.ARM.exidx) refers to lib.o(i._ZN8cHwUSB_011EndpointOUTC1Ev) for i._ZN8cHwUSB_011EndpointOUTC1Ev
    lib.o(.ARM.exidx) refers to lib.o(i._ZN8cHwUSB_010EndpointINC1Ev) for i._ZN8cHwUSB_010EndpointINC1Ev
    lib.o(.ARM.exidx) refers to lib.o(i._ZN8cHwUSB_0C1ER10cHwUSBdesc) for i._ZN8cHwUSB_0C1ER10cHwUSBdesc
    lib.o(.ARM.exidx) refers to lib.o(i._ZN8cHwUSB_011EndpointOUT5startEv) for i._ZN8cHwUSB_011EndpointOUT5startEv
    lib.o(.ARM.exidx) refers to lib.o(i._ZN8cHwUSB_010EndpointIN5startEv) for i._ZN8cHwUSB_010EndpointIN5startEv
    lib.o(.ARM.exidx) refers to lib.o(i._ZN8cHwUSB_011EndpointOUT5flushEv) for i._ZN8cHwUSB_011EndpointOUT5flushEv
    lib.o(.ARM.exidx) refers to lib.o(i._ZN8cHwUSB_010EndpointIN5flushEv) for i._ZN8cHwUSB_010EndpointIN5flushEv
    lib.o(.ARM.exidx) refers to lib.o(i._ZN8cHwUSB_09CoreResetEv) for i._ZN8cHwUSB_09CoreResetEv
    lib.o(.ARM.exidx) refers to lib.o(i._ZN8cHwUSB_05startEv) for i._ZN8cHwUSB_05startEv
    lib.o(.ARM.exidx) refers to lib.o(i._ZN8cHwUSB_011EndpointOUT5resetEv) for i._ZN8cHwUSB_011EndpointOUT5resetEv
    lib.o(.ARM.exidx) refers to lib.o(i._ZN8cHwUSB_010EndpointIN5resetEv) for i._ZN8cHwUSB_010EndpointIN5resetEv
    lib.o(.ARM.exidx) refers to lib.o(i._ZN8cHwUSB_05resetEv) for i._ZN8cHwUSB_05resetEv
    lib.o(.ARM.exidx) refers to lib.o(i._ZN8cHwUSB_09configureEh) for i._ZN8cHwUSB_09configureEh
    lib.o(.ARM.exidx) refers to lib.o(i._ZN8cHwUSB_010setAddressEh) for i._ZN8cHwUSB_010setAddressEh
    lib.o(.ARM.exidx) refers to lib.o(i._ZN8cHwUSB_08configEPEhth) for i._ZN8cHwUSB_08configEPEhth
    lib.o(.ARM.exidx) refers to lib.o(i._ZN8cHwUSB_011EndpointOUT8setStallEv) for i._ZN8cHwUSB_011EndpointOUT8setStallEv
    lib.o(.ARM.exidx) refers to lib.o(i._ZN8cHwUSB_010EndpointIN8setStallEv) for i._ZN8cHwUSB_010EndpointIN8setStallEv
    lib.o(.ARM.exidx) refers to lib.o(i._ZN8cHwUSB_010setStallEPEh) for i._ZN8cHwUSB_010setStallEPEh
    lib.o(.ARM.exidx) refers to lib.o(i._ZN8cHwUSB_011EndpointOUT8clrStallEv) for i._ZN8cHwUSB_011EndpointOUT8clrStallEv
    lib.o(.ARM.exidx) refers to lib.o(i._ZN8cHwUSB_010EndpointIN8clrStallEv) for i._ZN8cHwUSB_010EndpointIN8clrStallEv
    lib.o(.ARM.exidx) refers to lib.o(i._ZN8cHwUSB_010clrStallEPEh) for i._ZN8cHwUSB_010clrStallEPEh
    lib.o(.ARM.exidx) refers to lib.o(i._ZN8cHwUSB_011EndpointOUT4readEPht) for i._ZN8cHwUSB_011EndpointOUT4readEPht
    lib.o(.ARM.exidx) refers to lib.o(i._ZN8cHwUSB_06readEPEhPht) for i._ZN8cHwUSB_06readEPEhPht
    lib.o(.ARM.exidx) refers to lib.o(i._ZN8cHwUSB_010EndpointIN5writeEPht) for i._ZN8cHwUSB_010EndpointIN5writeEPht
    lib.o(.ARM.exidx) refers to lib.o(i._ZN8cHwUSB_07writeEPEhPht) for i._ZN8cHwUSB_07writeEPEhPht
    lib.o(.ARM.exidx) refers to lib.o(i._ZN13cNetTransportC2Ev) for i._ZN13cNetTransportC2Ev
    lib.o(.ARM.exidx) refers to lib.o(i._ZN13cNetTransport7processEv) for i._ZN13cNetTransport7processEv
    lib.o(.ARM.exidx) refers to lib.o(i._ZN13cNetTransport6updateEv) for i._ZN13cNetTransport6updateEv
    lib.o(.ARM.exidx) refers to lib.o(i._ZN13cNetTransport7timeoutEv) for i._ZN13cNetTransport7timeoutEv
    lib.o(.ARM.exidx) refers to lib.o(i._ZN13cNetTransport6SocketC2ERS_R15cNetApplication8cNetAddrILh4EEt) for i._ZN13cNetTransport6SocketC2ERS_R15cNetApplication8cNetAddrILh4EEt
    lib.o(.ARM.exidx) refers to lib.o(i._ZN13cNetTransport6Socket11getRemoteIPEv) for i._ZN13cNetTransport6Socket11getRemoteIPEv
    lib.o(.ARM.exidx) refers to lib.o(i._ZN7cNetARPC1ER11cHwEthernetR8cNetAddrILh4EE) for i._ZN7cNetARPC1ER11cHwEthernetR8cNetAddrILh4EE
    lib.o(.ARM.exidx) refers to lib.o(i._ZN7cNetARP7requestER8cNetAddrILh4EE) for i._ZN7cNetARP7requestER8cNetAddrILh4EE
    lib.o(.ARM.exidx) refers to lib.o(i._ZN7cNetARP6setTCPEP7cNetTCP) for i._ZN7cNetARP6setTCPEP7cNetTCP
    lib.o(.ARM.exidx) refers to lib.o(i._ZN7cNetARP6setUDPEP7cNetUDP) for i._ZN7cNetARP6setUDPEP7cNetUDP
    lib.o(.ARM.exidx) refers to lib.o(i._ZN6cNetIPC1ER11cHwEthernetRK8cNetAddrILh4EER8cHwTimer) for i._ZN6cNetIPC1ER11cHwEthernetRK8cNetAddrILh4EER8cHwTimer
    lib.o(.ARM.exidx) refers to lib.o(i._ZN7cNetUDPC1ER6cNetIP) for i._ZN7cNetUDPC1ER6cNetIP
    lib.o(.ARM.exidx) refers to lib.o(i._ZN7cNetUDP9handleARPE8cNetAddrILh4EES0_ILh6EE) for i._ZN7cNetUDP9handleARPE8cNetAddrILh4EES0_ILh6EE
    lib.o(.ARM.exidx) refers to lib.o(i._ZN7cNetUDP6createERNS_6SocketEt) for i._ZN7cNetUDP6createERNS_6SocketEt
    lib.o(.ARM.exidx) refers to lib.o(i._ZN7cNetUDP6SocketC1ERS_R15cNetApplication8cNetAddrILh4EEtt) for i._ZN7cNetUDP6SocketC1ERS_R15cNetApplication8cNetAddrILh4EEtt
    lib.o(.ARM.exidx) refers to lib.o(i._ZN7cNetUDP6Socket4openE8cNetAddrILh4EEt) for i._ZN7cNetUDP6Socket4openE8cNetAddrILh4EEt
    lib.o(.ARM.exidx) refers to lib.o(i._ZN7cNetUDP6Socket5closeEv) for i._ZN7cNetUDP6Socket5closeEv
    lib.o(.ARM.exidx) refers to lib.o(i._ZN7cNetUDP6Socket11isConnectedEv) for i._ZN7cNetUDP6Socket11isConnectedEv
    lib.o(.ARM.exidx) refers to lib.o(i._ZN7cNetUDP6Socket7isReadyEv) for i._ZN7cNetUDP6Socket7isReadyEv
    lib.o(.ARM.exidx) refers to lib.o(i._ZN7cNetUDP6Socket5clearEv) for i._ZN7cNetUDP6Socket5clearEv
    lib.o(.ARM.exidx) refers to lib.o(i._ZN7cNetUDP6Socket10fillBufferEc) for i._ZN7cNetUDP6Socket10fillBufferEc
    lib.o(.ARM.exidx) refers to lib.o(i._ZN7cNetUDP6Socket4sendEv) for i._ZN7cNetUDP6Socket4sendEv
    lib.o(.ARM.exidx) refers to lib.o(i._ZN7cNetUDP6Socket3getEPc) for i._ZN7cNetUDP6Socket3getEPc
    lib.o(.ARM.exidx) refers to lib.o(i._ZN7cNetUDP6Socket10getDataPtrEv) for i._ZN7cNetUDP6Socket10getDataPtrEv
    lib.o(.ARM.exidx) refers to lib.o(i._ZN7cNetUDP6Socket13setDataLengthEt) for i._ZN7cNetUDP6Socket13setDataLengthEt
    lib.o(.ARM.exidx) refers to lib.o(i._ZN7cNetUDP6Socket7processEv) for i._ZN7cNetUDP6Socket7processEv
    lib.o(.ARM.exidx) refers to lib.o(i._ZN7cNetUDP6Socket6updateEv) for i._ZN7cNetUDP6Socket6updateEv
    lib.o(.ARM.exidx) refers to lib.o(i._ZN7cNetUDP6Socket7timeoutEv) for i._ZN7cNetUDP6Socket7timeoutEv
    lib.o(.ARM.exidx) refers to lib.o(i._ZN8cNetDHCPC1ER7cNetUDPPKc) for i._ZN8cNetDHCPC1ER7cNetUDPPKc
    lib.o(.ARM.exidx) refers to lib.o(i._ZN8cNetDHCP4sendEh) for i._ZN8cNetDHCP4sendEh
    lib.o(.ARM.exidx) refers to lib.o(i._ZN8cNetDHCP13parse_optionsEPhi) for i._ZN8cNetDHCP13parse_optionsEPhi
    lib.o(.ARM.exidx) refers to lib.o(i._ZN8cNetDHCP9OnReceiveEv) for i._ZN8cNetDHCP9OnReceiveEv
    lib.o(.ARM.exidx) refers to lib.o(i._ZN8cNetDHCP7OnErrorEv) for i._ZN8cNetDHCP7OnErrorEv
    lib.o(.ARM.exidx) refers to lib.o(i._ZN8cNetDHCP9OnTimeoutEv) for i._ZN8cNetDHCP9OnTimeoutEv
    lib.o(.ARM.exidx) refers to lib.o(i._ZN8cNetICMPC1ER6cNetIP) for i._ZN8cNetICMPC1ER6cNetIP
    lib.o(.ARM.exidx) refers to lib.o(i._ZN7cNetTCPC1ER6cNetIP) for i._ZN7cNetTCPC1ER6cNetIP
    lib.o(.ARM.exidx) refers to lib.o(i._ZN7cNetTCP9handleARPE8cNetAddrILh4EES0_ILh6EE) for i._ZN7cNetTCP9handleARPE8cNetAddrILh4EES0_ILh6EE
    lib.o(.ARM.exidx) refers to lib.o(i._ZN7cNetTCP6createERNS_6SocketEt) for i._ZN7cNetTCP6createERNS_6SocketEt
    lib.o(.ARM.exidx) refers to lib.o(i._ZN7cNetTCP6SocketC1ERS_R15cNetApplication8cNetAddrILh4EEt) for i._ZN7cNetTCP6SocketC1ERS_R15cNetApplication8cNetAddrILh4EEt
    lib.o(.ARM.exidx) refers to lib.o(i._ZN7cNetTCP6Socket4openE8cNetAddrILh4EEt) for i._ZN7cNetTCP6Socket4openE8cNetAddrILh4EEt
    lib.o(.ARM.exidx) refers to lib.o(i._ZN7cNetTCP6Socket5closeEv) for i._ZN7cNetTCP6Socket5closeEv
    lib.o(.ARM.exidx) refers to lib.o(i._ZN7cNetTCP6Socket11isConnectedEv) for i._ZN7cNetTCP6Socket11isConnectedEv
    lib.o(.ARM.exidx) refers to lib.o(i._ZN7cNetTCP6Socket7isReadyEv) for i._ZN7cNetTCP6Socket7isReadyEv
    lib.o(.ARM.exidx) refers to lib.o(i._ZN7cNetTCP6Socket5clearEv) for i._ZN7cNetTCP6Socket5clearEv
    lib.o(.ARM.exidx) refers to lib.o(i._ZN7cNetTCP6Socket10fillBufferEc) for i._ZN7cNetTCP6Socket10fillBufferEc
    lib.o(.ARM.exidx) refers to lib.o(i._ZN7cNetTCP6Socket4sendEv) for i._ZN7cNetTCP6Socket4sendEv
    lib.o(.ARM.exidx) refers to lib.o(i._ZN7cNetTCP6Socket3getEPc) for i._ZN7cNetTCP6Socket3getEPc
    lib.o(.ARM.exidx) refers to lib.o(i._ZN7cNetTCP6Socket10getDataPtrEv) for i._ZN7cNetTCP6Socket10getDataPtrEv
    lib.o(.ARM.exidx) refers to lib.o(i._ZN7cNetTCP6Socket13setDataLengthEt) for i._ZN7cNetTCP6Socket13setDataLengthEt
    lib.o(.ARM.exidx) refers to lib.o(i._ZN7cNetTCP6Socket7processEv) for i._ZN7cNetTCP6Socket7processEv
    lib.o(.ARM.exidx) refers to lib.o(i._ZN7cNetTCP6Socket6updateEv) for i._ZN7cNetTCP6Socket6updateEv
    lib.o(.ARM.exidx) refers to lib.o(i._ZN7cNetTCP6Socket7timeoutEv) for i._ZN7cNetTCP6Socket7timeoutEv
    lib.o(.ARM.exidx) refers to lib.o(i._ZN4cCRCC1ENS_4MODEEtt) for i._ZN4cCRCC1ENS_4MODEEtt
    lib.o(.ARM.exidx) refers to lib.o(i._ZN4cCRCD1Ev) for i._ZN4cCRCD1Ev
    lib.o(.ARM.exidx) refers to lib.o(i._ZN4cCRCclEPKhj) for i._ZN4cCRCclEPKhj
    lib.o(.ARM.exidx) refers to lib.o(i._ZN4cCRCclEh) for i._ZN4cCRCclEh
    lib.o(.ARM.exidx) refers to lib.o(i._ZN6cTimerC2Ev) for i._ZN6cTimerC2Ev
    lib.o(.ARM.exidx) refers to lib.o(i._ZN6cTimer5startEv) for i._ZN6cTimer5startEv
    lib.o(.ARM.exidx) refers to lib.o(i._ZN6cTimer3setEtt) for i._ZN6cTimer3setEtt
    lib.o(.ARM.exidx) refers to lib.o(i._ZN6cTimer5startEtt) for i._ZN6cTimer5startEtt
    lib.o(.ARM.exidx) refers to lib.o(i._ZN6cTimer7timeoutEv) for i._ZN6cTimer7timeoutEv
    lib.o(.ARM.exidx) refers to lib.o(i._ZN6cTimer7timeoutEtt) for i._ZN6cTimer7timeoutEtt
    lib.o(.ARM.exidx) refers to lib.o(i._ZN6cTimer4stopEv) for i._ZN6cTimer4stopEv
    lib.o(.ARM.exidx) refers to lib.o(i._ZN6cTimer9isRunningEv) for i._ZN6cTimer9isRunningEv
    lib.o(.ARM.exidx) refers to lib.o(i._ZN10cDevAnalogC1Ehff) for i._ZN10cDevAnalogC1Ehff
    lib.o(.ARM.exidx) refers to lib.o(i._ZN12cDevAnalogInC2Ehff) for i._ZN12cDevAnalogInC2Ehff
    lib.o(.ARM.exidx) refers to lib.o(i._ZN12cDevAnalogIn9calibrateEffff) for i._ZN12cDevAnalogIn9calibrateEffff
    lib.o(.ARM.exidx) refers to lib.o(i._ZN15cDevAnalogInADCC1ER6cHwADChffh) for i._ZN15cDevAnalogInADCC1ER6cHwADChffh
    lib.o(.ARM.exidx) refers to lib.o(i._ZN15cDevAnalogInADC6getRawEv) for i._ZN15cDevAnalogInADC6getRawEv
    lib.o(.ARM.exidx) refers to lib.o(i._ZN15cDevAnalogInADC6enableEv) for i._ZN15cDevAnalogInADC6enableEv
    lib.o(.ARM.exidx) refers to lib.o(i._ZN13cDevAnalogOutC2Ehff) for i._ZN13cDevAnalogOutC2Ehff
    lib.o(.ARM.exidx) refers to lib.o(i._ZN13cDevAnalogOut3setEf) for i._ZN13cDevAnalogOut3setEf
    lib.o(.ARM.exidx) refers to lib.o(i._ZN16cDevAnalogOutDACC1ER6cHwDAChff) for i._ZN16cDevAnalogOutDACC1ER6cHwDAChff
    lib.o(.ARM.exidx) refers to lib.o(i._ZN16cDevAnalogOutDAC6setRawEt) for i._ZN16cDevAnalogOutDAC6setRawEt
    lib.o(.ARM.exidx) refers to lib.o(i._ZN11cDevDigitalC1ER7cHwPorthNS_4ModeEb) for i._ZN11cDevDigitalC1ER7cHwPorthNS_4ModeEb
    lib.o(.ARM.exidx) refers to lib.o(i._ZN11cDevDigital7setModeENS_4ModeE) for i._ZN11cDevDigital7setModeENS_4ModeE
    lib.o(.ARM.exidx) refers to lib.o(i._ZN11cDevDigital3setEb) for i._ZN11cDevDigital3setEb
    lib.o(.ARM.exidx) refers to lib.o(i._ZN11cDevDigital3getEv) for i._ZN11cDevDigital3getEv
    lib.o(.ARM.exidx) refers to lib.o(i._ZN16cDevAnalogOutPWMC1ER8cHwTimerNS0_4ModeEhff) for i._ZN16cDevAnalogOutPWMC1ER8cHwTimerNS0_4ModeEhff
    lib.o(.ARM.exidx) refers to lib.o(i._ZN16cDevAnalogOutPWM6setRawEt) for i._ZN16cDevAnalogOutPWM6setRawEt
    lib.o(.ARM.exidx) refers to lib.o(i._ZN20cDevAnalogOutPWMemulC1ER8cHwTimerR11cDevDigitalhff) for i._ZN20cDevAnalogOutPWMemulC1ER8cHwTimerR11cDevDigitalhff
    lib.o(.ARM.exidx) refers to lib.o(i._ZN20cDevAnalogOutPWMemul6setRawEt) for i._ZN20cDevAnalogOutPWMemul6setRawEt
    lib.o(.ARM.exidx) refers to lib.o(i._ZN20cDevAnalogOutPWMemul6updateEv) for i._ZN20cDevAnalogOutPWMemul6updateEv
    lib.o(.ARM.exidx) refers to lib.o(i._ZThn16_N20cDevAnalogOutPWMemul6updateEv) for i._ZThn16_N20cDevAnalogOutPWMemul6updateEv
    lib.o(.ARM.exidx) refers to lib.o(i._ZN20cDevDigitalIndicatorC1ER11cDevDigitalR8cHwTimer) for i._ZN20cDevDigitalIndicatorC1ER11cDevDigitalR8cHwTimer
    lib.o(.ARM.exidx) refers to lib.o(i._ZN20cDevDigitalIndicator6updateEv) for i._ZN20cDevDigitalIndicator6updateEv
    lib.o(.ARM.exidx) refers to lib.o(i._ZN11cDevDisplayC2Ev) for i._ZN11cDevDisplayC2Ev
    lib.o(.ARM.exidx) refers to lib.o(i._ZN10cHwDisplayC2Ehh) for i._ZN10cHwDisplayC2Ehh
    lib.o(.ARM.exidx) refers to lib.o(i._ZN15cDevDisplayCharC1ER10cHwDisplay) for i._ZN15cDevDisplayCharC1ER10cHwDisplay
    lib.o(.ARM.exidx) refers to lib.o(i._ZN15cDevDisplayChar5clearEv) for i._ZN15cDevDisplayChar5clearEv
    lib.o(.ARM.exidx) refers to lib.o(i._ZN15cDevDisplayChar7refreshEv) for i._ZN15cDevDisplayChar7refreshEv
    lib.o(.ARM.exidx) refers to lib.o(i._ZN15cDevDisplayChar6printfEhhPKc) for i._ZN15cDevDisplayChar6printfEhhPKc
    lib.o(.ARM.exidx) refers to lib.o(i._ZN15cDevDisplayChar6printfEhhhPKcz) for i._ZN15cDevDisplayChar6printfEhhhPKcz
    lib.o(.ARM.exidx) refers to lib.o(i._ZN14cHwDisplayFontC1EPK24cHwDisplayFontPropertiesPKh) for i._ZN14cHwDisplayFontC1EPK24cHwDisplayFontPropertiesPKh
    lib.o(.ARM.exidx) refers to lib.o(i._ZNK14cHwDisplayFont12getCharWidthEv) for i._ZNK14cHwDisplayFont12getCharWidthEv
    lib.o(.ARM.exidx) refers to lib.o(i._ZNK14cHwDisplayFont13getCharHeightEv) for i._ZNK14cHwDisplayFont13getCharHeightEv
    lib.o(.ARM.exidx) refers to lib.o(i._ZN14cHwDisplayFont7setCharEh) for i._ZN14cHwDisplayFont7setCharEh
    lib.o(.ARM.exidx) refers to lib.o(i._ZN14cHwDisplayFont8getPixelEhh) for i._ZN14cHwDisplayFont8getPixelEhh
    lib.o(.ARM.exidx) refers to lib.o(i._ZN17cHwDisplayGraphicC2E14cHwDisplayFonth) for i._ZN17cHwDisplayGraphicC2E14cHwDisplayFonth
    lib.o(.ARM.exidx) refers to lib.o(i._ZN17cHwDisplayGraphic7setFontE14cHwDisplayFonth) for i._ZN17cHwDisplayGraphic7setFontE14cHwDisplayFonth
    lib.o(.ARM.exidx) refers to lib.o(i._ZN17cHwDisplayGraphic7setZoomEh) for i._ZN17cHwDisplayGraphic7setZoomEh
    lib.o(.ARM.exidx) refers to lib.o(i._ZN17cHwDisplayGraphic12setBackColorEt) for i._ZN17cHwDisplayGraphic12setBackColorEt
    lib.o(.ARM.exidx) refers to lib.o(i._ZN17cHwDisplayGraphic13setPaintColorEt) for i._ZN17cHwDisplayGraphic13setPaintColorEt
    lib.o(.ARM.exidx) refers to lib.o(i._ZN17cHwDisplayGraphic12setTextColorEt) for i._ZN17cHwDisplayGraphic12setTextColorEt
    lib.o(.ARM.exidx) refers to lib.o(i._ZN17cHwDisplayGraphic12gotoPixelPosEtt) for i._ZN17cHwDisplayGraphic12gotoPixelPosEtt
    lib.o(.ARM.exidx) refers to lib.o(i._ZN17cHwDisplayGraphic11gotoTextPosEhh) for i._ZN17cHwDisplayGraphic11gotoTextPosEhh
    lib.o(.ARM.exidx) refers to lib.o(i._ZN17cHwDisplayGraphic7putCharEc) for i._ZN17cHwDisplayGraphic7putCharEc
    lib.o(.ARM.exidx) refers to lib.o(i._ZN17cHwDisplayGraphic8putPixelEtt) for i._ZN17cHwDisplayGraphic8putPixelEtt
    lib.o(.ARM.exidx) refers to lib.o(i._ZN17cHwDisplayGraphic12putRectangleEtttt) for i._ZN17cHwDisplayGraphic12putRectangleEtttt
    lib.o(.ARM.exidx) refers to lib.o(i._ZN17cHwDisplayGraphic9putBitmapEttttPKt) for i._ZN17cHwDisplayGraphic9putBitmapEttttPKt
    lib.o(.ARM.exidx) refers to lib.o(i._ZN18cDevDisplayGraphic5clearEv) for i._ZN18cDevDisplayGraphic5clearEv
    lib.o(.ARM.exidx) refers to lib.o(i._ZN18cDevDisplayGraphicC1ER17cHwDisplayGraphic) for i._ZN18cDevDisplayGraphicC1ER17cHwDisplayGraphic
    lib.o(.ARM.exidx) refers to lib.o(i._ZN18cDevDisplayGraphic7refreshEv) for i._ZN18cDevDisplayGraphic7refreshEv
    lib.o(.ARM.exidx) refers to lib.o(i._ZN18cDevDisplayGraphic6printfEhhhPKcz) for i._ZN18cDevDisplayGraphic6printfEhhhPKcz
    lib.o(.ARM.exidx) refers to lib.o(i._ZN18cDevDisplayGraphic7setFontE14cHwDisplayFonth) for i._ZN18cDevDisplayGraphic7setFontE14cHwDisplayFonth
    lib.o(.ARM.exidx) refers to lib.o(i._ZN18cDevDisplayGraphic7setZoomEh) for i._ZN18cDevDisplayGraphic7setZoomEh
    lib.o(.ARM.exidx) refers to lib.o(i._ZN18cDevDisplayGraphic12setBackColorEt) for i._ZN18cDevDisplayGraphic12setBackColorEt
    lib.o(.ARM.exidx) refers to lib.o(i._ZN18cDevDisplayGraphic12setTextColorEt) for i._ZN18cDevDisplayGraphic12setTextColorEt
    lib.o(.ARM.exidx) refers to lib.o(i._ZN18cDevDisplayGraphic8drawTextEttPKc) for i._ZN18cDevDisplayGraphic8drawTextEttPKc
    lib.o(.ARM.exidx) refers to lib.o(i._ZN18cDevDisplayGraphic8drawTextEtthPKcz) for i._ZN18cDevDisplayGraphic8drawTextEtthPKcz
    lib.o(.ARM.exidx) refers to lib.o(i._ZN18cDevDisplayGraphic9drawPixelEttt) for i._ZN18cDevDisplayGraphic9drawPixelEttt
    lib.o(.ARM.exidx) refers to lib.o(i._ZN18cDevDisplayGraphic13drawRectangleEttttt) for i._ZN18cDevDisplayGraphic13drawRectangleEttttt
    lib.o(.ARM.exidx) refers to lib.o(i._ZN18cDevDisplayGraphic9drawFrameEtttttt) for i._ZN18cDevDisplayGraphic9drawFrameEtttttt
    lib.o(.ARM.exidx) refers to lib.o(i._ZN18cDevDisplayGraphic10drawCircleEtttt) for i._ZN18cDevDisplayGraphic10drawCircleEtttt
    lib.o(.ARM.exidx) refers to lib.o(i._ZN18cDevDisplayGraphic8drawLineEtttttt) for i._ZN18cDevDisplayGraphic8drawLineEtttttt
    lib.o(.ARM.exidx) refers to lib.o(i._ZN18cDevDisplayGraphic10drawBitmapEttttPKt) for i._ZN18cDevDisplayGraphic10drawBitmapEttttPKt
    lib.o(.ARM.exidx) refers to lib.o(i._ZN18cDevDisplayGraphic14getDefaultFontEv) for i._ZN18cDevDisplayGraphic14getDefaultFontEv
    lib.o(.ARM.exidx) refers to lib.o(i._ZN10cDevMemoryC1ER9cHwMemoryt) for i._ZN10cDevMemoryC1ER9cHwMemoryt
    lib.o(.ARM.exidx) refers to lib.o(i._ZN10cDevMemory8allocateEt) for i._ZN10cDevMemory8allocateEt
    lib.o(.ARM.exidx) refers to lib.o(i._ZN10cDevMemory5writeEPhtt) for i._ZN10cDevMemory5writeEPhtt
    lib.o(.ARM.exidx) refers to lib.o(i._ZN10cDevMemory4readEPhtt) for i._ZN10cDevMemory4readEPhtt
    lib.o(.ARM.exidx) refers to lib.o(i._ZN10cDevMemory5clearEv) for i._ZN10cDevMemory5clearEv
    lib.o(.ARM.exidx) refers to lib.o(i._ZN10cDevMemory8setValidEv) for i._ZN10cDevMemory8setValidEv
    lib.o(.ARM.exidx) refers to lib.o(i._ZN10cDevMemory7isValidEv) for i._ZN10cDevMemory7isValidEv
    lib.o(.ARM.exidx) refers to lib.o(i._ZN10cDevTextIOC2EhhPKcS1_) for i._ZN10cDevTextIOC2EhhPKcS1_
    lib.o(.ARM.exidx) refers to lib.o(i._ZN10cDevTextIO9getStringEv) for i._ZN10cDevTextIO9getStringEv
    lib.o(.ARM.exidx) refers to lib.o(i._ZN10cDevTextIO6printfEPKcz) for i._ZN10cDevTextIO6printfEPKcz
    lib.o(.ARM.exidx) refers to lib.o(i._ZN15cDevTextIO_UARTC1ER7cHwUARThhPKcS3_) for i._ZN15cDevTextIO_UARTC1ER7cHwUARThhPKcS3_
    lib.o(.ARM.exidx) refers to lib.o(i._ZN18cDevControlEncoderC2EP11cDevDigitalP8cHwTimer) for i._ZN18cDevControlEncoderC2EP11cDevDigitalP8cHwTimer
    lib.o(.ARM.exidx) refers to lib.o(i._ZN18cDevControlEncoder3getEv) for i._ZN18cDevControlEncoder3getEv
    lib.o(.ARM.exidx) refers to lib.o(i._ZN18cDevControlEncoder6updateEv) for i._ZN18cDevControlEncoder6updateEv
    lib.o(.ARM.exidx) refers to lib.o(i._ZN18cDevControlEncoder7getCtrlEv) for i._ZN18cDevControlEncoder7getCtrlEv
    lib.o(.ARM.exidx) refers to lib.o(i._ZN26cDevControlEncoderJoystickC1EP11cDevDigitalS1_S1_P8cHwTimert) for i._ZN26cDevControlEncoderJoystickC1EP11cDevDigitalS1_S1_P8cHwTimert
    lib.o(.ARM.exidx) refers to lib.o(i._ZN26cDevControlEncoderJoystick12getIncrementEv) for i._ZN26cDevControlEncoderJoystick12getIncrementEv
    lib.o(.ARM.exidx) refers to lib.o(i._ZN28cDevControlEncoderRotaryKnobC1EP11cDevDigitalS1_S1_P8cHwTimer) for i._ZN28cDevControlEncoderRotaryKnobC1EP11cDevDigitalS1_S1_P8cHwTimer
    lib.o(.ARM.exidx) refers to lib.o(i._ZN28cDevControlEncoderRotaryKnob12getIncrementEv) for i._ZN28cDevControlEncoderRotaryKnob12getIncrementEv
    lib.o(.ARM.exidx) refers to lib.o(i._ZN8cHwTouchC2Ett) for i._ZN8cHwTouchC2Ett
    lib.o(.ARM.exidx) refers to lib.o(i._ZN18cDevControlPointerC1ER8cHwTouch) for i._ZN18cDevControlPointerC1ER8cHwTouch
    lib.o(.ARM.exidx) refers to lib.o(i._ZN18cDevControlPointer3getEv) for i._ZN18cDevControlPointer3getEv
    lib.o(.ARM.exidx) refers to lib.o(i._ZN12cTaskHandlerC1EP8cHwTimer) for i._ZN12cTaskHandlerC1EP8cHwTimer
    lib.o(.ARM.exidx) refers to lib.o(i._ZN12cTaskHandlerC1EPS_) for i._ZN12cTaskHandlerC1EPS_
    lib.o(.ARM.exidx) refers to lib.o(i._ZN12cTaskHandler7addTaskEPNS_4TaskE) for i._ZN12cTaskHandler7addTaskEPNS_4TaskE
    lib.o(.ARM.exidx) refers to lib.o(i._ZN12cTaskHandler4TaskC2ERS_) for i._ZN12cTaskHandler4TaskC2ERS_
    lib.o(.ARM.exidx) refers to lib.o(i._ZN12cTaskHandler5TimerC1ERS_tt) for i._ZN12cTaskHandler5TimerC1ERS_tt
    lib.o(.ARM.exidx) refers to lib.o(i._ZN12cTaskHandler5Timer7getTicsEv) for i._ZN12cTaskHandler5Timer7getTicsEv
    lib.o(.ARM.exidx) refers to lib.o(i._ZN12cTaskHandler5Timer12getTimeOfTicEv) for i._ZN12cTaskHandler5Timer12getTimeOfTicEv
    lib.o(.ARM.exidx) refers to lib.o(i._ZN11cHwI2CslaveC1ERNS_11DataHandlerEh) for i._ZN11cHwI2CslaveC1ERNS_11DataHandlerEh
    lib.o(.ARM.exidx) refers to lib.o(i._ZN12cHwSPImasterC2Ev) for i._ZN12cHwSPImasterC2Ev
    lib.o(.ARM.exidx) refers to lib.o(i._ZN12cHwSPImaster6Device10transceiveEh) for i._ZN12cHwSPImaster6Device10transceiveEh
    lib.o(.ARM.exidx) refers to lib.o(i._ZN12cHwSPImaster6Device10transceiveEPht) for i._ZN12cHwSPImaster6Device10transceiveEPht
    lib.o(.ARM.exidx) refers to lib.o(i._ZN11cHwSPIslaveC1ERNS_11DataHandlerE) for i._ZN11cHwSPIslaveC1ERNS_11DataHandlerE
    lib.o(.ARM.exidx) refers to lib.o(i._Z16__NVIC_EnableIRQ9IRQn_Type) for i._Z16__NVIC_EnableIRQ9IRQn_Type
    startup_stm32f769xx.o(STACK) refers (Special) to heapauxi.o(.text) for __use_two_region_memory
    startup_stm32f769xx.o(HEAP) refers (Special) to heapauxi.o(.text) for __use_two_region_memory
    startup_stm32f769xx.o(RESET) refers (Special) to heapauxi.o(.text) for __use_two_region_memory
    startup_stm32f769xx.o(RESET) refers to startup_stm32f769xx.o(STACK) for __initial_sp
    startup_stm32f769xx.o(RESET) refers to startup_stm32f769xx.o(.text) for Reset_Handler
    startup_stm32f769xx.o(RESET) refers to lib.o(i.PendSV_Handler) for PendSV_Handler
    startup_stm32f769xx.o(RESET) refers to lib.o(i.SysTick_Handler) for SysTick_Handler
    startup_stm32f769xx.o(RESET) refers to lib.o(i.ADC_IRQHandler) for ADC_IRQHandler
    startup_stm32f769xx.o(RESET) refers to lib.o(i.TIM1_UP_TIM10_IRQHandler) for TIM1_UP_TIM10_IRQHandler
    startup_stm32f769xx.o(RESET) refers to lib.o(i.TIM2_IRQHandler) for TIM2_IRQHandler
    startup_stm32f769xx.o(RESET) refers to lib.o(i.TIM3_IRQHandler) for TIM3_IRQHandler
    startup_stm32f769xx.o(RESET) refers to lib.o(i.TIM4_IRQHandler) for TIM4_IRQHandler
    startup_stm32f769xx.o(RESET) refers to lib.o(i.USART1_IRQHandler) for USART1_IRQHandler
    startup_stm32f769xx.o(RESET) refers to lib.o(i.USART2_IRQHandler) for USART2_IRQHandler
    startup_stm32f769xx.o(RESET) refers to lib.o(i.USART3_IRQHandler) for USART3_IRQHandler
    startup_stm32f769xx.o(RESET) refers to lib.o(i.TIM8_CC_IRQHandler) for TIM8_CC_IRQHandler
    startup_stm32f769xx.o(RESET) refers to lib.o(i.TIM5_IRQHandler) for TIM5_IRQHandler
    startup_stm32f769xx.o(RESET) refers to lib.o(i.UART4_IRQHandler) for UART4_IRQHandler
    startup_stm32f769xx.o(RESET) refers to lib.o(i.UART5_IRQHandler) for UART5_IRQHandler
    startup_stm32f769xx.o(RESET) refers to lib.o(i.TIM7_IRQHandler) for TIM7_IRQHandler
    startup_stm32f769xx.o(RESET) refers to lib.o(i.OTG_FS_IRQHandler) for OTG_FS_IRQHandler
    startup_stm32f769xx.o(RESET) refers to lib.o(i.USART6_IRQHandler) for USART6_IRQHandler
    startup_stm32f769xx.o(.text) refers (Special) to heapauxi.o(.text) for __use_two_region_memory
    startup_stm32f769xx.o(.text) refers to lib.o(i.SystemInit) for SystemInit
    startup_stm32f769xx.o(.text) refers to __main.o(!!!main) for __main
    startup_stm32f769xx.o(.text) refers to startup_stm32f769xx.o(HEAP) for Heap_Mem
    startup_stm32f769xx.o(.text) refers to startup_stm32f769xx.o(STACK) for Stack_Mem
    rtos.o(i._ZN5cRTOS4Task4StopEv) refers to rtos.o(i._ZN5cRTOS4StopERNS_4TaskE) for cRTOS::Stop(cRTOS::Task&)
    rtos.o(i._ZN5cRTOS4Task5PauseEt) refers to rtos.o(i._ZN11cHwRTOS_MCU10getSysTimeEv) for cHwRTOS_MCU::getSysTime()
    rtos.o(i._ZN5cRTOS4Task5PauseEt) refers to rtos.o(i._ZN5cRTOS5PauseERNS_4TaskE) for cRTOS::Pause(cRTOS::Task&)
    rtos.o(i._ZN5cRTOS4Task5StartEv) refers to rtos.o(i._ZN5cRTOS5StartERNS_4TaskE) for cRTOS::Start(cRTOS::Task&)
    rtos.o(i._ZN5cRTOS4Task6FinishEv) refers to rtos.o(i._ZN5cRTOS4StopERNS_4TaskE) for cRTOS::Stop(cRTOS::Task&)
    rtos.o(i._ZN5cRTOS4TaskC2ERS_j) refers to h1_alloc.o(.text) for malloc
    rtos.o(i._ZN5cRTOS4TaskC2ERS_j) refers to rtos.o(.constdata__ZTVN5cRTOS4TaskE) for vtable for cRTOS::Task
    rtos.o(i._ZN5cRTOS4TaskD0Ev) refers to rtos.o(i._ZN5cRTOS4TaskD2Ev) for cRTOS::Task::~Task__sub_object()
    rtos.o(i._ZN5cRTOS4TaskD0Ev) refers to h1_free.o(.text) for free
    rtos.o(i._ZN5cRTOS4TaskD2Ev) refers to rtos.o(i._ZN5cRTOS4Task4StopEv) for cRTOS::Task::Stop()
    rtos.o(i._ZN5cRTOS4TaskD2Ev) refers to h1_free.o(.text) for free
    rtos.o(i._ZN5cRTOS4TaskD2Ev) refers to rtos.o(.constdata__ZTVN5cRTOS4TaskE) for vtable for cRTOS::Task
    rtos.o(i._ZN5cRTOS5StartERNS_4TaskE) refers to lib.o(i._ZN7cSystem16disableInterruptEv) for cSystem::disableInterrupt()
    rtos.o(i._ZN5cRTOS5StartERNS_4TaskE) refers to lib.o(i._ZN7cSystem15enableInterruptEv) for cSystem::enableInterrupt()
    rtos.o(i._ZN5cRTOS5StartERNS_4TaskE) refers to rtos.o(i._ZN5cRTOS4Task7starterEPv) for cRTOS::Task::starter(void*)
    rtos.o(i._ZN5cRTOS5StartERNS_4TaskE) refers to rtos.o(i._ZN11cHwRTOS_MCU10deleteFuncEv) for cHwRTOS_MCU::deleteFunc()
    rtos.o(i._ZN5cRTOS5Timer7getTicsEv) refers to rtos.o(i._ZN11cHwRTOS_MCU10getSysTimeEv) for cHwRTOS_MCU::getSysTime()
    rtos.o(i._ZN5cRTOS5TimerC1Et) refers to lib.o(i._ZN6cTimerC2Ev) for cTimer::cTimer__sub_object()
    rtos.o(i._ZN5cRTOS5TimerC1Et) refers to lib.o(i._ZN6cTimer3setEtt) for cTimer::set(unsigned short, unsigned short)
    rtos.o(i._ZN5cRTOS5TimerC1Et) refers to rtos.o(.constdata__ZTVN5cRTOS5TimerE) for vtable for cRTOS::Timer
    rtos.o(i._ZN5cRTOSC2Ev) refers to rtos.o(.constdata__ZTV5cRTOS) for vtable for cRTOS
    rtos.o(i._ZN5cRTOSC2Ev) refers to rtos.o(.data) for .data
    rtos.o(.ARM.exidx) refers to rtos.o(i._ZN5cRTOSC2Ev) for i._ZN5cRTOSC2Ev
    rtos.o(.ARM.exidx) refers to rtos.o(i._ZN5cRTOS4Task7starterEPv) for i._ZN5cRTOS4Task7starterEPv
    rtos.o(.ARM.exidx) refers to rtos.o(i._ZN5cRTOS5StartERNS_4TaskE) for i._ZN5cRTOS5StartERNS_4TaskE
    rtos.o(.ARM.exidx) refers to rtos.o(i._ZN5cRTOS5PauseERNS_4TaskE) for i._ZN5cRTOS5PauseERNS_4TaskE
    rtos.o(.ARM.exidx) refers to rtos.o(i._ZN5cRTOS4StopERNS_4TaskE) for i._ZN5cRTOS4StopERNS_4TaskE
    rtos.o(.ARM.exidx) refers to rtos.o(i._ZN5cRTOS4TaskC2ERS_j) for i._ZN5cRTOS4TaskC2ERS_j
    rtos.o(.ARM.exidx) refers to rtos.o(i._ZN5cRTOS4Task4StopEv) for i._ZN5cRTOS4Task4StopEv
    rtos.o(.ARM.exidx) refers to rtos.o(i._ZN5cRTOS4TaskD2Ev) for i._ZN5cRTOS4TaskD2Ev
    rtos.o(.ARM.exidx) refers to rtos.o(i._ZN5cRTOS4TaskD0Ev) for i._ZN5cRTOS4TaskD0Ev
    rtos.o(.ARM.exidx) refers to rtos.o(i._ZN5cRTOS4Task5PauseEt) for i._ZN5cRTOS4Task5PauseEt
    rtos.o(.ARM.exidx) refers to rtos.o(i._ZN5cRTOS4Task5StartEv) for i._ZN5cRTOS4Task5StartEv
    rtos.o(.ARM.exidx) refers to rtos.o(i._ZN5cRTOS4Task6FinishEv) for i._ZN5cRTOS4Task6FinishEv
    rtos.o(.ARM.exidx) refers to rtos.o(i._ZN5cRTOS5TimerC1Et) for i._ZN5cRTOS5TimerC1Et
    rtos.o(.ARM.exidx) refers to rtos.o(i._ZN5cRTOS5Timer7getTicsEv) for i._ZN5cRTOS5Timer7getTicsEv
    rtos.o(.ARM.exidx) refers to rtos.o(i._ZN5cRTOS5Timer12getTimeOfTicEv) for i._ZN5cRTOS5Timer12getTimeOfTicEv
    disp_otm8009a.o(i._ZN16cHwDisp_OTM8009A4initEv) refers to lib.o(i._ZN7cSystem13delayMilliSecEt) for cSystem::delayMilliSec(unsigned short)
    disp_otm8009a.o(i._ZN16cHwDisp_OTM8009A4initEv) refers to rt_memcpy_w.o(.text) for __aeabi_memcpy4
    disp_otm8009a.o(i._ZN19cHwDisp_OTM8009AcmdC1ER6cHwDSIRN7cHwPort3PinEN16cHwDisp_OTM8009A11OrientationE14cHwDisplayFonth) refers to disp_otm8009a.o(i._ZN16cHwDisp_OTM8009AC2ER6cHwDSIRN7cHwPort3PinENS_11OrientationE14cHwDisplayFonth) for cHwDisp_OTM8009A::cHwDisp_OTM8009A__sub_object(cHwDSI&, cHwPort::Pin&, cHwDisp_OTM8009A::Orientation, cHwDisplayFont, unsigned char)
    disp_otm8009a.o(i._ZN19cHwDisp_OTM8009AcmdC1ER6cHwDSIRN7cHwPort3PinEN16cHwDisp_OTM8009A11OrientationE14cHwDisplayFonth) refers to disp_otm8009a.o(i._ZN6cHwDSI4InitEttb) for cHwDSI::Init(unsigned short, unsigned short, bool)
    disp_otm8009a.o(i._ZN19cHwDisp_OTM8009AcmdC1ER6cHwDSIRN7cHwPort3PinEN16cHwDisp_OTM8009A11OrientationE14cHwDisplayFonth) refers to disp_otm8009a.o(i._ZN16cHwDisp_OTM8009A4initEv) for cHwDisp_OTM8009A::init()
    disp_otm8009a.o(i._ZN19cHwDisp_OTM8009AcmdC1ER6cHwDSIRN7cHwPort3PinEN16cHwDisp_OTM8009A11OrientationE14cHwDisplayFonth) refers to disp_otm8009a.o(i._ZN6cHwDSI14DisplayRefreshEv) for cHwDSI::DisplayRefresh()
    disp_otm8009a.o(i._ZN19cHwDisp_OTM8009AcmdC1ER6cHwDSIRN7cHwPort3PinEN16cHwDisp_OTM8009A11OrientationE14cHwDisplayFonth) refers to disp_otm8009a.o(.constdata__ZTV19cHwDisp_OTM8009Acmd) for vtable for cHwDisp_OTM8009Acmd
    disp_otm8009a.o(i._ZN19cHwDisp_OTM8009Aram7refreshEv) refers to disp_otm8009a.o(i._ZN6cHwDSI14DisplayRefreshEv) for cHwDSI::DisplayRefresh()
    disp_otm8009a.o(i._ZN19cHwDisp_OTM8009AramC1ER6cHwDSIRN7cHwPort3PinEN16cHwDisp_OTM8009A11OrientationE14cHwDisplayFonth) refers to disp_otm8009a.o(i._ZN16cHwDisp_OTM8009AC2ER6cHwDSIRN7cHwPort3PinENS_11OrientationE14cHwDisplayFonth) for cHwDisp_OTM8009A::cHwDisp_OTM8009A__sub_object(cHwDSI&, cHwPort::Pin&, cHwDisp_OTM8009A::Orientation, cHwDisplayFont, unsigned char)
    disp_otm8009a.o(i._ZN19cHwDisp_OTM8009AramC1ER6cHwDSIRN7cHwPort3PinEN16cHwDisp_OTM8009A11OrientationE14cHwDisplayFonth) refers to disp_otm8009a.o(i._ZN6cHwDSI4InitEttb) for cHwDSI::Init(unsigned short, unsigned short, bool)
    disp_otm8009a.o(i._ZN19cHwDisp_OTM8009AramC1ER6cHwDSIRN7cHwPort3PinEN16cHwDisp_OTM8009A11OrientationE14cHwDisplayFonth) refers to disp_otm8009a.o(i._ZN16cHwDisp_OTM8009A4initEv) for cHwDisp_OTM8009A::init()
    disp_otm8009a.o(i._ZN19cHwDisp_OTM8009AramC1ER6cHwDSIRN7cHwPort3PinEN16cHwDisp_OTM8009A11OrientationE14cHwDisplayFonth) refers to disp_otm8009a.o(i._ZN6cHwDSI14DisplayRefreshEv) for cHwDSI::DisplayRefresh()
    disp_otm8009a.o(i._ZN19cHwDisp_OTM8009AramC1ER6cHwDSIRN7cHwPort3PinEN16cHwDisp_OTM8009A11OrientationE14cHwDisplayFonth) refers to disp_otm8009a.o(.constdata__ZTV19cHwDisp_OTM8009Aram) for vtable for cHwDisp_OTM8009Aram
    disp_otm8009a.o(.ARM.exidx) refers to disp_otm8009a.o(i._ZN16cHwDisp_OTM8009A4initEv) for i._ZN16cHwDisp_OTM8009A4initEv
    disp_otm8009a.o(.ARM.exidx) refers to disp_otm8009a.o(i._ZN19cHwDisp_OTM8009AcmdC1ER6cHwDSIRN7cHwPort3PinEN16cHwDisp_OTM8009A11OrientationE14cHwDisplayFonth) for i._ZN19cHwDisp_OTM8009AcmdC1ER6cHwDSIRN7cHwPort3PinEN16cHwDisp_OTM8009A11OrientationE14cHwDisplayFonth
    disp_otm8009a.o(.ARM.exidx) refers to disp_otm8009a.o(i._ZN19cHwDisp_OTM8009Acmd5clearEv) for i._ZN19cHwDisp_OTM8009Acmd5clearEv
    disp_otm8009a.o(.ARM.exidx) refers to disp_otm8009a.o(i._ZN19cHwDisp_OTM8009Acmd7refreshEv) for i._ZN19cHwDisp_OTM8009Acmd7refreshEv
    disp_otm8009a.o(.ARM.exidx) refers to disp_otm8009a.o(i._ZN19cHwDisp_OTM8009Acmd7setAreaEtttt) for i._ZN19cHwDisp_OTM8009Acmd7setAreaEtttt
    disp_otm8009a.o(.ARM.exidx) refers to disp_otm8009a.o(i._ZN19cHwDisp_OTM8009Acmd8setPixelEttt) for i._ZN19cHwDisp_OTM8009Acmd8setPixelEttt
    disp_otm8009a.o(.ARM.exidx) refers to disp_otm8009a.o(i._ZN19cHwDisp_OTM8009Acmd8setPixelEt) for i._ZN19cHwDisp_OTM8009Acmd8setPixelEt
    disp_otm8009a.o(.ARM.exidx) refers to disp_otm8009a.o(i._ZN19cHwDisp_OTM8009AramC1ER6cHwDSIRN7cHwPort3PinEN16cHwDisp_OTM8009A11OrientationE14cHwDisplayFonth) for i._ZN19cHwDisp_OTM8009AramC1ER6cHwDSIRN7cHwPort3PinEN16cHwDisp_OTM8009A11OrientationE14cHwDisplayFonth
    disp_otm8009a.o(.ARM.exidx) refers to disp_otm8009a.o(i._ZN19cHwDisp_OTM8009Aram5clearEv) for i._ZN19cHwDisp_OTM8009Aram5clearEv
    disp_otm8009a.o(.ARM.exidx) refers to disp_otm8009a.o(i._ZN19cHwDisp_OTM8009Aram7refreshEv) for i._ZN19cHwDisp_OTM8009Aram7refreshEv
    disp_otm8009a.o(.ARM.exidx) refers to disp_otm8009a.o(i._ZN19cHwDisp_OTM8009Aram7setAreaEtttt) for i._ZN19cHwDisp_OTM8009Aram7setAreaEtttt
    disp_otm8009a.o(.ARM.exidx) refers to disp_otm8009a.o(i._ZN19cHwDisp_OTM8009Aram8setPixelEttt) for i._ZN19cHwDisp_OTM8009Aram8setPixelEttt
    disp_otm8009a.o(.ARM.exidx) refers to disp_otm8009a.o(i._ZN19cHwDisp_OTM8009Aram8setPixelEt) for i._ZN19cHwDisp_OTM8009Aram8setPixelEt
    touch_ft6206.o(i._ZN15cHwTouch_FT62066updateEv) refers to lib.o(i._ZN12cHwI2Cmaster6Device4readEhPhh) for cHwI2Cmaster::Device::read(unsigned char, unsigned char*, unsigned char)
    touch_ft6206.o(i._ZN15cHwTouch_FT62066updateEv) refers to lib.o(i._ZN12cHwI2Cmaster6Device7isErrorEv) for cHwI2Cmaster::Device::isError()
    touch_ft6206.o(i._ZN15cHwTouch_FT6206C1ER12cHwI2Cmaster) refers to lib.o(i._ZN8cHwTouchC2Ett) for cHwTouch::cHwTouch__sub_object(unsigned short, unsigned short)
    touch_ft6206.o(i._ZN15cHwTouch_FT6206C1ER12cHwI2Cmaster) refers to touch_ft6206.o(.constdata__ZTV15cHwTouch_FT6206) for vtable for cHwTouch_FT6206
    touch_ft6206.o(i._ZN15cHwTouch_FT6206C1ER12cHwI2Cmaster) refers to lib.o(.constdata__ZTVN12cHwI2Cmaster6DeviceE) for vtable for cHwI2Cmaster::Device
    touch_ft6206.o(.ARM.exidx) refers to touch_ft6206.o(i._ZN15cHwTouch_FT6206C1ER12cHwI2Cmaster) for i._ZN15cHwTouch_FT6206C1ER12cHwI2Cmaster
    touch_ft6206.o(.ARM.exidx) refers to touch_ft6206.o(i._ZN15cHwTouch_FT62066updateEv) for i._ZN15cHwTouch_FT62066updateEv
    malloc.o(.text) refers (Special) to hguard.o(.text) for __heap$guard
    malloc.o(.text) refers (Special) to init_alloc.o(.text) for _init_alloc
    malloc.o(.text) refers to rt_heap_descriptor_intlibspace.o(.text) for __rt_heap_descriptor
    malloc.o(.text) refers to heapstubs.o(.text) for __Heap_Alloc
    free.o(.text) refers (Special) to hguard.o(.text) for __heap$guard
    free.o(.text) refers to rt_heap_descriptor_intlibspace.o(.text) for __rt_heap_descriptor
    free.o(.text) refers to heapstubs.o(.text) for __Heap_Free
    h1_alloc.o(.text) refers (Special) to h1_init.o(.text) for __Heap_Initialize
    h1_alloc.o(.text) refers to rt_heap_descriptor_intlibspace.o(.text) for __rt_heap_descriptor
    h1_alloc.o(.text) refers to init_alloc.o(.text) for __Heap_Full
    h1_free.o(.text) refers to rt_heap_descriptor_intlibspace.o(.text) for __rt_heap_descriptor
    h1_alloc_mt.o(.text) refers (Special) to h1_init.o(.text) for __Heap_Initialize
    h1_alloc_mt.o(.text) refers to init_alloc.o(.text) for __Heap_Full
    h1_alloc_mt.o(.text) refers to rt_heap_descriptor_intlibspace.o(.text) for __rt_heap_descriptor
    h1_free_mt.o(.text) refers to rt_heap_descriptor_intlibspace.o(.text) for __rt_heap_descriptor
    heap2.o(i._FDIterate) refers to heap2.o(.conststring) for .conststring
    heap2.o(i.___Heap_ProvideMemory$realtime) refers to fdtree.o(i._FDTree_Delete) for _FDTree_Delete
    heap2.o(i.___Heap_ProvideMemory$realtime) refers to fdtree.o(i._FDTree_Insert) for _FDTree_Insert
    heap2.o(i.___Heap_Stats$realtime) refers to heap2.o(i._Heap2_StatsIterate) for _Heap2_StatsIterate
    heap2.o(i.___Heap_Valid$realtime) refers to heap2.o(i._FDIterate) for _FDIterate
    heap2.o(i.___Heap_Valid$realtime) refers to heap2.o(.conststring) for .conststring
    heap2.o(i._free$realtime) refers to rt_heap_descriptor_intlibspace.o(.text) for __rt_heap_descriptor
    heap2.o(i._free$realtime) refers to fdtree.o(i._FDTree_Delete) for _FDTree_Delete
    heap2.o(i._free$realtime) refers to fdtree.o(i._FDTree_Insert) for _FDTree_Insert
    heap2.o(i._malloc$realtime) refers to rt_heap_descriptor_intlibspace.o(.text) for __rt_heap_descriptor
    heap2.o(i._malloc$realtime) refers to fdtree.o(i._FDTree_FindFirst) for _FDTree_FindFirst
    heap2.o(i._malloc$realtime) refers to init_alloc.o(.text) for __Heap_Full
    heap2.o(i._malloc$realtime) refers to fdtree.o(i._FDTree_RemoveNode) for _FDTree_RemoveNode
    heap2.o(i._malloc$realtime) refers to fdtree.o(i._FDTree_Insert) for _FDTree_Insert
    heap2.o(i._posix_memalign$realtime) refers to rt_heap_descriptor_intlibspace.o(.text) for __rt_heap_descriptor
    heap2.o(i._posix_memalign$realtime) refers to fdtree.o(i._FDTree_FindFirst) for _FDTree_FindFirst
    heap2.o(i._posix_memalign$realtime) refers to init_alloc.o(.text) for __Heap_Full
    heap2.o(i._posix_memalign$realtime) refers to fdtree.o(i._FDTree_RemoveNode) for _FDTree_RemoveNode
    heap2.o(i._posix_memalign$realtime) refers to fdtree.o(i._FDTree_Insert) for _FDTree_Insert
    heap2.o(i._realloc$realtime) refers to rt_heap_descriptor_intlibspace.o(.text) for __rt_heap_descriptor
    heap2.o(i._realloc$realtime) refers to fdtree.o(i._FDTree_Insert) for _FDTree_Insert
    heap2.o(i._realloc$realtime) refers to h1_free.o(.text) for free
    heap2.o(i._realloc$realtime) refers to h1_alloc.o(.text) for malloc
    heap2.o(i._realloc$realtime) refers to fdtree.o(i._FDTree_Delete) for _FDTree_Delete
    heap2.o(i._realloc$realtime) refers to rt_memcpy_w.o(.text) for __aeabi_memcpy4
    heap2mt.o(i._FDIterate) refers to heap2mt.o(.conststring) for .conststring
    heap2mt.o(i.___Heap_Initialize$realtime$concurrent) refers to mutex_dummy.o(.text) for _mutex_initialize
    heap2mt.o(i.___Heap_ProvideMemory$realtime$concurrent) refers to fdtree.o(i._FDTree_Delete) for _FDTree_Delete
    heap2mt.o(i.___Heap_ProvideMemory$realtime$concurrent) refers to fdtree.o(i._FDTree_Insert) for _FDTree_Insert
    heap2mt.o(i.___Heap_Stats$realtime$concurrent) refers to heap2mt.o(i._Heap2_StatsIterate) for _Heap2_StatsIterate
    heap2mt.o(i.___Heap_Valid$realtime$concurrent) refers to heap2mt.o(i._FDIterate) for _FDIterate
    heap2mt.o(i.___Heap_Valid$realtime$concurrent) refers to heap2mt.o(.conststring) for .conststring
    heap2mt.o(i._free$realtime$concurrent) refers to rt_heap_descriptor_intlibspace.o(.text) for __rt_heap_descriptor
    heap2mt.o(i._free$realtime$concurrent) refers to fdtree.o(i._FDTree_Delete) for _FDTree_Delete
    heap2mt.o(i._free$realtime$concurrent) refers to fdtree.o(i._FDTree_Insert) for _FDTree_Insert
    heap2mt.o(i._malloc$realtime$concurrent) refers to rt_heap_descriptor_intlibspace.o(.text) for __rt_heap_descriptor
    heap2mt.o(i._malloc$realtime$concurrent) refers to fdtree.o(i._FDTree_FindFirst) for _FDTree_FindFirst
    heap2mt.o(i._malloc$realtime$concurrent) refers to init_alloc.o(.text) for __Heap_Full
    heap2mt.o(i._malloc$realtime$concurrent) refers to fdtree.o(i._FDTree_RemoveNode) for _FDTree_RemoveNode
    heap2mt.o(i._malloc$realtime$concurrent) refers to fdtree.o(i._FDTree_Insert) for _FDTree_Insert
    heap2mt.o(i._posix_memalign$realtime$concurrent) refers to rt_heap_descriptor_intlibspace.o(.text) for __rt_heap_descriptor
    heap2mt.o(i._posix_memalign$realtime$concurrent) refers to fdtree.o(i._FDTree_FindFirst) for _FDTree_FindFirst
    heap2mt.o(i._posix_memalign$realtime$concurrent) refers to init_alloc.o(.text) for __Heap_Full
    heap2mt.o(i._posix_memalign$realtime$concurrent) refers to fdtree.o(i._FDTree_RemoveNode) for _FDTree_RemoveNode
    heap2mt.o(i._posix_memalign$realtime$concurrent) refers to fdtree.o(i._FDTree_Insert) for _FDTree_Insert
    heap2mt.o(i._realloc$realtime$concurrent) refers to rt_heap_descriptor_intlibspace.o(.text) for __rt_heap_descriptor
    heap2mt.o(i._realloc$realtime$concurrent) refers to fdtree.o(i._FDTree_Insert) for _FDTree_Insert
    heap2mt.o(i._realloc$realtime$concurrent) refers to h1_free.o(.text) for free
    heap2mt.o(i._realloc$realtime$concurrent) refers to h1_alloc.o(.text) for malloc
    heap2mt.o(i._realloc$realtime$concurrent) refers to fdtree.o(i._FDTree_Delete) for _FDTree_Delete
    heap2mt.o(i._realloc$realtime$concurrent) refers to rt_memcpy_w.o(.text) for __aeabi_memcpy4
    c89vsprintf.o(.text) refers (Special) to _printf_a.o(.ARM.Collect$$_printf_percent$$00000006) for _printf_a
    c89vsprintf.o(.text) refers (Special) to _printf_c.o(.ARM.Collect$$_printf_percent$$00000013) for _printf_c
    c89vsprintf.o(.text) refers (Special) to _printf_charcount.o(.text) for _printf_charcount
    c89vsprintf.o(.text) refers (Special) to _printf_d.o(.ARM.Collect$$_printf_percent$$00000009) for _printf_d
    c89vsprintf.o(.text) refers (Special) to _printf_e.o(.ARM.Collect$$_printf_percent$$00000004) for _printf_e
    c89vsprintf.o(.text) refers (Special) to _printf_f.o(.ARM.Collect$$_printf_percent$$00000003) for _printf_f
    c89vsprintf.o(.text) refers (Special) to printf1.o(x$fpl$printf1) for _printf_fp_dec
    c89vsprintf.o(.text) refers (Special) to _printf_g.o(.ARM.Collect$$_printf_percent$$00000005) for _printf_g
    c89vsprintf.o(.text) refers (Special) to _printf_i.o(.ARM.Collect$$_printf_percent$$00000008) for _printf_i
    c89vsprintf.o(.text) refers (Special) to _printf_dec.o(.text) for _printf_int_dec
    c89vsprintf.o(.text) refers (Special) to _printf_l.o(.ARM.Collect$$_printf_percent$$00000012) for _printf_l
    c89vsprintf.o(.text) refers (Special) to _printf_lc.o(.ARM.Collect$$_printf_percent$$00000015) for _printf_lc
    c89vsprintf.o(.text) refers (Special) to _printf_ll.o(.ARM.Collect$$_printf_percent$$00000007) for _printf_ll
    c89vsprintf.o(.text) refers (Special) to _printf_lld.o(.ARM.Collect$$_printf_percent$$0000000E) for _printf_lld
    c89vsprintf.o(.text) refers (Special) to _printf_lli.o(.ARM.Collect$$_printf_percent$$0000000D) for _printf_lli
    c89vsprintf.o(.text) refers (Special) to _printf_llo.o(.ARM.Collect$$_printf_percent$$00000010) for _printf_llo
    c89vsprintf.o(.text) refers (Special) to _printf_llu.o(.ARM.Collect$$_printf_percent$$0000000F) for _printf_llu
    c89vsprintf.o(.text) refers (Special) to _printf_llx.o(.ARM.Collect$$_printf_percent$$00000011) for _printf_llx
    c89vsprintf.o(.text) refers (Special) to _printf_longlong_dec.o(.text) for _printf_longlong_dec
    c89vsprintf.o(.text) refers (Special) to _printf_hex_int_ll_ptr.o(.text) for _printf_longlong_hex
    c89vsprintf.o(.text) refers (Special) to _printf_oct_int_ll.o(.text) for _printf_longlong_oct
    c89vsprintf.o(.text) refers (Special) to _printf_ls.o(.ARM.Collect$$_printf_percent$$00000016) for _printf_ls
    c89vsprintf.o(.text) refers (Special) to _printf_n.o(.ARM.Collect$$_printf_percent$$00000001) for _printf_n
    c89vsprintf.o(.text) refers (Special) to _printf_o.o(.ARM.Collect$$_printf_percent$$0000000B) for _printf_o
    c89vsprintf.o(.text) refers (Special) to _printf_p.o(.ARM.Collect$$_printf_percent$$00000002) for _printf_p
    c89vsprintf.o(.text) refers (Special) to _printf_percent.o(.ARM.Collect$$_printf_percent$$00000000) for _printf_percent
    c89vsprintf.o(.text) refers (Special) to _printf_pad.o(.text) for _printf_post_padding
    c89vsprintf.o(.text) refers (Special) to _printf_s.o(.ARM.Collect$$_printf_percent$$00000014) for _printf_s
    c89vsprintf.o(.text) refers (Special) to _printf_str.o(.text) for _printf_str
    c89vsprintf.o(.text) refers (Special) to _printf_truncate.o(.text) for _printf_truncate_signed
    c89vsprintf.o(.text) refers (Special) to _printf_u.o(.ARM.Collect$$_printf_percent$$0000000A) for _printf_u
    c89vsprintf.o(.text) refers (Special) to _printf_wctomb.o(.text) for _printf_wctomb
    c89vsprintf.o(.text) refers (Special) to _printf_x.o(.ARM.Collect$$_printf_percent$$0000000C) for _printf_x
    c89vsprintf.o(.text) refers to _printf_char_common.o(.text) for _printf_char_common
    c89vsprintf.o(.text) refers to _sputc.o(.text) for _sputc
    c89vsnprintf.o(.text) refers (Special) to _printf_a.o(.ARM.Collect$$_printf_percent$$00000006) for _printf_a
    c89vsnprintf.o(.text) refers (Special) to _printf_c.o(.ARM.Collect$$_printf_percent$$00000013) for _printf_c
    c89vsnprintf.o(.text) refers (Special) to _printf_charcount.o(.text) for _printf_charcount
    c89vsnprintf.o(.text) refers (Special) to _printf_d.o(.ARM.Collect$$_printf_percent$$00000009) for _printf_d
    c89vsnprintf.o(.text) refers (Special) to _printf_e.o(.ARM.Collect$$_printf_percent$$00000004) for _printf_e
    c89vsnprintf.o(.text) refers (Special) to _printf_f.o(.ARM.Collect$$_printf_percent$$00000003) for _printf_f
    c89vsnprintf.o(.text) refers (Special) to printf1.o(x$fpl$printf1) for _printf_fp_dec
    c89vsnprintf.o(.text) refers (Special) to _printf_g.o(.ARM.Collect$$_printf_percent$$00000005) for _printf_g
    c89vsnprintf.o(.text) refers (Special) to _printf_i.o(.ARM.Collect$$_printf_percent$$00000008) for _printf_i
    c89vsnprintf.o(.text) refers (Special) to _printf_dec.o(.text) for _printf_int_dec
    c89vsnprintf.o(.text) refers (Special) to _printf_l.o(.ARM.Collect$$_printf_percent$$00000012) for _printf_l
    c89vsnprintf.o(.text) refers (Special) to _printf_lc.o(.ARM.Collect$$_printf_percent$$00000015) for _printf_lc
    c89vsnprintf.o(.text) refers (Special) to _printf_ll.o(.ARM.Collect$$_printf_percent$$00000007) for _printf_ll
    c89vsnprintf.o(.text) refers (Special) to _printf_lld.o(.ARM.Collect$$_printf_percent$$0000000E) for _printf_lld
    c89vsnprintf.o(.text) refers (Special) to _printf_lli.o(.ARM.Collect$$_printf_percent$$0000000D) for _printf_lli
    c89vsnprintf.o(.text) refers (Special) to _printf_llo.o(.ARM.Collect$$_printf_percent$$00000010) for _printf_llo
    c89vsnprintf.o(.text) refers (Special) to _printf_llu.o(.ARM.Collect$$_printf_percent$$0000000F) for _printf_llu
    c89vsnprintf.o(.text) refers (Special) to _printf_llx.o(.ARM.Collect$$_printf_percent$$00000011) for _printf_llx
    c89vsnprintf.o(.text) refers (Special) to _printf_longlong_dec.o(.text) for _printf_longlong_dec
    c89vsnprintf.o(.text) refers (Special) to _printf_hex_int_ll_ptr.o(.text) for _printf_longlong_hex
    c89vsnprintf.o(.text) refers (Special) to _printf_oct_int_ll.o(.text) for _printf_longlong_oct
    c89vsnprintf.o(.text) refers (Special) to _printf_ls.o(.ARM.Collect$$_printf_percent$$00000016) for _printf_ls
    c89vsnprintf.o(.text) refers (Special) to _printf_n.o(.ARM.Collect$$_printf_percent$$00000001) for _printf_n
    c89vsnprintf.o(.text) refers (Special) to _printf_o.o(.ARM.Collect$$_printf_percent$$0000000B) for _printf_o
    c89vsnprintf.o(.text) refers (Special) to _printf_p.o(.ARM.Collect$$_printf_percent$$00000002) for _printf_p
    c89vsnprintf.o(.text) refers (Special) to _printf_percent.o(.ARM.Collect$$_printf_percent$$00000000) for _printf_percent
    c89vsnprintf.o(.text) refers (Special) to _printf_pad.o(.text) for _printf_post_padding
    c89vsnprintf.o(.text) refers (Special) to _printf_s.o(.ARM.Collect$$_printf_percent$$00000014) for _printf_s
    c89vsnprintf.o(.text) refers (Special) to _printf_str.o(.text) for _printf_str
    c89vsnprintf.o(.text) refers (Special) to _printf_truncate.o(.text) for _printf_truncate_signed
    c89vsnprintf.o(.text) refers (Special) to _printf_u.o(.ARM.Collect$$_printf_percent$$0000000A) for _printf_u
    c89vsnprintf.o(.text) refers (Special) to _printf_wctomb.o(.text) for _printf_wctomb
    c89vsnprintf.o(.text) refers (Special) to _printf_x.o(.ARM.Collect$$_printf_percent$$0000000C) for _printf_x
    c89vsnprintf.o(.text) refers to _printf_char_common.o(.text) for _printf_char_common
    c89vsnprintf.o(.text) refers to _sputc.o(.text) for _sputc
    c89vsnprintf.o(.text) refers to _snputc.o(.text) for _snputc
    abort.o(.text) refers to defsig_abrt_outer.o(.text) for __rt_SIGABRT
    abort.o(.text) refers (Weak) to libshutdown.o(.ARM.Collect$$libshutdown$$00000000) for __rt_lib_shutdown
    abort.o(.text) refers to sys_exit.o(.text) for _sys_exit
    atexit_aeabi.o(.text) refers to aeabi_atexit.o(.text) for __aeabi_atexit
    atexit_aeabi.o(.ARM.exidx) refers to atexit_aeabi.o(.text) for .text
    aeabi_atexit.o(.text) refers (Special) to cxa_finalize.o(.text) for __cxa_finalize
    aeabi_atexit.o(.text) refers to h1_alloc.o(.text) for malloc
    aeabi_atexit.o(.text) refers to rt_ddtor_pointer_addr_intlibspace.o(.text) for __rt_ddtor_pointer_addr
    aeabi_atexit.o(.ARM.exidx) refers (Special) to cxa_finalize.o(.text) for __cxa_finalize
    aeabi_atexit.o(.ARM.exidx) refers to aeabi_atexit.o(.text) for .text
    rt_memcpy_v6.o(.text) refers to rt_memcpy_w.o(.text) for __aeabi_memcpy4
    rt_memclr.o(.text) refers to rt_memclr_w.o(.text) for _memset_w
    __main.o(!!!main) refers to __rtentry.o(.ARM.Collect$$rtentry$$00000000) for __rt_entry
    init_aeabi.o(.emb_text) refers (Special) to libinit2.o(.ARM.Collect$$libinit$$00000031) for __rt_lib_init_cpp_2
    init_aeabi.o(.init_array) refers (Special) to libinit2.o(.ARM.Collect$$libinit$$00000031) for __rt_lib_init_cpp_2
    init_aeabi.o(.init_array) refers to init_aeabi.o(.text) for __cpp_initialize__aeabi_
    init_aeabi.o(.dummy_text) refers (Special) to libinit2.o(.ARM.Collect$$libinit$$00000031) for __rt_lib_init_cpp_2
    init_aeabi.o(.text) refers (Special) to libinit2.o(.ARM.Collect$$libinit$$00000031) for __rt_lib_init_cpp_2
    init_aeabi.o(.ARM.exidx) refers (Special) to libinit2.o(.ARM.Collect$$libinit$$00000031) for __rt_lib_init_cpp_2
    init_aeabi.o(.ARM.exidx) refers to init_aeabi.o(.text) for .text
    cxa_guard_acquire.o(.ARM.exidx) refers to cxa_guard_acquire.o(i.__cxa_guard_acquire) for i.__cxa_guard_acquire
    cxa_guard_release.o(.ARM.exidx) refers to cxa_guard_release.o(i.__cxa_guard_release) for i.__cxa_guard_release
    lib_rtti_impl.o(i._ZN10__cxxabiv116__enum_type_infoD0Ev) refers to lib_rtti_impl.o(i._ZN10__cxxabiv116__enum_type_infoD1Ev) for __cxxabiv1::__enum_type_info::~__enum_type_info()
    lib_rtti_impl.o(i._ZN10__cxxabiv117__array_type_infoD0Ev) refers to lib_rtti_impl.o(i._ZN10__cxxabiv117__array_type_infoD1Ev) for __cxxabiv1::__array_type_info::~__array_type_info()
    lib_rtti_impl.o(i._ZN10__cxxabiv117__class_type_infoD0Ev) refers to lib_rtti_impl.o(i._ZN10__cxxabiv117__class_type_infoD1Ev) for __cxxabiv1::__class_type_info::~__class_type_info()
    lib_rtti_impl.o(i._ZN10__cxxabiv117__pbase_type_infoD0Ev) refers to lib_rtti_impl.o(i._ZN10__cxxabiv117__pbase_type_infoD1Ev) for __cxxabiv1::__pbase_type_info::~__pbase_type_info()
    lib_rtti_impl.o(i._ZN10__cxxabiv119__pointer_type_infoD0Ev) refers to lib_rtti_impl.o(i._ZN10__cxxabiv119__pointer_type_infoD1Ev) for __cxxabiv1::__pointer_type_info::~__pointer_type_info()
    lib_rtti_impl.o(i._ZN10__cxxabiv119__pointer_type_infoD1Ev) refers to lib_rtti_impl.o(i._ZN10__cxxabiv117__pbase_type_infoD1Ev) for __cxxabiv1::__pbase_type_info::~__pbase_type_info()
    lib_rtti_impl.o(i._ZN10__cxxabiv120__function_type_infoD0Ev) refers to lib_rtti_impl.o(i._ZN10__cxxabiv120__function_type_infoD1Ev) for __cxxabiv1::__function_type_info::~__function_type_info()
    lib_rtti_impl.o(i._ZN10__cxxabiv120__si_class_type_infoD0Ev) refers to lib_rtti_impl.o(i._ZN10__cxxabiv120__si_class_type_infoD1Ev) for __cxxabiv1::__si_class_type_info::~__si_class_type_info()
    lib_rtti_impl.o(i._ZN10__cxxabiv120__si_class_type_infoD1Ev) refers to lib_rtti_impl.o(i._ZN10__cxxabiv117__class_type_infoD1Ev) for __cxxabiv1::__class_type_info::~__class_type_info()
    lib_rtti_impl.o(i._ZN10__cxxabiv121__vmi_class_type_infoD0Ev) refers to lib_rtti_impl.o(i._ZN10__cxxabiv121__vmi_class_type_infoD1Ev) for __cxxabiv1::__vmi_class_type_info::~__vmi_class_type_info()
    lib_rtti_impl.o(i._ZN10__cxxabiv121__vmi_class_type_infoD1Ev) refers to lib_rtti_impl.o(i._ZN10__cxxabiv117__class_type_infoD1Ev) for __cxxabiv1::__class_type_info::~__class_type_info()
    lib_rtti_impl.o(i._ZN10__cxxabiv123__fundamental_type_infoD0Ev) refers to lib_rtti_impl.o(i._ZN10__cxxabiv123__fundamental_type_infoD1Ev) for __cxxabiv1::__fundamental_type_info::~__fundamental_type_info()
    lib_rtti_impl.o(i._ZN10__cxxabiv129__pointer_to_member_type_infoD0Ev) refers to lib_rtti_impl.o(i._ZN10__cxxabiv129__pointer_to_member_type_infoD1Ev) for __cxxabiv1::__pointer_to_member_type_info::~__pointer_to_member_type_info()
    lib_rtti_impl.o(i._ZN10__cxxabiv129__pointer_to_member_type_infoD1Ev) refers to lib_rtti_impl.o(i._ZN10__cxxabiv117__pbase_type_infoD1Ev) for __cxxabiv1::__pbase_type_info::~__pbase_type_info()
    lib_rtti_impl.o(.ARM.exidx) refers to lib_rtti_impl.o(i._ZN10__cxxabiv123__fundamental_type_infoD1Ev) for i._ZN10__cxxabiv123__fundamental_type_infoD1Ev
    lib_rtti_impl.o(.ARM.exidx) refers to lib_rtti_impl.o(i._ZN10__cxxabiv123__fundamental_type_infoD0Ev) for i._ZN10__cxxabiv123__fundamental_type_infoD0Ev
    lib_rtti_impl.o(.ARM.exidx) refers to lib_rtti_impl.o(i._ZN10__cxxabiv117__array_type_infoD1Ev) for i._ZN10__cxxabiv117__array_type_infoD1Ev
    lib_rtti_impl.o(.ARM.exidx) refers to lib_rtti_impl.o(i._ZN10__cxxabiv117__array_type_infoD0Ev) for i._ZN10__cxxabiv117__array_type_infoD0Ev
    lib_rtti_impl.o(.ARM.exidx) refers to lib_rtti_impl.o(i._ZN10__cxxabiv120__function_type_infoD1Ev) for i._ZN10__cxxabiv120__function_type_infoD1Ev
    lib_rtti_impl.o(.ARM.exidx) refers to lib_rtti_impl.o(i._ZN10__cxxabiv120__function_type_infoD0Ev) for i._ZN10__cxxabiv120__function_type_infoD0Ev
    lib_rtti_impl.o(.ARM.exidx) refers to lib_rtti_impl.o(i._ZN10__cxxabiv116__enum_type_infoD1Ev) for i._ZN10__cxxabiv116__enum_type_infoD1Ev
    lib_rtti_impl.o(.ARM.exidx) refers to lib_rtti_impl.o(i._ZN10__cxxabiv116__enum_type_infoD0Ev) for i._ZN10__cxxabiv116__enum_type_infoD0Ev
    lib_rtti_impl.o(.ARM.exidx) refers to lib_rtti_impl.o(i._ZN10__cxxabiv117__class_type_infoD1Ev) for i._ZN10__cxxabiv117__class_type_infoD1Ev
    lib_rtti_impl.o(.ARM.exidx) refers to lib_rtti_impl.o(i._ZN10__cxxabiv117__class_type_infoD0Ev) for i._ZN10__cxxabiv117__class_type_infoD0Ev
    lib_rtti_impl.o(.ARM.exidx) refers to lib_rtti_impl.o(i._ZN10__cxxabiv120__si_class_type_infoD1Ev) for i._ZN10__cxxabiv120__si_class_type_infoD1Ev
    lib_rtti_impl.o(.ARM.exidx) refers to lib_rtti_impl.o(i._ZN10__cxxabiv120__si_class_type_infoD0Ev) for i._ZN10__cxxabiv120__si_class_type_infoD0Ev
    lib_rtti_impl.o(.ARM.exidx) refers to lib_rtti_impl.o(i._ZN10__cxxabiv121__vmi_class_type_infoD1Ev) for i._ZN10__cxxabiv121__vmi_class_type_infoD1Ev
    lib_rtti_impl.o(.ARM.exidx) refers to lib_rtti_impl.o(i._ZN10__cxxabiv121__vmi_class_type_infoD0Ev) for i._ZN10__cxxabiv121__vmi_class_type_infoD0Ev
    lib_rtti_impl.o(.ARM.exidx) refers to lib_rtti_impl.o(i._ZN10__cxxabiv117__pbase_type_infoD1Ev) for i._ZN10__cxxabiv117__pbase_type_infoD1Ev
    lib_rtti_impl.o(.ARM.exidx) refers to lib_rtti_impl.o(i._ZN10__cxxabiv117__pbase_type_infoD0Ev) for i._ZN10__cxxabiv117__pbase_type_infoD0Ev
    lib_rtti_impl.o(.ARM.exidx) refers to lib_rtti_impl.o(i._ZN10__cxxabiv119__pointer_type_infoD1Ev) for i._ZN10__cxxabiv119__pointer_type_infoD1Ev
    lib_rtti_impl.o(.ARM.exidx) refers to lib_rtti_impl.o(i._ZN10__cxxabiv119__pointer_type_infoD0Ev) for i._ZN10__cxxabiv119__pointer_type_infoD0Ev
    lib_rtti_impl.o(.ARM.exidx) refers to lib_rtti_impl.o(i._ZN10__cxxabiv129__pointer_to_member_type_infoD1Ev) for i._ZN10__cxxabiv129__pointer_to_member_type_infoD1Ev
    lib_rtti_impl.o(.ARM.exidx) refers to lib_rtti_impl.o(i._ZN10__cxxabiv129__pointer_to_member_type_infoD0Ev) for i._ZN10__cxxabiv129__pointer_to_member_type_infoD0Ev
    aeabi_vec_ctor_nocookie_nodtor.o(.ARM.exidx) refers to aeabi_vec_ctor_nocookie_nodtor.o(i.__aeabi_vec_ctor_nocookie_nodtor) for i.__aeabi_vec_ctor_nocookie_nodtor
    aeabi_vec_ctor_nocookie_nodtor.o(.ARM.exidx) refers to unwind_pr0.o(.text) for __aeabi_unwind_cpp_pr0
    d2f.o(x$fpl$d2f) refers (Special) to usenofp.o(x$fpl$usenofp) for __I$use$fp
    d2f.o(x$fpl$d2f) refers to fretinf.o(x$fpl$fretinf) for __fpl_fretinf
    d2f.o(x$fpl$d2f) refers to dnaninf.o(x$fpl$dnaninf) for __fpl_dnaninf
    daddsub_clz.o(x$fpl$dadd) refers (Special) to usenofp.o(x$fpl$usenofp) for __I$use$fp
    daddsub_clz.o(x$fpl$dadd) refers to daddsub_clz.o(x$fpl$dsub) for _dsub1
    daddsub_clz.o(x$fpl$dadd) refers to dretinf.o(x$fpl$dretinf) for __fpl_dretinf
    daddsub_clz.o(x$fpl$dadd) refers to dnaninf.o(x$fpl$dnaninf) for __fpl_dnaninf
    daddsub_clz.o(x$fpl$drsb) refers (Special) to usenofp.o(x$fpl$usenofp) for __I$use$fp
    daddsub_clz.o(x$fpl$drsb) refers to daddsub_clz.o(x$fpl$dadd) for _dadd1
    daddsub_clz.o(x$fpl$drsb) refers to daddsub_clz.o(x$fpl$dsub) for _dsub1
    daddsub_clz.o(x$fpl$dsub) refers (Special) to usenofp.o(x$fpl$usenofp) for __I$use$fp
    daddsub_clz.o(x$fpl$dsub) refers to daddsub_clz.o(x$fpl$dadd) for _dadd1
    daddsub_clz.o(x$fpl$dsub) refers to dnaninf.o(x$fpl$dnaninf) for __fpl_dnaninf
    ddiv.o(x$fpl$drdiv) refers (Special) to usenofp.o(x$fpl$usenofp) for __I$use$fp
    ddiv.o(x$fpl$drdiv) refers to ddiv.o(x$fpl$ddiv) for ddiv_entry
    ddiv.o(x$fpl$ddiv) refers (Special) to usenofp.o(x$fpl$usenofp) for __I$use$fp
    ddiv.o(x$fpl$ddiv) refers to dretinf.o(x$fpl$dretinf) for __fpl_dretinf
    ddiv.o(x$fpl$ddiv) refers to dnaninf.o(x$fpl$dnaninf) for __fpl_dnaninf
    dfix.o(x$fpl$dfix) refers (Special) to usenofp.o(x$fpl$usenofp) for __I$use$fp
    dfix.o(x$fpl$dfix) refers to dnaninf.o(x$fpl$dnaninf) for __fpl_dnaninf
    dfix.o(x$fpl$dfixr) refers (Special) to usenofp.o(x$fpl$usenofp) for __I$use$fp
    dfix.o(x$fpl$dfixr) refers to dnaninf.o(x$fpl$dnaninf) for __fpl_dnaninf
    dfixu.o(x$fpl$dfixu) refers (Special) to usenofp.o(x$fpl$usenofp) for __I$use$fp
    dfixu.o(x$fpl$dfixu) refers to dnaninf.o(x$fpl$dnaninf) for __fpl_dnaninf
    dfixu.o(x$fpl$dfixur) refers (Special) to usenofp.o(x$fpl$usenofp) for __I$use$fp
    dfixu.o(x$fpl$dfixur) refers to dnaninf.o(x$fpl$dnaninf) for __fpl_dnaninf
    dflt_clz.o(x$fpl$dfltu) refers (Special) to usenofp.o(x$fpl$usenofp) for __I$use$fp
    dflt_clz.o(x$fpl$dflt) refers (Special) to usenofp.o(x$fpl$usenofp) for __I$use$fp
    dflt_clz.o(x$fpl$dfltn) refers (Special) to usenofp.o(x$fpl$usenofp) for __I$use$fp
    dmul.o(x$fpl$dmul) refers (Special) to usenofp.o(x$fpl$usenofp) for __I$use$fp
    dmul.o(x$fpl$dmul) refers to dretinf.o(x$fpl$dretinf) for __fpl_dretinf
    dmul.o(x$fpl$dmul) refers to dnaninf.o(x$fpl$dnaninf) for __fpl_dnaninf
    f2d.o(x$fpl$f2d) refers (Special) to usenofp.o(x$fpl$usenofp) for __I$use$fp
    f2d.o(x$fpl$f2d) refers to fnaninf.o(x$fpl$fnaninf) for __fpl_fnaninf
    f2d.o(x$fpl$f2d) refers to dretinf.o(x$fpl$dretinf) for __fpl_dretinf
    sqrtf.o(i.__hardfp_sqrtf) refers (Special) to usenofp.o(x$fpl$usenofp) for __I$use$fp
    sqrtf.o(i.__hardfp_sqrtf) refers to _rserrno.o(.text) for __set_errno
    sqrtf.o(i.__softfp_sqrtf) refers (Special) to usenofp.o(x$fpl$usenofp) for __I$use$fp
    sqrtf.o(i.__softfp_sqrtf) refers to _rserrno.o(.text) for __set_errno
    sqrtf.o(i.sqrtf) refers (Special) to usenofp.o(x$fpl$usenofp) for __I$use$fp
    sqrtf.o(i.sqrtf) refers to _rserrno.o(.text) for __set_errno
    sqrtf_x.o(i.____hardfp_sqrtf$lsc) refers (Special) to usenofp.o(x$fpl$usenofp) for __I$use$fp
    sqrtf_x.o(i.____hardfp_sqrtf$lsc) refers to _rserrno.o(.text) for __set_errno
    sqrtf_x.o(i.____softfp_sqrtf$lsc) refers (Special) to usenofp.o(x$fpl$usenofp) for __I$use$fp
    sqrtf_x.o(i.____softfp_sqrtf$lsc) refers to _rserrno.o(.text) for __set_errno
    sqrtf_x.o(i.__sqrtf$lsc) refers (Special) to usenofp.o(x$fpl$usenofp) for __I$use$fp
    sqrtf_x.o(i.__sqrtf$lsc) refers to _rserrno.o(.text) for __set_errno
    sys_exit.o(.text) refers (Special) to use_no_semi.o(.text) for __I$use$semihosting
    sys_exit.o(.text) refers (Special) to indicate_semi.o(.text) for __semihosting_library_function
    __rtentry.o(.ARM.Collect$$rtentry$$00000000) refers (Special) to __rtentry2.o(.ARM.Collect$$rtentry$$0000000A) for __rt_entry_li
    __rtentry.o(.ARM.Collect$$rtentry$$00000000) refers (Special) to __rtentry2.o(.ARM.Collect$$rtentry$$0000000D) for __rt_entry_main
    __rtentry.o(.ARM.Collect$$rtentry$$00000000) refers (Special) to __rtentry2.o(.ARM.Collect$$rtentry$$0000000C) for __rt_entry_postli_1
    __rtentry.o(.ARM.Collect$$rtentry$$00000000) refers (Special) to __rtentry2.o(.ARM.Collect$$rtentry$$00000009) for __rt_entry_postsh_1
    __rtentry.o(.ARM.Collect$$rtentry$$00000000) refers (Special) to __rtentry2.o(.ARM.Collect$$rtentry$$00000002) for __rt_entry_presh_1
    __rtentry.o(.ARM.Collect$$rtentry$$00000000) refers (Special) to __rtentry4.o(.ARM.Collect$$rtentry$$00000004) for __rt_entry_sh
    aeabi_ldiv0_sigfpe.o(.text) refers to rt_div0.o(.text) for __rt_div0
    rt_heap_descriptor.o(.text) refers to rt_heap_descriptor.o(.bss) for __rt_heap_descriptor_data
    rt_heap_descriptor_intlibspace.o(.text) refers to libspace.o(.bss) for __libspace_start
    rt_ddtor_pointer_addr.o(.text) refers to rt_ddtor_pointer_addr.o(.bss) for __rt_ddtor_pointer_addr_data
    rt_ddtor_pointer_addr_intlibspace.o(.text) refers to libspace.o(.bss) for __libspace_start
    init_alloc.o(.text) refers (Special) to hguard.o(.text) for __heap$guard
    init_alloc.o(.text) refers (Special) to libinit2.o(.ARM.Collect$$libinit$$00000005) for __rt_lib_init_heap_2
    init_alloc.o(.text) refers (Special) to maybetermalloc1.o(.emb_text) for _maybe_terminate_alloc
    init_alloc.o(.text) refers to h1_extend.o(.text) for __Heap_ProvideMemory
    init_alloc.o(.text) refers to defsig_rtmem_outer.o(.text) for __rt_SIGRTMEM
    init_alloc.o(.text) refers to rt_heap_descriptor_intlibspace.o(.text) for __rt_heap_descriptor
    init_alloc.o(.text) refers to h1_init.o(.text) for __Heap_Initialize
    h1_init_mt.o(.text) refers to mutex_dummy.o(.text) for _mutex_initialize
    _rserrno.o(.text) refers to rt_errno_addr_intlibspace.o(.text) for __aeabi_errno_addr
    __printf.o(.text) refers to _printf_percent.o(.ARM.Collect$$_printf_percent$$00000000) for _printf_percent
    _printf_str.o(.text) refers (Special) to _printf_char.o(.text) for _printf_cs_common
    _printf_str.o(.text) refers (Weak) to _printf_pad.o(.text) for _printf_pre_padding
    _printf_str.o(.text) refers (Weak) to _printf_pad.o(.text) for _printf_post_padding
    _printf_dec.o(.text) refers (Weak) to _printf_truncate.o(.text) for _printf_truncate_signed
    _printf_dec.o(.text) refers (Weak) to _printf_truncate.o(.text) for _printf_truncate_unsigned
    _printf_dec.o(.text) refers to _printf_intcommon.o(.text) for _printf_int_common
    _printf_char_common.o(.text) refers to __printf_flags_ss_wp.o(.text) for __printf
    _printf_wctomb.o(.text) refers (Special) to _printf_wchar.o(.text) for _printf_lcs_common
    _printf_wctomb.o(.text) refers to _wcrtomb.o(.text) for _wcrtomb
    _printf_wctomb.o(.text) refers (Weak) to _printf_pad.o(.text) for _printf_pre_padding
    _printf_wctomb.o(.text) refers (Weak) to _printf_pad.o(.text) for _printf_post_padding
    _printf_wctomb.o(.text) refers to _printf_wctomb.o(.constdata) for .constdata
    _printf_wctomb.o(.constdata) refers (Special) to _printf_wchar.o(.text) for _printf_lcs_common
    _printf_longlong_dec.o(.text) refers to lludiv10.o(.text) for _ll_udiv10
    _printf_longlong_dec.o(.text) refers to _printf_intcommon.o(.text) for _printf_int_common
    _printf_oct_ll.o(.text) refers to _printf_intcommon.o(.text) for _printf_int_common
    _printf_oct_int.o(.text) refers (Weak) to _printf_truncate.o(.text) for _printf_truncate_unsigned
    _printf_oct_int.o(.text) refers to _printf_intcommon.o(.text) for _printf_int_common
    _printf_oct_int_ll.o(.text) refers to _printf_intcommon.o(.text) for _printf_int_common
    _printf_oct_int_ll.o(.text) refers (Weak) to _printf_truncate.o(.text) for _printf_truncate_unsigned
    _printf_hex_ll.o(.text) refers to _printf_intcommon.o(.text) for _printf_int_common
    _printf_hex_ll.o(.text) refers to _printf_hex_ll.o(.constdata) for .constdata
    _printf_hex_int.o(.text) refers (Weak) to _printf_truncate.o(.text) for _printf_truncate_unsigned
    _printf_hex_int.o(.text) refers to _printf_intcommon.o(.text) for _printf_int_common
    _printf_hex_int.o(.text) refers to _printf_hex_int.o(.constdata) for .constdata
    _printf_hex_int_ll.o(.text) refers to _printf_intcommon.o(.text) for _printf_int_common
    _printf_hex_int_ll.o(.text) refers (Weak) to _printf_truncate.o(.text) for _printf_truncate_unsigned
    _printf_hex_int_ll.o(.text) refers to _printf_hex_int_ll.o(.constdata) for .constdata
    _printf_hex_ptr.o(.text) refers to _printf_intcommon.o(.text) for _printf_int_common
    _printf_hex_ptr.o(.text) refers to _printf_hex_ptr.o(.constdata) for .constdata
    _printf_hex_int_ptr.o(.text) refers to _printf_intcommon.o(.text) for _printf_int_common
    _printf_hex_int_ptr.o(.text) refers (Weak) to _printf_truncate.o(.text) for _printf_truncate_unsigned
    _printf_hex_int_ptr.o(.text) refers to _printf_hex_int_ptr.o(.constdata) for .constdata
    _printf_hex_ll_ptr.o(.text) refers to _printf_intcommon.o(.text) for _printf_int_common
    _printf_hex_ll_ptr.o(.text) refers to _printf_hex_ll_ptr.o(.constdata) for .constdata
    _printf_hex_int_ll_ptr.o(.text) refers to _printf_intcommon.o(.text) for _printf_int_common
    _printf_hex_int_ll_ptr.o(.text) refers (Weak) to _printf_truncate.o(.text) for _printf_truncate_unsigned
    _printf_hex_int_ll_ptr.o(.text) refers to _printf_hex_int_ll_ptr.o(.constdata) for .constdata
    __printf_flags.o(.text) refers to _printf_percent.o(.ARM.Collect$$_printf_percent$$00000000) for _printf_percent
    __printf_flags.o(.text) refers to __printf_flags.o(.constdata) for .constdata
    __printf_ss.o(.text) refers to _printf_percent.o(.ARM.Collect$$_printf_percent$$00000000) for _printf_percent
    __printf_flags_ss.o(.text) refers to _printf_percent.o(.ARM.Collect$$_printf_percent$$00000000) for _printf_percent
    __printf_flags_ss.o(.text) refers to __printf_flags_ss.o(.constdata) for .constdata
    __printf_wp.o(.text) refers to __printf_wp.o(i._is_digit) for _is_digit
    __printf_wp.o(.text) refers to _printf_percent.o(.ARM.Collect$$_printf_percent$$00000000) for _printf_percent
    __printf_flags_wp.o(.text) refers to __printf_wp.o(i._is_digit) for _is_digit
    __printf_flags_wp.o(.text) refers to _printf_percent.o(.ARM.Collect$$_printf_percent$$00000000) for _printf_percent
    __printf_flags_wp.o(.text) refers to __printf_flags_wp.o(.constdata) for .constdata
    __printf_ss_wp.o(.text) refers to __printf_wp.o(i._is_digit) for _is_digit
    __printf_ss_wp.o(.text) refers to _printf_percent.o(.ARM.Collect$$_printf_percent$$00000000) for _printf_percent
    __printf_flags_ss_wp.o(.text) refers to __printf_wp.o(i._is_digit) for _is_digit
    __printf_flags_ss_wp.o(.text) refers to _printf_percent.o(.ARM.Collect$$_printf_percent$$00000000) for _printf_percent
    __printf_flags_ss_wp.o(.text) refers to __printf_flags_ss_wp.o(.constdata) for .constdata
    _printf_c.o(.ARM.Collect$$_printf_percent$$00000013) refers (Weak) to _printf_char.o(.text) for _printf_char
    _printf_s.o(.ARM.Collect$$_printf_percent$$00000014) refers (Weak) to _printf_char.o(.text) for _printf_string
    _printf_n.o(.ARM.Collect$$_printf_percent$$00000001) refers (Weak) to _printf_charcount.o(.text) for _printf_charcount
    _printf_x.o(.ARM.Collect$$_printf_percent$$0000000C) refers (Weak) to _printf_hex_int_ll_ptr.o(.text) for _printf_int_hex
    _printf_p.o(.ARM.Collect$$_printf_percent$$00000002) refers (Weak) to _printf_hex_int_ll_ptr.o(.text) for _printf_hex_ptr
    _printf_o.o(.ARM.Collect$$_printf_percent$$0000000B) refers (Weak) to _printf_oct_int_ll.o(.text) for _printf_int_oct
    _printf_i.o(.ARM.Collect$$_printf_percent$$00000008) refers (Weak) to _printf_dec.o(.text) for _printf_int_dec
    _printf_d.o(.ARM.Collect$$_printf_percent$$00000009) refers (Weak) to _printf_dec.o(.text) for _printf_int_dec
    _printf_u.o(.ARM.Collect$$_printf_percent$$0000000A) refers (Weak) to _printf_dec.o(.text) for _printf_int_dec
    _printf_f.o(.ARM.Collect$$_printf_percent$$00000003) refers (Weak) to printf1.o(x$fpl$printf1) for _printf_fp_dec
    _printf_e.o(.ARM.Collect$$_printf_percent$$00000004) refers (Weak) to printf1.o(x$fpl$printf1) for _printf_fp_dec
    _printf_g.o(.ARM.Collect$$_printf_percent$$00000005) refers (Weak) to printf1.o(x$fpl$printf1) for _printf_fp_dec
    _printf_percent.o(.ARM.Collect$$_printf_percent$$00000000) refers (Special) to _printf_percent_end.o(.ARM.Collect$$_printf_percent$$00000017) for _printf_percent_end
    _printf_lli.o(.ARM.Collect$$_printf_percent$$0000000D) refers (Special) to _printf_ll.o(.ARM.Collect$$_printf_percent$$00000007) for _printf_ll
    _printf_lli.o(.ARM.Collect$$_printf_percent$$0000000D) refers (Weak) to _printf_longlong_dec.o(.text) for _printf_longlong_dec
    _printf_lld.o(.ARM.Collect$$_printf_percent$$0000000E) refers (Special) to _printf_ll.o(.ARM.Collect$$_printf_percent$$00000007) for _printf_ll
    _printf_lld.o(.ARM.Collect$$_printf_percent$$0000000E) refers (Weak) to _printf_longlong_dec.o(.text) for _printf_longlong_dec
    _printf_llu.o(.ARM.Collect$$_printf_percent$$0000000F) refers (Special) to _printf_ll.o(.ARM.Collect$$_printf_percent$$00000007) for _printf_ll
    _printf_llu.o(.ARM.Collect$$_printf_percent$$0000000F) refers (Weak) to _printf_longlong_dec.o(.text) for _printf_longlong_dec
    _printf_lc.o(.ARM.Collect$$_printf_percent$$00000015) refers (Special) to _printf_l.o(.ARM.Collect$$_printf_percent$$00000012) for _printf_l
    _printf_lc.o(.ARM.Collect$$_printf_percent$$00000015) refers (Weak) to _printf_wchar.o(.text) for _printf_wchar
    _printf_ls.o(.ARM.Collect$$_printf_percent$$00000016) refers (Special) to _printf_l.o(.ARM.Collect$$_printf_percent$$00000012) for _printf_l
    _printf_ls.o(.ARM.Collect$$_printf_percent$$00000016) refers (Weak) to _printf_wchar.o(.text) for _printf_wstring
    _printf_llo.o(.ARM.Collect$$_printf_percent$$00000010) refers (Special) to _printf_ll.o(.ARM.Collect$$_printf_percent$$00000007) for _printf_ll
    _printf_llo.o(.ARM.Collect$$_printf_percent$$00000010) refers (Weak) to _printf_oct_int_ll.o(.text) for _printf_ll_oct
    _printf_llx.o(.ARM.Collect$$_printf_percent$$00000011) refers (Special) to _printf_ll.o(.ARM.Collect$$_printf_percent$$00000007) for _printf_ll
    _printf_llx.o(.ARM.Collect$$_printf_percent$$00000011) refers (Weak) to _printf_hex_int_ll_ptr.o(.text) for _printf_ll_hex
    cxa_finalize.o(.text) refers (Special) to libshutdown2.o(.ARM.Collect$$libshutdown$$00000001) for __rt_lib_shutdown_cpp_2
    cxa_finalize.o(.text) refers to rt_ddtor_pointer_addr_intlibspace.o(.text) for __rt_ddtor_pointer_addr
    cxa_finalize.o(.text) refers to h1_free.o(.text) for free
    cxa_finalize.o(.ARM.exidx) refers (Special) to libshutdown2.o(.ARM.Collect$$libshutdown$$00000001) for __rt_lib_shutdown_cpp_2
    cxa_finalize.o(.ARM.exidx) refers to cxa_finalize.o(.text) for .text
    defsig_abrt_outer.o(.text) refers to defsig_abrt_inner.o(.text) for __rt_SIGABRT_inner
    defsig_abrt_outer.o(.text) refers to defsig_exit.o(.text) for __sig_exit
    defsig_abrt_formal.o(.text) refers to rt_raise.o(.text) for __rt_raise
    _get_argv.o(.text) refers (Special) to hrguard.o(.text) for __heap_region$guard
    _get_argv.o(.text) refers to h1_alloc.o(.text) for malloc
    _get_argv.o(.text) refers to defsig_rtmem_outer.o(.text) for __rt_SIGRTMEM
    _get_argv.o(.text) refers to sys_command.o(.text) for _sys_command_string
    libinit2.o(.ARM.Collect$$libinit$$00000001) refers to fpinit.o(x$fpl$fpinit) for _fp_init
    libinit2.o(.ARM.Collect$$libinit$$00000005) refers (Weak) to init_alloc.o(.text) for _init_alloc
    libinit2.o(.ARM.Collect$$libinit$$0000000F) refers (Weak) to rt_locale_intlibspace.o(.text) for __rt_locale
    libinit2.o(.ARM.Collect$$libinit$$00000010) refers to libinit2.o(.ARM.Collect$$libinit$$0000000F) for .ARM.Collect$$libinit$$0000000F
    libinit2.o(.ARM.Collect$$libinit$$00000012) refers to libinit2.o(.ARM.Collect$$libinit$$0000000F) for .ARM.Collect$$libinit$$0000000F
    libinit2.o(.ARM.Collect$$libinit$$00000012) refers (Weak) to lc_ctype_c.o(locale$$code) for _get_lc_ctype
    libinit2.o(.ARM.Collect$$libinit$$00000014) refers to libinit2.o(.ARM.Collect$$libinit$$0000000F) for .ARM.Collect$$libinit$$0000000F
    libinit2.o(.ARM.Collect$$libinit$$00000016) refers to libinit2.o(.ARM.Collect$$libinit$$0000000F) for .ARM.Collect$$libinit$$0000000F
    libinit2.o(.ARM.Collect$$libinit$$00000016) refers (Weak) to lc_numeric_c.o(locale$$code) for _get_lc_numeric
    libinit2.o(.ARM.Collect$$libinit$$00000018) refers to libinit2.o(.ARM.Collect$$libinit$$0000000F) for .ARM.Collect$$libinit$$0000000F
    libinit2.o(.ARM.Collect$$libinit$$00000026) refers to argv_veneer.o(.emb_text) for __ARM_argv_veneer
    libinit2.o(.ARM.Collect$$libinit$$00000027) refers to argv_veneer.o(.emb_text) for __ARM_argv_veneer
    libinit2.o(.ARM.Collect$$libinit$$00000031) refers (Weak) to init_aeabi.o(.text) for __cpp_initialize__aeabi_
    type_info_dtor.o(.ARM.exidx) refers to type_info_dtor.o(i._ZNSt9type_infoD1Ev) for i._ZNSt9type_infoD1Ev
    type_info_dtor.o(.ARM.exidx) refers to type_info_dtor.o(i._ZNSt9type_infoD0Ev) for i._ZNSt9type_infoD0Ev
    arm_exceptions_callterm.o(.text) refers to arm_exceptions_globs.o(.text) for __cxa_get_globals
    arm_exceptions_callterm.o(.text) refers to arm_exceptions_support.o(.text) for __ARM::is_foreign_exception(_Unwind_Control_Block*)
    arm_exceptions_callterm.o(.text) refers to arm_exceptions_terminate.o(.text) for std::terminate()
    arm_exceptions_callterm.o(.ARM.exidx) refers to arm_exceptions_callterm.o(.text) for .text
    unwind_pr0.o(.text) refers to unwind_prcommon.o(.text) for __ARM_unwind_cpp_prcommon
    unwind_pr0.o(.ARM.exidx) refers to unwind_pr0.o(.text) for .text
    dnaninf.o(x$fpl$dnaninf) refers (Special) to usenofp.o(x$fpl$usenofp) for __I$use$fp
    dretinf.o(x$fpl$dretinf) refers (Special) to usenofp.o(x$fpl$usenofp) for __I$use$fp
    fnaninf.o(x$fpl$fnaninf) refers (Special) to usenofp.o(x$fpl$usenofp) for __I$use$fp
    fretinf.o(x$fpl$fretinf) refers (Special) to usenofp.o(x$fpl$usenofp) for __I$use$fp
    printf1.o(x$fpl$printf1) refers to _printf_fp_dec.o(.text) for _printf_fp_dec_real
    sys_command.o(.text) refers (Special) to use_no_semi.o(.text) for __I$use$semihosting
    sys_command.o(.text) refers (Special) to indicate_semi.o(.text) for __semihosting_library_function
    libspace.o(.text) refers to libspace.o(.bss) for __libspace_start
    __rtentry2.o(.ARM.Collect$$rtentry$$00000008) refers to boardinit2.o(.text) for _platform_post_stackheap_init
    __rtentry2.o(.ARM.Collect$$rtentry$$0000000A) refers to libinit.o(.ARM.Collect$$libinit$$00000000) for __rt_lib_init
    __rtentry2.o(.ARM.Collect$$rtentry$$0000000B) refers to boardinit3.o(.text) for _platform_post_lib_init
    __rtentry2.o(.ARM.Collect$$rtentry$$0000000D) refers to main.o(i.main) for main
    __rtentry2.o(.ARM.Collect$$rtentry$$0000000D) refers to exit.o(.text) for exit
    __rtentry2.o(.ARM.exidx) refers to __rtentry2.o(.ARM.Collect$$rtentry$$00000001) for .ARM.Collect$$rtentry$$00000001
    __rtentry2.o(.ARM.exidx) refers to __rtentry2.o(.ARM.Collect$$rtentry$$00000008) for .ARM.Collect$$rtentry$$00000008
    __rtentry2.o(.ARM.exidx) refers to __rtentry2.o(.ARM.Collect$$rtentry$$0000000A) for .ARM.Collect$$rtentry$$0000000A
    __rtentry2.o(.ARM.exidx) refers to __rtentry2.o(.ARM.Collect$$rtentry$$0000000B) for .ARM.Collect$$rtentry$$0000000B
    __rtentry2.o(.ARM.exidx) refers to __rtentry2.o(.ARM.Collect$$rtentry$$0000000D) for .ARM.Collect$$rtentry$$0000000D
    __rtentry4.o(.ARM.Collect$$rtentry$$00000004) refers to sys_stackheap_outer.o(.text) for __user_setup_stackheap
    __rtentry4.o(.ARM.exidx) refers to __rtentry4.o(.ARM.Collect$$rtentry$$00000004) for .ARM.Collect$$rtentry$$00000004
    rt_div0.o(.text) refers to defsig_fpe_outer.o(.text) for __rt_SIGFPE
    rt_raise.o(.text) refers to __raise.o(.text) for __raise
    rt_raise.o(.text) refers to sys_exit.o(.text) for _sys_exit
    rt_errno_addr.o(.text) refers to rt_errno_addr.o(.bss) for __aeabi_errno_addr_data
    rt_errno_addr_intlibspace.o(.text) refers to libspace.o(.bss) for __libspace_start
    maybetermalloc2.o(.emb_text) refers (Special) to term_alloc.o(.text) for _terminate_alloc
    h1_extend.o(.text) refers to h1_free.o(.text) for free
    h1_extend_mt.o(.text) refers to h1_free_mt.o(.text) for _free_internal
    _printf_intcommon.o(.text) refers (Weak) to _printf_pad.o(.text) for _printf_pre_padding
    _printf_intcommon.o(.text) refers (Weak) to _printf_pad.o(.text) for _printf_pre_padding
    _printf_intcommon.o(.text) refers (Weak) to _printf_pad.o(.text) for _printf_post_padding
    _printf_fp_dec.o(.text) refers (Special) to usenofp.o(x$fpl$usenofp) for __I$use$fp
    _printf_fp_dec.o(.text) refers (Special) to lc_numeric_c.o(locale$$code) for _get_lc_numeric
    _printf_fp_dec.o(.text) refers to bigflt0.o(.text) for _btod_etento
    _printf_fp_dec.o(.text) refers to btod.o(CL$$btod_d2e) for _btod_d2e
    _printf_fp_dec.o(.text) refers to btod.o(CL$$btod_ediv) for _btod_ediv
    _printf_fp_dec.o(.text) refers to btod.o(CL$$btod_emul) for _btod_emul
    _printf_fp_dec.o(.text) refers to lludiv10.o(.text) for _ll_udiv10
    _printf_fp_dec.o(.text) refers to fpclassify.o(i.__ARM_fpclassify) for __ARM_fpclassify
    _printf_fp_dec.o(.text) refers to _printf_fp_infnan.o(.text) for _printf_fp_infnan
    _printf_fp_dec.o(.text) refers (Weak) to _printf_pad.o(.text) for _printf_pre_padding
    _printf_fp_dec.o(.text) refers (Weak) to _printf_pad.o(.text) for _printf_pre_padding
    _printf_fp_dec.o(.text) refers to rt_locale_intlibspace.o(.text) for __rt_locale
    _printf_fp_dec.o(.text) refers (Weak) to _printf_pad.o(.text) for _printf_post_padding
    _printf_char.o(.text) refers (Weak) to _printf_str.o(.text) for _printf_str
    _printf_wchar.o(.text) refers (Weak) to _printf_wctomb.o(.text) for _printf_wctomb
    _wcrtomb.o(.text) refers to rt_ctype_table.o(.text) for __rt_ctype_table
    defsig_exit.o(.text) refers to sys_exit.o(.text) for _sys_exit
    defsig_abrt_inner.o(.text) refers to defsig_general.o(.text) for __default_signal_display
    defsig_rtmem_outer.o(.text) refers to defsig_rtmem_inner.o(.text) for __rt_SIGRTMEM_inner
    defsig_rtmem_outer.o(.text) refers to defsig_exit.o(.text) for __sig_exit
    defsig_rtmem_formal.o(.text) refers to rt_raise.o(.text) for __rt_raise
    heapauxa.o(.text) refers to heapauxa.o(.data) for .data
    argv_veneer.o(.emb_text) refers to no_argv.o(.text) for __ARM_get_argv
    libshutdown2.o(.ARM.Collect$$libshutdown$$00000001) refers (Weak) to cxa_finalize.o(.text) for __cxa_finalize
    libshutdown2.o(.ARM.Collect$$libshutdown$$0000000D) refers (Weak) to term_alloc.o(.text) for _terminate_alloc
    arm_begincatch_noexceptions.o(.ARM.exidx) refers to arm_begincatch_noexceptions.o(.text) for .text
    arm_exceptions_support.o(.text) refers to arm_exceptions_support.o(.constdata) for .constdata
    arm_exceptions_support.o(.ARM.exidx) refers to arm_exceptions_support.o(.text) for .text
    arm_exceptions_terminate.o(.text) refers to arm_exceptions_globs.o(.text) for __cxa_get_globals
    arm_exceptions_terminate.o(.text) refers to abort.o(.text) for abort
    arm_exceptions_terminate.o(.ARM.exidx) refers to arm_exceptions_terminate.o(.text) for .text
    arm_exceptions_globs.o(.text) refers to abort.o(.text) for abort
    arm_exceptions_globs.o(.text) refers to rt_eh_globals_addr_intlibspace.o(.text) for __rt_eh_globals_addr
    arm_exceptions_globs.o(.text) refers to h1_alloc.o(.text) for malloc
    arm_exceptions_globs.o(.text) refers to arm_exceptions_mem.o(.text) for __ARM_exceptions_buffer_init
    arm_exceptions_globs.o(.ARM.exidx) refers to arm_exceptions_globs.o(.text) for .text
    unwind_prcommon.o(.text) refers to unwinder.o(.text) for _Unwind_VRS_Get
    unwind_prcommon.o(.text) refers to unwind_activity.o(.emb_text) for _Unwind_Activity
    unwind_prcommon.o(.ARM.exidx) refers to unwind_prcommon.o(.text) for .text
    sys_stackheap_outer.o(.text) refers to libspace.o(.text) for __user_perproc_libspace
    sys_stackheap_outer.o(.text) refers to startup_stm32f769xx.o(.text) for __user_initial_stackheap
    rt_ctype_table.o(.text) refers to rt_locale_intlibspace.o(.text) for __rt_locale
    rt_ctype_table.o(.text) refers to lc_ctype_c.o(locale$$code) for _get_lc_ctype
    rt_locale.o(.text) refers to rt_locale.o(.bss) for __rt_locale_data
    rt_locale_intlibspace.o(.text) refers to libspace.o(.bss) for __libspace_start
    rt_eh_globals_addr.o(.text) refers to rt_eh_globals_addr.o(.bss) for __rt_eh_globals_addr_data
    rt_eh_globals_addr_intlibspace.o(.text) refers to libspace.o(.bss) for __libspace_start
    term_alloc.o(.text) refers (Special) to libshutdown2.o(.ARM.Collect$$libshutdown$$0000000E) for __rt_lib_shutdown_heap_2
    term_alloc.o(.text) refers to rt_heap_descriptor_intlibspace.o(.text) for __rt_heap_descriptor
    term_alloc.o(.text) refers to h1_final.o(.text) for __Heap_Finalize
    _printf_fp_infnan.o(.text) refers (Weak) to _printf_pad.o(.text) for _printf_pre_padding
    _printf_fp_infnan.o(.text) refers (Weak) to _printf_pad.o(.text) for _printf_post_padding
    bigflt0.o(.text) refers (Special) to usenofp.o(x$fpl$usenofp) for __I$use$fp
    bigflt0.o(.text) refers to btod.o(CL$$btod_emul) for _btod_emul
    bigflt0.o(.text) refers to btod.o(CL$$btod_ediv) for _btod_ediv
    bigflt0.o(.text) refers to bigflt0.o(.constdata) for .constdata
    bigflt0.o(.constdata) refers (Special) to usenofp.o(x$fpl$usenofp) for __I$use$fp
    btod.o(CL$$btod_d2e) refers (Special) to usenofp.o(x$fpl$usenofp) for __I$use$fp
    btod.o(CL$$btod_d2e) refers to btod.o(CL$$btod_d2e_norm_op1) for _d2e_norm_op1
    btod.o(CL$$btod_d2e_norm_op1) refers (Special) to usenofp.o(x$fpl$usenofp) for __I$use$fp
    btod.o(CL$$btod_d2e_norm_op1) refers to btod.o(CL$$btod_d2e_denorm_low) for _d2e_denorm_low
    btod.o(CL$$btod_d2e_denorm_low) refers (Special) to usenofp.o(x$fpl$usenofp) for __I$use$fp
    btod.o(CL$$btod_emul) refers (Special) to usenofp.o(x$fpl$usenofp) for __I$use$fp
    btod.o(CL$$btod_emul) refers to btod.o(CL$$btod_mult_common) for __btod_mult_common
    btod.o(CL$$btod_emul) refers to btod.o(CL$$btod_e2e) for _e2e
    btod.o(CL$$btod_ediv) refers (Special) to usenofp.o(x$fpl$usenofp) for __I$use$fp
    btod.o(CL$$btod_ediv) refers to btod.o(CL$$btod_div_common) for __btod_div_common
    btod.o(CL$$btod_ediv) refers to btod.o(CL$$btod_e2e) for _e2e
    btod.o(CL$$btod_emuld) refers (Special) to usenofp.o(x$fpl$usenofp) for __I$use$fp
    btod.o(CL$$btod_emuld) refers to btod.o(CL$$btod_mult_common) for __btod_mult_common
    btod.o(CL$$btod_emuld) refers to btod.o(CL$$btod_e2d) for _e2d
    btod.o(CL$$btod_edivd) refers (Special) to usenofp.o(x$fpl$usenofp) for __I$use$fp
    btod.o(CL$$btod_edivd) refers to btod.o(CL$$btod_div_common) for __btod_div_common
    btod.o(CL$$btod_edivd) refers to btod.o(CL$$btod_e2d) for _e2d
    btod.o(CL$$btod_e2e) refers (Special) to usenofp.o(x$fpl$usenofp) for __I$use$fp
    btod.o(CL$$btod_e2d) refers (Special) to usenofp.o(x$fpl$usenofp) for __I$use$fp
    btod.o(CL$$btod_e2d) refers to btod.o(CL$$btod_e2e) for _e2e
    btod.o(CL$$btod_mult_common) refers (Special) to usenofp.o(x$fpl$usenofp) for __I$use$fp
    btod.o(CL$$btod_div_common) refers (Special) to usenofp.o(x$fpl$usenofp) for __I$use$fp
    lc_numeric_c.o(locale$$data) refers (Special) to libinit2.o(.ARM.Collect$$libinit$$00000016) for __rt_lib_init_lc_numeric_2
    lc_numeric_c.o(locale$$code) refers (Special) to libinit2.o(.ARM.Collect$$libinit$$00000016) for __rt_lib_init_lc_numeric_2
    lc_numeric_c.o(locale$$code) refers to strcmpv7m_pel.o(.text) for strcmp
    lc_numeric_c.o(locale$$code) refers to lc_numeric_c.o(locale$$data) for __lcnum_c_name
    exit.o(.text) refers to rtexit.o(.ARM.Collect$$rtexit$$00000000) for __rt_exit
    __raise.o(.text) refers to defsig.o(CL$$defsig) for __default_signal_handler
    defsig_general.o(.text) refers to sys_wrch.o(.text) for _ttywrch
    defsig_fpe_outer.o(.text) refers to defsig_fpe_inner.o(.text) for __rt_SIGFPE_inner
    defsig_fpe_outer.o(.text) refers to defsig_exit.o(.text) for __sig_exit
    defsig_fpe_formal.o(.text) refers to rt_raise.o(.text) for __rt_raise
    defsig_rtmem_inner.o(.text) refers to defsig_general.o(.text) for __default_signal_display
    _get_argv_nomalloc.o(.text) refers (Special) to hrguard.o(.text) for __heap_region$guard
    _get_argv_nomalloc.o(.text) refers to defsig_rtmem_outer.o(.text) for __rt_SIGRTMEM
    _get_argv_nomalloc.o(.text) refers to sys_command.o(.text) for _sys_command_string
    libinit.o(.ARM.Collect$$libinit$$00000000) refers (Special) to libinit2.o(.ARM.Collect$$libinit$$0000002E) for __rt_lib_init_alloca_1
    libinit.o(.ARM.Collect$$libinit$$00000000) refers (Special) to libinit2.o(.ARM.Collect$$libinit$$0000002C) for __rt_lib_init_argv_1
    libinit.o(.ARM.Collect$$libinit$$00000000) refers (Special) to libinit2.o(.ARM.Collect$$libinit$$0000001B) for __rt_lib_init_atexit_1
    libinit.o(.ARM.Collect$$libinit$$00000000) refers (Special) to libinit2.o(.ARM.Collect$$libinit$$00000021) for __rt_lib_init_clock_1
    libinit.o(.ARM.Collect$$libinit$$00000000) refers (Special) to libinit2.o(.ARM.Collect$$libinit$$00000032) for __rt_lib_init_cpp_1
    libinit.o(.ARM.Collect$$libinit$$00000000) refers (Special) to libinit2.o(.ARM.Collect$$libinit$$00000030) for __rt_lib_init_exceptions_1
    libinit.o(.ARM.Collect$$libinit$$00000000) refers (Special) to libinit2.o(.ARM.Collect$$libinit$$00000001) for __rt_lib_init_fp_1
    libinit.o(.ARM.Collect$$libinit$$00000000) refers (Special) to libinit2.o(.ARM.Collect$$libinit$$0000001F) for __rt_lib_init_fp_trap_1
    libinit.o(.ARM.Collect$$libinit$$00000000) refers (Special) to libinit2.o(.ARM.Collect$$libinit$$00000023) for __rt_lib_init_getenv_1
    libinit.o(.ARM.Collect$$libinit$$00000000) refers (Special) to libinit2.o(.ARM.Collect$$libinit$$0000000A) for __rt_lib_init_heap_1
    libinit.o(.ARM.Collect$$libinit$$00000000) refers (Special) to libinit2.o(.ARM.Collect$$libinit$$00000011) for __rt_lib_init_lc_collate_1
    libinit.o(.ARM.Collect$$libinit$$00000000) refers (Special) to libinit2.o(.ARM.Collect$$libinit$$00000013) for __rt_lib_init_lc_ctype_1
    libinit.o(.ARM.Collect$$libinit$$00000000) refers (Special) to libinit2.o(.ARM.Collect$$libinit$$00000015) for __rt_lib_init_lc_monetary_1
    libinit.o(.ARM.Collect$$libinit$$00000000) refers (Special) to libinit2.o(.ARM.Collect$$libinit$$00000017) for __rt_lib_init_lc_numeric_1
    libinit.o(.ARM.Collect$$libinit$$00000000) refers (Special) to libinit2.o(.ARM.Collect$$libinit$$00000019) for __rt_lib_init_lc_time_1
    libinit.o(.ARM.Collect$$libinit$$00000000) refers (Special) to libinit2.o(.ARM.Collect$$libinit$$00000004) for __rt_lib_init_preinit_1
    libinit.o(.ARM.Collect$$libinit$$00000000) refers (Special) to libinit2.o(.ARM.Collect$$libinit$$0000000E) for __rt_lib_init_rand_1
    libinit.o(.ARM.Collect$$libinit$$00000000) refers (Special) to libinit2.o(.ARM.Collect$$libinit$$00000033) for __rt_lib_init_return
    libinit.o(.ARM.Collect$$libinit$$00000000) refers (Special) to libinit2.o(.ARM.Collect$$libinit$$0000001D) for __rt_lib_init_signal_1
    libinit.o(.ARM.Collect$$libinit$$00000000) refers (Special) to libinit2.o(.ARM.Collect$$libinit$$00000025) for __rt_lib_init_stdio_1
    libinit.o(.ARM.Collect$$libinit$$00000000) refers (Special) to libinit2.o(.ARM.Collect$$libinit$$0000000C) for __rt_lib_init_user_alloc_1
    arm_exceptions_mem.o(.text) refers to h1_alloc.o(.text) for malloc
    arm_exceptions_mem.o(.ARM.exidx) refers to arm_exceptions_mem.o(.text) for .text
    unwinder.o(.emb_text) refers to unwinder.o(.text) for __ARM_Unwind_RaiseException
    unwinder.o(.text) refers to bsearchnoex.o(.text) for bsearch
    unwinder.o(.text) refers to unwind_activity.o(.emb_text) for _Unwind_Activity
    unwinder.o(.text) refers to abort.o(.text) for abort
    unwinder.o(.text) refers to unwinder.o(.emb_text) for __ARM_Unwind_VRS_corerestore
    unwinder.o(.text) refers to h1_alloc.o(.text) for malloc
    unwinder.o(.text) refers to rt_memcpy_w.o(.text) for __aeabi_memcpy4
    unwinder.o(.text) refers to h1_free.o(.text) for free
    unwinder.o(.text) refers (Weak) to unwind_pr0.o(.text) for __aeabi_unwind_cpp_pr0
    unwinder.o(.ARM.exidx) refers to unwinder.o(.text) for .text
    istatus.o(x$fpl$ieeestatus) refers (Special) to usenofp.o(x$fpl$usenofp) for __I$use$fp
    fpclassify.o(i.__ARM_fpclassify) refers (Special) to usenofp.o(x$fpl$usenofp) for __I$use$fp
    sys_wrch.o(.text) refers (Special) to use_no_semi.o(.text) for __I$use$semihosting
    sys_wrch.o(.text) refers (Special) to indicate_semi.o(.text) for __semihosting_library_function
    rtexit.o(.ARM.Collect$$rtexit$$00000000) refers (Special) to rtexit2.o(.ARM.Collect$$rtexit$$00000004) for __rt_exit_exit
    rtexit.o(.ARM.Collect$$rtexit$$00000000) refers (Special) to rtexit2.o(.ARM.Collect$$rtexit$$00000003) for __rt_exit_ls
    rtexit.o(.ARM.Collect$$rtexit$$00000000) refers (Special) to rtexit2.o(.ARM.Collect$$rtexit$$00000002) for __rt_exit_prels_1
    rtexit.o(.ARM.exidx) refers (Special) to rtexit2.o(.ARM.Collect$$rtexit$$00000004) for __rt_exit_exit
    rtexit.o(.ARM.exidx) refers (Special) to rtexit2.o(.ARM.Collect$$rtexit$$00000003) for __rt_exit_ls
    rtexit.o(.ARM.exidx) refers (Special) to rtexit2.o(.ARM.Collect$$rtexit$$00000002) for __rt_exit_prels_1
    rtexit.o(.ARM.exidx) refers to rtexit.o(.ARM.Collect$$rtexit$$00000000) for .ARM.Collect$$rtexit$$00000000
    lc_ctype_c.o(locale$$data) refers (Special) to libinit2.o(.ARM.Collect$$libinit$$00000012) for __rt_lib_init_lc_ctype_2
    lc_ctype_c.o(locale$$code) refers (Special) to libinit2.o(.ARM.Collect$$libinit$$00000012) for __rt_lib_init_lc_ctype_2
    lc_ctype_c.o(locale$$code) refers to strcmpv7m_pel.o(.text) for strcmp
    lc_ctype_c.o(locale$$code) refers to lc_ctype_c.o(locale$$data) for __lcctype_c_name
    defsig_fpe_inner.o(.text) refers to defsig_general.o(.text) for __default_signal_display
    defsig.o(CL$$defsig) refers to defsig_abrt_inner.o(.text) for __rt_SIGABRT_inner
    defsig.o(CL$$defsig) refers to defsig_fpe_inner.o(.text) for __rt_SIGFPE_inner
    defsig.o(CL$$defsig) refers to defsig_rtmem_inner.o(.text) for __rt_SIGRTMEM_inner
    rtexit2.o(.ARM.Collect$$rtexit$$00000003) refers to libshutdown.o(.ARM.Collect$$libshutdown$$00000000) for __rt_lib_shutdown
    rtexit2.o(.ARM.Collect$$rtexit$$00000004) refers to sys_exit.o(.text) for _sys_exit
    rtexit2.o(.ARM.exidx) refers to rtexit2.o(.ARM.Collect$$rtexit$$00000001) for .ARM.Collect$$rtexit$$00000001
    rtexit2.o(.ARM.exidx) refers to rtexit2.o(.ARM.Collect$$rtexit$$00000003) for .ARM.Collect$$rtexit$$00000003
    rtexit2.o(.ARM.exidx) refers to rtexit2.o(.ARM.Collect$$rtexit$$00000004) for .ARM.Collect$$rtexit$$00000004
    defsig_rtred_inner.o(.text) refers to defsig_general.o(.text) for __default_signal_display
    defsig_stak_inner.o(.text) refers to defsig_general.o(.text) for __default_signal_display
    defsig_pvfn_inner.o(.text) refers to defsig_general.o(.text) for __default_signal_display
    defsig_cppl_inner.o(.text) refers to defsig_general.o(.text) for __default_signal_display
    defsig_segv_inner.o(.text) refers to defsig_general.o(.text) for __default_signal_display
    defsig_other.o(.text) refers to defsig_general.o(.text) for __default_signal_display
    libshutdown.o(.ARM.Collect$$libshutdown$$00000000) refers (Special) to libshutdown2.o(.ARM.Collect$$libshutdown$$00000002) for __rt_lib_shutdown_cpp_1
    libshutdown.o(.ARM.Collect$$libshutdown$$00000000) refers (Special) to libshutdown2.o(.ARM.Collect$$libshutdown$$00000007) for __rt_lib_shutdown_fp_trap_1
    libshutdown.o(.ARM.Collect$$libshutdown$$00000000) refers (Special) to libshutdown2.o(.ARM.Collect$$libshutdown$$0000000F) for __rt_lib_shutdown_heap_1
    libshutdown.o(.ARM.Collect$$libshutdown$$00000000) refers (Special) to libshutdown2.o(.ARM.Collect$$libshutdown$$00000010) for __rt_lib_shutdown_return
    libshutdown.o(.ARM.Collect$$libshutdown$$00000000) refers (Special) to libshutdown2.o(.ARM.Collect$$libshutdown$$0000000A) for __rt_lib_shutdown_signal_1
    libshutdown.o(.ARM.Collect$$libshutdown$$00000000) refers (Special) to libshutdown2.o(.ARM.Collect$$libshutdown$$00000004) for __rt_lib_shutdown_stdio_1
    libshutdown.o(.ARM.Collect$$libshutdown$$00000000) refers (Special) to libshutdown2.o(.ARM.Collect$$libshutdown$$0000000C) for __rt_lib_shutdown_user_alloc_1
    main.o(.ARM.exidx) refers to main.o(i._ZN4View9drawCrossE10Coordinate) for i._ZN4View9drawCrossE10Coordinate
    main.o(i._ZN10Controller10setupFieldEv) refers to main.o(i._Znwj) for operator new(unsigned)
    main.o(.ARM.exidx) refers to main.o(i._ZN10Controller10setupFieldEv) for i._ZN10Controller10setupFieldEv
    main.o(i._ZN4View15createStartViewE6ButtonS0_) refers to main.o(.constdata__ZZN4View15createStartViewE6ButtonS0_Es) for View::createStartView(Button, Button)::string
    main.o(i._ZN4View15createStartViewE6ButtonS0_) refers to main.o(.constdata__ZZN4View15createStartViewE6ButtonS0_Es_0) for View::createStartView(Button, Button)::string (instance 2)
    main.o(i._ZN4View15createStartViewE6ButtonS0_) refers to main.o(.constdata__ZZN4View15createStartViewE6ButtonS0_Es_1) for View::createStartView(Button, Button)::string (instance 3)
    main.o(.ARM.exidx) refers to main.o(i._ZN4View15createStartViewE6ButtonS0_) for i._ZN4View15createStartViewE6ButtonS0_
    main.o(.ARM.exidx) refers to main.o(i._ZN6cHwFMC11SendCommandEjjj) for i._ZN6cHwFMC11SendCommandEjjj
    main.o(i._ZN6cHwFMCC1ENS_7FMCtypeEb) refers to lib.o(i._ZN12cHwPinConfig3setENS_8FunctionEj) for cHwPinConfig::set(cHwPinConfig::Function, unsigned)
    main.o(i._ZN6cHwFMCC1ENS_7FMCtypeEb) refers to main.o(i._ZN6cHwFMC10SDRAM_InitEv) for cHwFMC::SDRAM_Init()
    main.o(.ARM.exidx) refers to main.o(i._ZN6cHwFMCC1ENS_7FMCtypeEb) for i._ZN6cHwFMCC1ENS_7FMCtypeEb
    main.o(i._Znwj) refers to h1_alloc.o(.text) for malloc
    main.o(.ARM.exidx) refers to main.o(i._Znwj) for i._Znwj
    main.o(i._ZN10Controller10duringGameEN18cDevControlPointer5cDataE) refers to main.o(i._ZN4View9drawCrossE10Coordinate) for View::drawCross(Coordinate)
    main.o(.ARM.exidx) refers to main.o(i._ZN10Controller10duringGameEN18cDevControlPointer5cDataE) for i._ZN10Controller10duringGameEN18cDevControlPointer5cDataE
    main.o(i._ZN10Controller10beforeGameEN18cDevControlPointer5cDataE) refers to main.o(i._ZN6Button8containsEii) for Button::contains(int, int)
    main.o(i._ZN10Controller10beforeGameEN18cDevControlPointer5cDataE) refers to main.o(i._ZN4View9drawCrossE10Coordinate) for View::drawCross(Coordinate)
    main.o(i._ZN10Controller10beforeGameEN18cDevControlPointer5cDataE) refers to main.o(i._ZN10Controller10setupFieldEv) for Controller::setupField()
    main.o(.ARM.exidx) refers to main.o(i._ZN10Controller10beforeGameEN18cDevControlPointer5cDataE) for i._ZN10Controller10beforeGameEN18cDevControlPointer5cDataE
    main.o(.ARM.exidx) refers to main.o(i._ZN6ButtonC1Eiiii) for i._ZN6ButtonC1Eiiii
    main.o(i._ZN6cHwFMC10SDRAM_InitEv) refers to main.o(i._ZN6cHwFMC11SendCommandEjjj) for cHwFMC::SendCommand(unsigned, unsigned, unsigned)
    main.o(i._ZN6cHwFMC10SDRAM_InitEv) refers to lib.o(i._ZN7cSystem13delayMilliSecEt) for cSystem::delayMilliSec(unsigned short)
    main.o(.ARM.exidx) refers to main.o(i._ZN6cHwFMC10SDRAM_InitEv) for i._ZN6cHwFMC10SDRAM_InitEv
    main.o(i._ZN5cRTOS8scheduleEjh) refers to rtos.o(.data) for cRTOS::ptr
    main.o(.ARM.exidx) refers to main.o(i._ZN5cRTOS8scheduleEjh) for i._ZN5cRTOS8scheduleEjh
    main.o(i._ZN17cRtosTask_ExampleD1Ev) refers to rtos.o(i._ZN5cRTOS4TaskD2Ev) for cRTOS::Task::~Task__sub_object()
    main.o(.ARM.exidx) refers to main.o(i._ZN17cRtosTask_ExampleD1Ev) for i._ZN17cRtosTask_ExampleD1Ev
    main.o(.ARM.exidx) refers to main.o(i._ZN6Button8containsEii) for i._ZN6Button8containsEii
    main.o(.constdata__ZTV6cHwDSI) refers to main.o(.constdata__ZTI6cHwDSI) for typeinfo for cHwDSI
    main.o(.constdata__ZTV6cHwDSI) refers to main.o(i._ZN6cHwDSI10writeShortEhh) for cHwDSI::writeShort(unsigned char, unsigned char)
    main.o(.constdata__ZTV6cHwDSI) refers to main.o(i._ZN6cHwDSI9writeLongEPhj) for cHwDSI::writeLong(unsigned char*, unsigned)
    main.o(.constdata__ZTV13cTask_Example) refers to main.o(.constdata__ZTI13cTask_Example) for typeinfo for cTask_Example
    main.o(.constdata__ZTV13cTask_Example) refers to main.o(i._ZN13cTask_Example6updateEv) for cTask_Example::update()
    main.o(.constdata__ZTV17cRtosTask_Example) refers to main.o(.constdata__ZTI17cRtosTask_Example) for typeinfo for cRtosTask_Example
    main.o(.constdata__ZTV17cRtosTask_Example) refers to main.o(i._ZN17cRtosTask_ExampleD1Ev) for cRtosTask_Example::~cRtosTask_Example()
    main.o(.constdata__ZTV17cRtosTask_Example) refers to main.o(i._ZN17cRtosTask_ExampleD0Ev) for cRtosTask_Example::~cRtosTask_Example__deallocating()
    main.o(.constdata__ZTV17cRtosTask_Example) refers to rtos.o(i._ZN5cRTOS4Task4StopEv) for cRTOS::Task::Stop()
    main.o(.constdata__ZTV17cRtosTask_Example) refers to rtos.o(i._ZN5cRTOS4Task5PauseEt) for cRTOS::Task::Pause(unsigned short)
    main.o(.constdata__ZTV17cRtosTask_Example) refers to rtos.o(i._ZN5cRTOS4Task5StartEv) for cRTOS::Task::Start()
    main.o(.constdata__ZTV17cRtosTask_Example) refers to rtos.o(i._ZN5cRTOS4Task6FinishEv) for cRTOS::Task::Finish()
    main.o(.constdata__ZTV17cRtosTask_Example) refers to main.o(i._ZN5cRTOS4Task8isActiveEv) for cRTOS::Task::isActive()
    main.o(.constdata__ZTV17cRtosTask_Example) refers to main.o(i._ZN17cRtosTask_Example6updateEv) for cRtosTask_Example::update()
    main.o(.constdata__ZTV17cRtosTask_Example) refers to main.o(i._ZN17cRtosTask_Example7OnStartEv) for cRtosTask_Example::OnStart()
    main.o(.constdata__ZTV17cRtosTask_Example) refers to main.o(i._ZN17cRtosTask_Example6OnStopEv) for cRtosTask_Example::OnStop()
    main.o(.constdata__ZTV8cRTOS_RRILh3EE) refers to main.o(.constdata__ZTI8cRTOS_RRILh3EE) for typeinfo for cRTOS_RR<(unsigned char)3>
    main.o(.constdata__ZTV8cRTOS_RRILh3EE) refers to main.o(t._ZN8cRTOS_RRILh3EE3addEj) for cRTOS_RR<(unsigned char)3>::add(unsigned)
    main.o(.constdata__ZTV8cRTOS_RRILh3EE) refers to main.o(t._ZN8cRTOS_RRILh3EE3delEi) for cRTOS_RR<(unsigned char)3>::del(int)
    main.o(.constdata__ZTV8cRTOS_RRILh3EE) refers to main.o(t._ZN8cRTOS_RRILh3EE3getEi) for cRTOS_RR<(unsigned char)3>::get(int)
    main.o(.constdata__ZTV8cRTOS_RRILh3EE) refers to main.o(t._ZN8cRTOS_RRILh3EE9schedulerEjb) for cRTOS_RR<(unsigned char)3>::scheduler(unsigned, bool)
    main.o(.constdata__ZTI6cHwDSI) refers to lib_rtti_impl.o(.constdata__ZTVN10__cxxabiv117__class_type_infoE) for vtable for __cxxabiv1::__class_type_info
    main.o(.constdata__ZTI6cHwDSI) refers to main.o(.constdata__ZTS6cHwDSI) for typeinfo name for cHwDSI
    main.o(.constdata__ZTI13cTask_Example) refers to lib_rtti_impl.o(.constdata__ZTVN10__cxxabiv120__si_class_type_infoE) for vtable for __cxxabiv1::__si_class_type_info
    main.o(.constdata__ZTI13cTask_Example) refers to main.o(.constdata__ZTS13cTask_Example) for typeinfo name for cTask_Example
    main.o(.constdata__ZTI13cTask_Example) refers to main.o(.constdata__ZTIN12cTaskHandler4TaskE) for typeinfo for cTaskHandler::Task
    main.o(.constdata__ZTI17cRtosTask_Example) refers to lib_rtti_impl.o(.constdata__ZTVN10__cxxabiv120__si_class_type_infoE) for vtable for __cxxabiv1::__si_class_type_info
    main.o(.constdata__ZTI17cRtosTask_Example) refers to main.o(.constdata__ZTS17cRtosTask_Example) for typeinfo name for cRtosTask_Example
    main.o(.constdata__ZTI17cRtosTask_Example) refers to rtos.o(.constdata__ZTIN5cRTOS4TaskE) for typeinfo for cRTOS::Task
    main.o(.constdata__ZTI8cRTOS_RRILh3EE) refers to lib_rtti_impl.o(.constdata__ZTVN10__cxxabiv120__si_class_type_infoE) for vtable for __cxxabiv1::__si_class_type_info
    main.o(.constdata__ZTI8cRTOS_RRILh3EE) refers to main.o(.constdata__ZTS8cRTOS_RRILh3EE) for typeinfo name for cRTOS_RR<(unsigned char)3>
    main.o(.constdata__ZTI8cRTOS_RRILh3EE) refers to main.o(.constdata__ZTI5cRTOS) for typeinfo for cRTOS
    main.o(.constdata__ZTI5cRTOS) refers to lib_rtti_impl.o(.constdata__ZTVN10__cxxabiv117__class_type_infoE) for vtable for __cxxabiv1::__class_type_info
    main.o(.constdata__ZTI5cRTOS) refers to main.o(.constdata__ZTS5cRTOS) for typeinfo name for cRTOS
    main.o(.constdata__ZTIN12cTaskHandler4TaskE) refers to lib_rtti_impl.o(.constdata__ZTVN10__cxxabiv120__si_class_type_infoE) for vtable for __cxxabiv1::__si_class_type_info
    main.o(.constdata__ZTIN12cTaskHandler4TaskE) refers to main.o(.constdata__ZTSN12cTaskHandler4TaskE) for typeinfo name for cTaskHandler::Task
    main.o(.constdata__ZTIN12cTaskHandler4TaskE) refers to main.o(.constdata__ZTIN5cList4ItemE) for typeinfo for cList::Item
    main.o(.constdata__ZTIN5cList4ItemE) refers to lib_rtti_impl.o(.constdata__ZTVN10__cxxabiv117__class_type_infoE) for vtable for __cxxabiv1::__class_type_info
    main.o(.constdata__ZTIN5cList4ItemE) refers to main.o(.constdata__ZTSN5cList4ItemE) for typeinfo name for cList::Item
    main.o(.ARM.exidx) refers to main.o(i._ZN6cHwDSI10writeShortEhh) for i._ZN6cHwDSI10writeShortEhh
    main.o(.ARM.exidx) refers to main.o(i._ZN6cHwDSI9writeLongEPhj) for i._ZN6cHwDSI9writeLongEPhj
    main.o(.ARM.exidx) refers to main.o(i._ZN5cRTOS4Task8isActiveEv) for i._ZN5cRTOS4Task8isActiveEv
    main.o(.ARM.exidx) refers to main.o(i._ZN13cTask_Example6updateEv) for i._ZN13cTask_Example6updateEv
    main.o(i._ZN17cRtosTask_ExampleD0Ev) refers to rtos.o(i._ZN5cRTOS4TaskD2Ev) for cRTOS::Task::~Task__sub_object()
    main.o(i._ZN17cRtosTask_ExampleD0Ev) refers to h1_free.o(.text) for free
    main.o(.ARM.exidx) refers to main.o(i._ZN17cRtosTask_ExampleD0Ev) for i._ZN17cRtosTask_ExampleD0Ev
    main.o(i._ZN17cRtosTask_Example6updateEv) refers to lib.o(i._ZN6cTimer7timeoutEv) for cTimer::timeout()
    main.o(.ARM.exidx) refers to main.o(i._ZN17cRtosTask_Example6updateEv) for i._ZN17cRtosTask_Example6updateEv
    main.o(.ARM.exidx) refers to main.o(i._ZN17cRtosTask_Example6OnStopEv) for i._ZN17cRtosTask_Example6OnStopEv
    main.o(i._ZN17cRtosTask_Example7OnStartEv) refers to lib.o(i._ZN6cTimer5startEtt) for cTimer::start(unsigned short, unsigned short)
    main.o(.ARM.exidx) refers to main.o(i._ZN17cRtosTask_Example7OnStartEv) for i._ZN17cRtosTask_Example7OnStartEv
    main.o(.ARM.exidx) refers to main.o(t._ZN8cRTOS_RRILh3EE3addEj) for t._ZN8cRTOS_RRILh3EE3addEj
    main.o(.ARM.exidx) refers to main.o(t._ZN8cRTOS_RRILh3EE3delEi) for t._ZN8cRTOS_RRILh3EE3delEi
    main.o(.ARM.exidx) refers to main.o(t._ZN8cRTOS_RRILh3EE3getEi) for t._ZN8cRTOS_RRILh3EE3getEi
    main.o(.ARM.exidx) refers to main.o(t._ZN8cRTOS_RRILh3EE9schedulerEjb) for t._ZN8cRTOS_RRILh3EE9schedulerEjb
    lib.o(.constdata__ZTV8cHwTimer) refers to lib.o(.constdata__ZTI8cHwTimer) for typeinfo for cHwTimer
    lib.o(.constdata__ZTV8cHwTimer) refers to lib.o(i._ZN8cHwTimer12getCycleTimeEv) for cHwTimer::getCycleTime()
    lib.o(.constdata__ZTV8cHwTimer) refers to lib.o(i._ZN8cHwTimer3addEPN5cList4ItemE) for cHwTimer::add(cList::Item*)
    lib.o(.constdata__ZTV8cHwTimer) refers to lib.o(i.__cxa_pure_virtual) for __cxa_pure_virtual
    lib.o(.constdata__ZTV8cHwTimer) refers to lib.o(i._ZN8cHwTimer10isrHandlerEv) for cHwTimer::isrHandler()
    lib.o(.constdata__ZTV11cHwEthernet) refers to lib.o(.constdata__ZTI11cHwEthernet) for typeinfo for cHwEthernet
    lib.o(.constdata__ZTV11cHwEthernet) refers to lib.o(i._ZN11cHwEthernet6updateEv) for cHwEthernet::update()
    lib.o(.constdata__ZTV11cHwEthernet) refers to lib.o(i.__cxa_pure_virtual) for __cxa_pure_virtual
    lib.o(.constdata__ZTV15cHwEthernet_MCU) refers to lib.o(.constdata__ZTI15cHwEthernet_MCU) for typeinfo for cHwEthernet_MCU
    lib.o(.constdata__ZTV15cHwEthernet_MCU) refers to lib.o(i._ZN11cHwEthernet6updateEv) for cHwEthernet::update()
    lib.o(.constdata__ZTV15cHwEthernet_MCU) refers to lib.o(i._ZN15cHwEthernet_MCU6createE8cNetAddrILh6EEt) for cHwEthernet_MCU::create(cNetAddr<(unsigned char)6>, unsigned short)
    lib.o(.constdata__ZTV15cHwEthernet_MCU) refers to lib.o(i._ZN15cHwEthernet_MCU10PacketSendEPht) for cHwEthernet_MCU::PacketSend(unsigned char*, unsigned short)
    lib.o(.constdata__ZTV15cHwEthernet_MCU) refers to lib.o(i._ZN15cHwEthernet_MCU13PacketReceiveEv) for cHwEthernet_MCU::PacketReceive()
    lib.o(.constdata__ZTV15cHwEthernet_MCU) refers to lib.o(i._ZN15cHwEthernet_MCU7getTypeEv) for cHwEthernet_MCU::getType()
    lib.o(.constdata__ZTVN12cHwI2Cmaster6DeviceE) refers to lib.o(.constdata__ZTIN12cHwI2Cmaster6DeviceE) for typeinfo for cHwI2Cmaster::Device
    lib.o(.constdata__ZTVN12cHwI2Cmaster6DeviceE) refers to lib.o(i._ZN12cHwI2Cmaster6Device4readEv) for cHwI2Cmaster::Device::read()
    lib.o(.constdata__ZTVN12cHwI2Cmaster6DeviceE) refers to lib.o(i._ZN12cHwI2Cmaster6Device4readEh) for cHwI2Cmaster::Device::read(unsigned char)
    lib.o(.constdata__ZTVN12cHwI2Cmaster6DeviceE) refers to lib.o(i._ZN12cHwI2Cmaster6Device4readEt) for cHwI2Cmaster::Device::read(unsigned short)
    lib.o(.constdata__ZTVN12cHwI2Cmaster6DeviceE) refers to lib.o(i._ZN12cHwI2Cmaster6Device4readEPhh) for cHwI2Cmaster::Device::read(unsigned char*, unsigned char)
    lib.o(.constdata__ZTVN12cHwI2Cmaster6DeviceE) refers to lib.o(i._ZN12cHwI2Cmaster6Device4readEhPhh) for cHwI2Cmaster::Device::read(unsigned char, unsigned char*, unsigned char)
    lib.o(.constdata__ZTVN12cHwI2Cmaster6DeviceE) refers to lib.o(i._ZN12cHwI2Cmaster6Device4readEtPhh) for cHwI2Cmaster::Device::read(unsigned short, unsigned char*, unsigned char)
    lib.o(.constdata__ZTVN12cHwI2Cmaster6DeviceE) refers to lib.o(i._ZN12cHwI2Cmaster6Device5writeEh) for cHwI2Cmaster::Device::write(unsigned char)
    lib.o(.constdata__ZTVN12cHwI2Cmaster6DeviceE) refers to lib.o(i._ZN12cHwI2Cmaster6Device5writeEhh) for cHwI2Cmaster::Device::write(unsigned char, unsigned char)
    lib.o(.constdata__ZTVN12cHwI2Cmaster6DeviceE) refers to lib.o(i._ZN12cHwI2Cmaster6Device5writeEth) for cHwI2Cmaster::Device::write(unsigned short, unsigned char)
    lib.o(.constdata__ZTVN12cHwI2Cmaster6DeviceE) refers to lib.o(i._ZN12cHwI2Cmaster6Device5writeEPhh) for cHwI2Cmaster::Device::write(unsigned char*, unsigned char)
    lib.o(.constdata__ZTVN12cHwI2Cmaster6DeviceE) refers to lib.o(i._ZN12cHwI2Cmaster6Device5writeEhPhh) for cHwI2Cmaster::Device::write(unsigned char, unsigned char*, unsigned char)
    lib.o(.constdata__ZTVN12cHwI2Cmaster6DeviceE) refers to lib.o(i._ZN12cHwI2Cmaster6Device5writeEtPhh) for cHwI2Cmaster::Device::write(unsigned short, unsigned char*, unsigned char)
    lib.o(.constdata__ZTVN12cHwI2Cmaster6DeviceE) refers to lib.o(i._ZN12cHwI2Cmaster6Device7isErrorEv) for cHwI2Cmaster::Device::isError()
    lib.o(.constdata__ZTV12cHwI2Cmaster) refers to lib.o(.constdata__ZTI12cHwI2Cmaster) for typeinfo for cHwI2Cmaster
    lib.o(.constdata__ZTV12cHwI2Cmaster) refers to lib.o(i._ZN12cHwI2Cmaster5writeEhPhhS0_h) for cHwI2Cmaster::write(unsigned char, unsigned char*, unsigned char, unsigned char*, unsigned char)
    lib.o(.constdata__ZTV12cHwI2Cmaster) refers to lib.o(i._ZN12cHwI2Cmaster4readEhPhhS0_h) for cHwI2Cmaster::read(unsigned char, unsigned char*, unsigned char, unsigned char*, unsigned char)
    lib.o(.constdata__ZTV12cHwI2Cmaster) refers to lib.o(i.__cxa_pure_virtual) for __cxa_pure_virtual
    lib.o(.constdata__ZTV14cHwI2Cmaster_N) refers to lib.o(.constdata__ZTI14cHwI2Cmaster_N) for typeinfo for cHwI2Cmaster_N
    lib.o(.constdata__ZTV14cHwI2Cmaster_N) refers to lib.o(i._ZN14cHwI2Cmaster_N5writeEhPhhS0_h) for cHwI2Cmaster_N::write(unsigned char, unsigned char*, unsigned char, unsigned char*, unsigned char)
    lib.o(.constdata__ZTV14cHwI2Cmaster_N) refers to lib.o(i._ZN14cHwI2Cmaster_N4readEhPhhS0_h) for cHwI2Cmaster_N::read(unsigned char, unsigned char*, unsigned char, unsigned char*, unsigned char)
    lib.o(.constdata__ZTV14cHwI2Cmaster_N) refers to lib.o(i._ZN14cHwI2Cmaster_N5startEv) for cHwI2Cmaster_N::start()
    lib.o(.constdata__ZTV14cHwI2Cmaster_N) refers to lib.o(i._ZN14cHwI2Cmaster_N4stopEv) for cHwI2Cmaster_N::stop()
    lib.o(.constdata__ZTV14cHwI2Cmaster_N) refers to lib.o(i._ZN14cHwI2Cmaster_N8sendAddrEh) for cHwI2Cmaster_N::sendAddr(unsigned char)
    lib.o(.constdata__ZTV14cHwI2Cmaster_N) refers to lib.o(i._ZN14cHwI2Cmaster_N9writeByteEh) for cHwI2Cmaster_N::writeByte(unsigned char)
    lib.o(.constdata__ZTV14cHwI2Cmaster_N) refers to lib.o(i._ZN14cHwI2Cmaster_N11readByteAckEv) for cHwI2Cmaster_N::readByteAck()
    lib.o(.constdata__ZTV14cHwI2Cmaster_N) refers to lib.o(i._ZN14cHwI2Cmaster_N12readByteNackEv) for cHwI2Cmaster_N::readByteNack()
    lib.o(.constdata__ZTV14cHwI2Cmaster_N) refers to lib.o(i._ZN14cHwI2Cmaster_N11waitForAcknEj) for cHwI2Cmaster_N::waitForAckn(unsigned)
    lib.o(.constdata__ZTV9cHwPort_N) refers to lib.o(.constdata__ZTI9cHwPort_N) for typeinfo for cHwPort_N
    lib.o(.constdata__ZTV9cHwPort_N) refers to lib.o(i._ZN9cHwPort_N7setModeEjN7cHwPort4ModeE) for cHwPort_N::setMode(unsigned, cHwPort::Mode)
    lib.o(.constdata__ZTV9cHwPort_N) refers to lib.o(i._ZN9cHwPort_N10setPinModeEhN7cHwPort4ModeE) for cHwPort_N::setPinMode(unsigned char, cHwPort::Mode)
    lib.o(.constdata__ZTV9cHwPort_N) refers to lib.o(i._ZN9cHwPort_N3setEj) for cHwPort_N::set(unsigned)
    lib.o(.constdata__ZTV9cHwPort_N) refers to lib.o(i._ZN9cHwPort_N3setEjj) for cHwPort_N::set(unsigned, unsigned)
    lib.o(.constdata__ZTV9cHwPort_N) refers to lib.o(i._ZN9cHwPort_N3clrEj) for cHwPort_N::clr(unsigned)
    lib.o(.constdata__ZTV9cHwPort_N) refers to lib.o(i._ZN9cHwPort_N3getEv) for cHwPort_N::get()
    lib.o(.constdata__ZTV10cHwUSBdesc) refers to lib.o(.constdata__ZTI10cHwUSBdesc) for typeinfo for cHwUSBdesc
    lib.o(.constdata__ZTV10cHwUSBdesc) refers to lib.o(i.__cxa_pure_virtual) for __cxa_pure_virtual
    lib.o(.constdata__ZTV10cHwUSBdesc) refers to lib.o(i._ZN10cHwUSBdesc19getDescriptorDeviceEv) for cHwUSBdesc::getDescriptorDevice()
    lib.o(.constdata__ZTV10cHwUSBdesc) refers to lib.o(i._ZN10cHwUSBdesc19getDescriptorConfigEh) for cHwUSBdesc::getDescriptorConfig(unsigned char)
    lib.o(.constdata__ZTV10cHwUSBdesc) refers to lib.o(i._ZN10cHwUSBdesc22getDescriptorInterfaceEhh) for cHwUSBdesc::getDescriptorInterface(unsigned char, unsigned char)
    lib.o(.constdata__ZTV10cHwUSBdesc) refers to lib.o(i._ZN10cHwUSBdesc21getDescriptorEndpointEhhh) for cHwUSBdesc::getDescriptorEndpoint(unsigned char, unsigned char, unsigned char)
    lib.o(.constdata__ZTV10cHwUSBdesc) refers to lib.o(i._ZN10cHwUSBdesc16getDescriptorHIDEhhh) for cHwUSBdesc::getDescriptorHID(unsigned char, unsigned char, unsigned char)
    lib.o(.constdata__ZTV10cHwUSBdesc) refers to lib.o(i._ZN10cHwUSBdesc22getDescriptorHIDreportEhhh) for cHwUSBdesc::getDescriptorHIDreport(unsigned char, unsigned char, unsigned char)
    lib.o(.constdata__ZTV10cHwUSBdesc) refers to lib.o(i._ZN10cHwUSBdesc19getDescriptorStringEh) for cHwUSBdesc::getDescriptorString(unsigned char)
    lib.o(.constdata__ZTV10cHwUSBdesc) refers to lib.o(i._ZN10cHwUSBdesc17getMaxPacketSize0Ev) for cHwUSBdesc::getMaxPacketSize0()
    lib.o(.constdata__ZTV10cHwUSBdesc) refers to lib.o(i._ZN10cHwUSBdesc21getConfigDeviceStatusEh) for cHwUSBdesc::getConfigDeviceStatus(unsigned char)
    lib.o(.constdata__ZTVN13cNetTransport6SocketE) refers to lib.o(.constdata__ZTIN13cNetTransport6SocketE) for typeinfo for cNetTransport::Socket
    lib.o(.constdata__ZTVN13cNetTransport6SocketE) refers to lib.o(i._ZN13cNetTransport6Socket6updateEv) for cNetTransport::Socket::update()
    lib.o(.constdata__ZTVN13cNetTransport6SocketE) refers to lib.o(i.__cxa_pure_virtual) for __cxa_pure_virtual
    lib.o(.constdata__ZTVN13cNetTransport6SocketE) refers to lib.o(i._ZN13cNetTransport6Socket11openDefaultEv) for cNetTransport::Socket::openDefault()
    lib.o(.constdata__ZTVN13cNetTransport6SocketE) refers to lib.o(i._ZN13cNetTransport6Socket11getRemoteIPEv) for cNetTransport::Socket::getRemoteIP()
    lib.o(.constdata__ZTVN13cNetTransport6SocketE) refers to lib.o(i._ZN13cNetTransport6Socket8isServerEv) for cNetTransport::Socket::isServer()
    lib.o(.constdata__ZTVN13cNetTransport6SocketE) refers to lib.o(i._ZN13cNetTransport6Socket4fillEc) for cNetTransport::Socket::fill(char)
    lib.o(.constdata__ZTVN13cNetTransport6SocketE) refers to lib.o(i._ZN13cNetTransport6Socket4fillEPKc) for cNetTransport::Socket::fill(const char*)
    lib.o(.constdata__ZTVN13cNetTransport6SocketE) refers to lib.o(i._ZN13cNetTransport6Socket4fillEPKct) for cNetTransport::Socket::fill(const char*, unsigned short)
    lib.o(.constdata__ZTVN13cNetTransport6SocketE) refers to lib.o(i._ZN13cNetTransport6Socket10setTimeoutEtt) for cNetTransport::Socket::setTimeout(unsigned short, unsigned short)
    lib.o(.constdata__ZTV13cNetTransport) refers to lib.o(.constdata__ZTI13cNetTransport) for typeinfo for cNetTransport
    lib.o(.constdata__ZTV13cNetTransport) refers to lib.o(i._ZN13cNetTransport7processEv) for cNetTransport::process()
    lib.o(.constdata__ZTV13cNetTransport) refers to lib.o(i._ZN13cNetTransport6updateEv) for cNetTransport::update()
    lib.o(.constdata__ZTV13cNetTransport) refers to lib.o(i._ZN13cNetTransport7timeoutEv) for cNetTransport::timeout()
    lib.o(.constdata__ZTV13cNetTransport) refers to lib.o(i.__cxa_pure_virtual) for __cxa_pure_virtual
    lib.o(.constdata__ZTV7cNetUDP) refers to lib.o(.constdata__ZTI7cNetUDP) for typeinfo for cNetUDP
    lib.o(.constdata__ZTV7cNetUDP) refers to lib.o(i._ZN13cNetTransport7processEv) for cNetTransport::process()
    lib.o(.constdata__ZTV7cNetUDP) refers to lib.o(i._ZN13cNetTransport6updateEv) for cNetTransport::update()
    lib.o(.constdata__ZTV7cNetUDP) refers to lib.o(i._ZN13cNetTransport7timeoutEv) for cNetTransport::timeout()
    lib.o(.constdata__ZTV7cNetUDP) refers to lib.o(i._ZN7cNetUDP7getAddrEv) for cNetUDP::getAddr()
    lib.o(.constdata__ZTV7cNetUDP) refers to lib.o(i._ZN7cNetUDP10getAddrPhyEv) for cNetUDP::getAddrPhy()
    lib.o(.constdata__ZTV7cNetUDP) refers to lib.o(i._ZN7cNetUDP9handleARPE8cNetAddrILh4EES0_ILh6EE) for cNetUDP::handleARP(cNetAddr<(unsigned char)4>, cNetAddr<(unsigned char)6>)
    lib.o(.constdata__ZTV8cNetDHCP) refers to lib.o(.constdata__ZTI8cNetDHCP) for typeinfo for cNetDHCP
    lib.o(.constdata__ZTV8cNetDHCP) refers to lib.o(i._ZN15cNetApplication6updateEv) for cNetApplication::update()
    lib.o(.constdata__ZTV8cNetDHCP) refers to lib.o(i._ZN8cNetDHCP9OnReceiveEv) for cNetDHCP::OnReceive()
    lib.o(.constdata__ZTV8cNetDHCP) refers to lib.o(i._ZN8cNetDHCP7OnErrorEv) for cNetDHCP::OnError()
    lib.o(.constdata__ZTV8cNetDHCP) refers to lib.o(i._ZN8cNetDHCP8OnUpdateEv) for cNetDHCP::OnUpdate()
    lib.o(.constdata__ZTV8cNetDHCP) refers to lib.o(i._ZN8cNetDHCP9OnTimeoutEv) for cNetDHCP::OnTimeout()
    lib.o(.constdata__ZTV8cNetDHCP) refers to lib.o(i._ZN15cNetApplication10setTimeoutEtt) for cNetApplication::setTimeout(unsigned short, unsigned short)
    lib.o(.constdata__ZTV7cNetTCP) refers to lib.o(.constdata__ZTI7cNetTCP) for typeinfo for cNetTCP
    lib.o(.constdata__ZTV7cNetTCP) refers to lib.o(i._ZN13cNetTransport7processEv) for cNetTransport::process()
    lib.o(.constdata__ZTV7cNetTCP) refers to lib.o(i._ZN13cNetTransport6updateEv) for cNetTransport::update()
    lib.o(.constdata__ZTV7cNetTCP) refers to lib.o(i._ZN13cNetTransport7timeoutEv) for cNetTransport::timeout()
    lib.o(.constdata__ZTV7cNetTCP) refers to lib.o(i._ZN7cNetTCP7getAddrEv) for cNetTCP::getAddr()
    lib.o(.constdata__ZTV7cNetTCP) refers to lib.o(i._ZN7cNetTCP10getAddrPhyEv) for cNetTCP::getAddrPhy()
    lib.o(.constdata__ZTV7cNetTCP) refers to lib.o(i._ZN7cNetTCP9handleARPE8cNetAddrILh4EES0_ILh6EE) for cNetTCP::handleARP(cNetAddr<(unsigned char)4>, cNetAddr<(unsigned char)6>)
    lib.o(.constdata__ZTV11cDevDigital) refers to lib.o(.constdata__ZTI11cDevDigital) for typeinfo for cDevDigital
    lib.o(.constdata__ZTV11cDevDigital) refers to lib.o(i._ZN11cDevDigital7setModeENS_4ModeE) for cDevDigital::setMode(cDevDigital::Mode)
    lib.o(.constdata__ZTV11cDevDigital) refers to lib.o(i._ZN11cDevDigital3setEb) for cDevDigital::set(bool)
    lib.o(.constdata__ZTV11cDevDigital) refers to lib.o(i._ZN11cDevDigital3setEv) for cDevDigital::set()
    lib.o(.constdata__ZTV11cDevDigital) refers to lib.o(i._ZN11cDevDigital3clrEv) for cDevDigital::clr()
    lib.o(.constdata__ZTV11cDevDigital) refers to lib.o(i._ZN11cDevDigital6toggleEv) for cDevDigital::toggle()
    lib.o(.constdata__ZTV11cDevDigital) refers to lib.o(i._ZN11cDevDigital3getEv) for cDevDigital::get()
    lib.o(.constdata__ZTV11cDevDigital) refers to lib.o(i._ZN11cDevDigital8getEventEv) for cDevDigital::getEvent()
    lib.o(.constdata__ZTV11cDevDigital) refers to lib.o(i._ZN11cDevDigitalaSEb) for cDevDigital::operator =(bool)
    lib.o(.constdata__ZTV11cDevDigital) refers to lib.o(i._ZN11cDevDigitalaSERS_) for cDevDigital::operator =(cDevDigital&)
    lib.o(.constdata__ZTV11cDevDigital) refers to lib.o(i._ZN11cDevDigitalcvbEv) for cDevDigital::operator bool()
    lib.o(.constdata__ZTV20cDevDigitalIndicator) refers to lib.o(.constdata__ZTI20cDevDigitalIndicator) for typeinfo for cDevDigitalIndicator
    lib.o(.constdata__ZTV20cDevDigitalIndicator) refers to lib.o(i._ZN20cDevDigitalIndicator6updateEv) for cDevDigitalIndicator::update()
    lib.o(.constdata__ZTV20cDevDigitalIndicator) refers to lib.o(i._ZN20cDevDigitalIndicator3setEv) for cDevDigitalIndicator::set()
    lib.o(.constdata__ZTV20cDevDigitalIndicator) refers to lib.o(i._ZN20cDevDigitalIndicator3clrEv) for cDevDigitalIndicator::clr()
    lib.o(.constdata__ZTV20cDevDigitalIndicator) refers to lib.o(i._ZN20cDevDigitalIndicator7triggerEt) for cDevDigitalIndicator::trigger(unsigned short)
    lib.o(.constdata__ZTV17cHwDisplayGraphic) refers to lib.o(.constdata__ZTI17cHwDisplayGraphic) for typeinfo for cHwDisplayGraphic
    lib.o(.constdata__ZTV17cHwDisplayGraphic) refers to lib.o(i.__cxa_pure_virtual) for __cxa_pure_virtual
    lib.o(.constdata__ZTV17cHwDisplayGraphic) refers to lib.o(i._ZN17cHwDisplayGraphic7refreshEv) for cHwDisplayGraphic::refresh()
    lib.o(.constdata__ZTV17cHwDisplayGraphic) refers to lib.o(i._ZN17cHwDisplayGraphic11gotoTextPosEhh) for cHwDisplayGraphic::gotoTextPos(unsigned char, unsigned char)
    lib.o(.constdata__ZTV17cHwDisplayGraphic) refers to lib.o(i._ZN17cHwDisplayGraphic7putCharEc) for cHwDisplayGraphic::putChar(char)
    lib.o(.constdata__ZTV17cHwDisplayGraphic) refers to lib.o(i._ZN10cHwDisplay16getNumberOfLinesEv) for cHwDisplay::getNumberOfLines()
    lib.o(.constdata__ZTV17cHwDisplayGraphic) refers to lib.o(i._ZN10cHwDisplay18getNumberOfColumnsEv) for cHwDisplay::getNumberOfColumns()
    lib.o(.constdata__ZTV17cHwDisplayGraphic) refers to lib.o(i._ZN17cHwDisplayGraphic7setFontE14cHwDisplayFonth) for cHwDisplayGraphic::setFont(cHwDisplayFont, unsigned char)
    lib.o(.constdata__ZTV17cHwDisplayGraphic) refers to lib.o(i._ZN17cHwDisplayGraphic7setZoomEh) for cHwDisplayGraphic::setZoom(unsigned char)
    lib.o(.constdata__ZTV17cHwDisplayGraphic) refers to lib.o(i._ZN17cHwDisplayGraphic12setBackColorEt) for cHwDisplayGraphic::setBackColor(unsigned short)
    lib.o(.constdata__ZTV17cHwDisplayGraphic) refers to lib.o(i._ZN17cHwDisplayGraphic13setPaintColorEt) for cHwDisplayGraphic::setPaintColor(unsigned short)
    lib.o(.constdata__ZTV17cHwDisplayGraphic) refers to lib.o(i._ZN17cHwDisplayGraphic12setTextColorEt) for cHwDisplayGraphic::setTextColor(unsigned short)
    lib.o(.constdata__ZTV17cHwDisplayGraphic) refers to lib.o(i._ZN17cHwDisplayGraphic12gotoPixelPosEtt) for cHwDisplayGraphic::gotoPixelPos(unsigned short, unsigned short)
    lib.o(.constdata__ZTV17cHwDisplayGraphic) refers to lib.o(i._ZN17cHwDisplayGraphic8putPixelEtt) for cHwDisplayGraphic::putPixel(unsigned short, unsigned short)
    lib.o(.constdata__ZTV17cHwDisplayGraphic) refers to lib.o(i._ZN17cHwDisplayGraphic12putRectangleEtttt) for cHwDisplayGraphic::putRectangle(unsigned short, unsigned short, unsigned short, unsigned short)
    lib.o(.constdata__ZTV17cHwDisplayGraphic) refers to lib.o(i._ZN17cHwDisplayGraphic9putBitmapEttttPKt) for cHwDisplayGraphic::putBitmap(unsigned short, unsigned short, unsigned short, unsigned short, const unsigned short*)
    lib.o(.constdata__ZTV17cHwDisplayGraphic) refers to lib.o(i._ZN17cHwDisplayGraphic14getDefaultFontEv) for cHwDisplayGraphic::getDefaultFont()
    lib.o(.constdata__ZTV17cHwDisplayGraphic) refers to lib.o(i._ZN17cHwDisplayGraphic8getWidthEv) for cHwDisplayGraphic::getWidth()
    lib.o(.constdata__ZTV17cHwDisplayGraphic) refers to lib.o(i._ZN17cHwDisplayGraphic9getHeightEv) for cHwDisplayGraphic::getHeight()
    lib.o(.constdata__ZTV18cDevDisplayGraphic) refers to lib.o(.constdata__ZTI18cDevDisplayGraphic) for typeinfo for cDevDisplayGraphic
    lib.o(.constdata__ZTV18cDevDisplayGraphic) refers to lib.o(i._ZN18cDevDisplayGraphic5clearEv) for cDevDisplayGraphic::clear()
    lib.o(.constdata__ZTV18cDevDisplayGraphic) refers to lib.o(i._ZN18cDevDisplayGraphic7refreshEv) for cDevDisplayGraphic::refresh()
    lib.o(.constdata__ZTV18cDevDisplayGraphic) refers to lib.o(i._ZN18cDevDisplayGraphic6printfEhhhPKcz) for cDevDisplayGraphic::printf(unsigned char, unsigned char, unsigned char, const char*, ...)
    lib.o(.constdata__ZTV18cDevDisplayGraphic) refers to lib.o(i._ZN18cDevDisplayGraphic7setFontE14cHwDisplayFonth) for cDevDisplayGraphic::setFont(cHwDisplayFont, unsigned char)
    lib.o(.constdata__ZTV18cDevDisplayGraphic) refers to lib.o(i._ZN18cDevDisplayGraphic7setZoomEh) for cDevDisplayGraphic::setZoom(unsigned char)
    lib.o(.constdata__ZTV18cDevDisplayGraphic) refers to lib.o(i._ZN18cDevDisplayGraphic12setBackColorEt) for cDevDisplayGraphic::setBackColor(unsigned short)
    lib.o(.constdata__ZTV18cDevDisplayGraphic) refers to lib.o(i._ZN18cDevDisplayGraphic12setTextColorEt) for cDevDisplayGraphic::setTextColor(unsigned short)
    lib.o(.constdata__ZTV18cDevDisplayGraphic) refers to lib.o(i._ZN18cDevDisplayGraphic8drawTextEttPKc) for cDevDisplayGraphic::drawText(unsigned short, unsigned short, const char*)
    lib.o(.constdata__ZTV18cDevDisplayGraphic) refers to lib.o(i._ZN18cDevDisplayGraphic8drawTextEtthPKcz) for cDevDisplayGraphic::drawText(unsigned short, unsigned short, unsigned char, const char*, ...)
    lib.o(.constdata__ZTV18cDevDisplayGraphic) refers to lib.o(i._ZN18cDevDisplayGraphic9drawPixelEttt) for cDevDisplayGraphic::drawPixel(unsigned short, unsigned short, unsigned short)
    lib.o(.constdata__ZTV18cDevDisplayGraphic) refers to lib.o(i._ZN18cDevDisplayGraphic13drawRectangleEttttt) for cDevDisplayGraphic::drawRectangle(unsigned short, unsigned short, unsigned short, unsigned short, unsigned short)
    lib.o(.constdata__ZTV18cDevDisplayGraphic) refers to lib.o(i._ZN18cDevDisplayGraphic9drawFrameEtttttt) for cDevDisplayGraphic::drawFrame(unsigned short, unsigned short, unsigned short, unsigned short, unsigned short, unsigned short)
    lib.o(.constdata__ZTV18cDevDisplayGraphic) refers to lib.o(i._ZN18cDevDisplayGraphic10drawCircleEtttt) for cDevDisplayGraphic::drawCircle(unsigned short, unsigned short, unsigned short, unsigned short)
    lib.o(.constdata__ZTV18cDevDisplayGraphic) refers to lib.o(i._ZN18cDevDisplayGraphic8drawLineEtttttt) for cDevDisplayGraphic::drawLine(unsigned short, unsigned short, unsigned short, unsigned short, unsigned short, unsigned short)
    lib.o(.constdata__ZTV18cDevDisplayGraphic) refers to lib.o(i._ZN18cDevDisplayGraphic10drawBitmapEttttPKt) for cDevDisplayGraphic::drawBitmap(unsigned short, unsigned short, unsigned short, unsigned short, const unsigned short*)
    lib.o(.constdata__ZTV18cDevDisplayGraphic) refers to lib.o(i._ZN18cDevDisplayGraphic14getDefaultFontEv) for cDevDisplayGraphic::getDefaultFont()
    lib.o(.constdata__ZTV6cHwADC) refers to lib.o(.constdata__ZTI6cHwADC) for typeinfo for cHwADC
    lib.o(.constdata__ZTV6cHwADC) refers to lib.o(i._ZN6cHwADC6updateEv) for cHwADC::update()
    lib.o(.constdata__ZTV6cHwADC) refers to lib.o(i._ZN6cHwADC6enableEhh) for cHwADC::enable(unsigned char, unsigned char)
    lib.o(.constdata__ZTV6cHwADC) refers to lib.o(i._ZN6cHwADC3getEh) for cHwADC::get(unsigned char)
    lib.o(.constdata__ZTV6cHwADC) refers to lib.o(i._ZN6cHwADC19getNumberOfChannelsEv) for cHwADC::getNumberOfChannels()
    lib.o(.constdata__ZTV6cHwADC) refers to lib.o(i._ZN6cHwADC3isrEv) for cHwADC::isr()
    lib.o(.constdata__ZTV6cHwADC) refers to lib.o(i.__cxa_pure_virtual) for __cxa_pure_virtual
    lib.o(.constdata__ZTV8cHwADC_0) refers to lib.o(.constdata__ZTI8cHwADC_0) for typeinfo for cHwADC_0
    lib.o(.constdata__ZTV8cHwADC_0) refers to lib.o(i._ZN6cHwADC6updateEv) for cHwADC::update()
    lib.o(.constdata__ZTV8cHwADC_0) refers to lib.o(i._ZN6cHwADC6enableEhh) for cHwADC::enable(unsigned char, unsigned char)
    lib.o(.constdata__ZTV8cHwADC_0) refers to lib.o(i._ZN6cHwADC3getEh) for cHwADC::get(unsigned char)
    lib.o(.constdata__ZTV8cHwADC_0) refers to lib.o(i._ZN6cHwADC19getNumberOfChannelsEv) for cHwADC::getNumberOfChannels()
    lib.o(.constdata__ZTV8cHwADC_0) refers to lib.o(i._ZN6cHwADC3isrEv) for cHwADC::isr()
    lib.o(.constdata__ZTV8cHwADC_0) refers to lib.o(i._ZN8cHwADC_09getResultEv) for cHwADC_0::getResult()
    lib.o(.constdata__ZTV8cHwADC_0) refers to lib.o(i._ZN8cHwADC_07startChEh) for cHwADC_0::startCh(unsigned char)
    lib.o(.constdata__ZTV8cHwADC_0) refers to lib.o(i._ZN8cHwADC_08configChEhh) for cHwADC_0::configCh(unsigned char, unsigned char)
    lib.o(.constdata__ZTV15cHwMemory_Flash) refers to lib.o(.constdata__ZTI15cHwMemory_Flash) for typeinfo for cHwMemory_Flash
    lib.o(.constdata__ZTV15cHwMemory_Flash) refers to lib.o(i._ZN15cHwMemory_Flash6unlockEv) for cHwMemory_Flash::unlock()
    lib.o(.constdata__ZTV15cHwMemory_Flash) refers to lib.o(i._ZN15cHwMemory_Flash4lockEv) for cHwMemory_Flash::lock()
    lib.o(.constdata__ZTV15cHwMemory_Flash) refers to lib.o(i._ZN9cHwMemory5writeEjh) for cHwMemory::write(unsigned, unsigned char)
    lib.o(.constdata__ZTV15cHwMemory_Flash) refers to lib.o(i._ZN9cHwMemory4readEj) for cHwMemory::read(unsigned)
    lib.o(.constdata__ZTV15cHwMemory_Flash) refers to lib.o(i._ZN15cHwMemory_Flash5clearEj) for cHwMemory_Flash::clear(unsigned)
    lib.o(.constdata__ZTV15cHwMemory_Flash) refers to lib.o(i._ZN9cHwMemory7getSizeEv) for cHwMemory::getSize()
    lib.o(.constdata__ZTV15cHwMemory_Flash) refers to lib.o(i._ZN9cHwMemory7isFlashEv) for cHwMemory::isFlash()
    lib.o(.constdata__ZTV15cHwMemory_Flash) refers to lib.o(i._ZN15cHwMemory_Flash9writeByteEjh) for cHwMemory_Flash::writeByte(unsigned, unsigned char)
    lib.o(.constdata__ZTV15cHwMemory_Flash) refers to lib.o(i._ZN15cHwMemory_Flash8readByteEj) for cHwMemory_Flash::readByte(unsigned)
    lib.o(.constdata__ZTV8cHwRTC_0) refers to lib.o(.constdata__ZTI8cHwRTC_0) for typeinfo for cHwRTC_0
    lib.o(.constdata__ZTV8cHwRTC_0) refers to lib.o(i._ZN8cHwRTC_03setERKN6cHwRTC10PropertiesE) for cHwRTC_0::set(const cHwRTC::Properties&)
    lib.o(.constdata__ZTV8cHwRTC_0) refers to lib.o(i._ZN8cHwRTC_03getERN6cHwRTC10PropertiesE) for cHwRTC_0::get(cHwRTC::Properties&)
    lib.o(.constdata__ZTV10cHwTimer_N) refers to lib.o(.constdata__ZTI10cHwTimer_N) for typeinfo for cHwTimer_N
    lib.o(.constdata__ZTV10cHwTimer_N) refers to lib.o(i._ZN8cHwTimer12getCycleTimeEv) for cHwTimer::getCycleTime()
    lib.o(.constdata__ZTV10cHwTimer_N) refers to lib.o(i._ZN8cHwTimer3addEPN5cList4ItemE) for cHwTimer::add(cList::Item*)
    lib.o(.constdata__ZTV10cHwTimer_N) refers to lib.o(i._ZN10cHwTimer_N9enablePWMEhN8cHwTimer4ModeE) for cHwTimer_N::enablePWM(unsigned char, cHwTimer::Mode)
    lib.o(.constdata__ZTV10cHwTimer_N) refers to lib.o(i._ZN10cHwTimer_N6setPWMEth) for cHwTimer_N::setPWM(unsigned short, unsigned char)
    lib.o(.constdata__ZTV10cHwTimer_N) refers to lib.o(i._ZN8cHwTimer10isrHandlerEv) for cHwTimer::isrHandler()
    lib.o(.constdata__ZTV7cHwUART) refers to lib.o(.constdata__ZTI7cHwUART) for typeinfo for cHwUART
    lib.o(.constdata__ZTV7cHwUART) refers to lib.o(i._ZN7cHwUART3setEh) for cHwUART::set(unsigned char)
    lib.o(.constdata__ZTV7cHwUART) refers to lib.o(i._ZN7cHwUART3setEPKhh) for cHwUART::set(const unsigned char*, unsigned char)
    lib.o(.constdata__ZTV7cHwUART) refers to lib.o(i._ZN7cHwUART3setEPKc) for cHwUART::set(const char*)
    lib.o(.constdata__ZTV7cHwUART) refers to lib.o(i._ZN7cHwUART14isTxBufferFullEv) for cHwUART::isTxBufferFull()
    lib.o(.constdata__ZTV7cHwUART) refers to lib.o(i._ZN7cHwUART3getEPh) for cHwUART::get(unsigned char*)
    lib.o(.constdata__ZTV7cHwUART) refers to lib.o(i._ZN7cHwUART3getEv) for cHwUART::get()
    lib.o(.constdata__ZTV7cHwUART) refers to lib.o(i._ZN7cHwUART5isrRxEv) for cHwUART::isrRx()
    lib.o(.constdata__ZTV7cHwUART) refers to lib.o(i._ZN7cHwUART5isrTxEv) for cHwUART::isrTx()
    lib.o(.constdata__ZTV7cHwUART) refers to lib.o(i._ZN7cHwUART12transmitByteEh) for cHwUART::transmitByte(unsigned char)
    lib.o(.constdata__ZTV7cHwUART) refers to lib.o(i.__cxa_pure_virtual) for __cxa_pure_virtual
    lib.o(.constdata__ZTV6cHwUSB) refers to lib.o(.constdata__ZTI6cHwUSB) for typeinfo for cHwUSB
    lib.o(.constdata__ZTV6cHwUSB) refers to lib.o(i._ZN6cHwUSB12eventHandlerEhh) for cHwUSB::eventHandler(unsigned char, unsigned char)
    lib.o(.constdata__ZTV6cHwUSB) refers to lib.o(i.__cxa_pure_virtual) for __cxa_pure_virtual
    lib.o(.constdata__ZTV8cHwUSB_0) refers to lib.o(.constdata__ZTI8cHwUSB_0) for typeinfo for cHwUSB_0
    lib.o(.constdata__ZTV8cHwUSB_0) refers to lib.o(i._ZN6cHwUSB12eventHandlerEhh) for cHwUSB::eventHandler(unsigned char, unsigned char)
    lib.o(.constdata__ZTV8cHwUSB_0) refers to lib.o(i._ZN8cHwUSB_05startEv) for cHwUSB_0::start()
    lib.o(.constdata__ZTV8cHwUSB_0) refers to lib.o(i._ZN8cHwUSB_05resetEv) for cHwUSB_0::reset()
    lib.o(.constdata__ZTV8cHwUSB_0) refers to lib.o(i._ZN8cHwUSB_09configureEh) for cHwUSB_0::configure(unsigned char)
    lib.o(.constdata__ZTV8cHwUSB_0) refers to lib.o(i._ZN8cHwUSB_010setAddressEh) for cHwUSB_0::setAddress(unsigned char)
    lib.o(.constdata__ZTV8cHwUSB_0) refers to lib.o(i._ZN8cHwUSB_08configEPEhth) for cHwUSB_0::configEP(unsigned char, unsigned short, unsigned char)
    lib.o(.constdata__ZTV8cHwUSB_0) refers to lib.o(i._ZN8cHwUSB_010setStallEPEh) for cHwUSB_0::setStallEP(unsigned char)
    lib.o(.constdata__ZTV8cHwUSB_0) refers to lib.o(i._ZN8cHwUSB_010clrStallEPEh) for cHwUSB_0::clrStallEP(unsigned char)
    lib.o(.constdata__ZTV8cHwUSB_0) refers to lib.o(i._ZN8cHwUSB_06readEPEhPht) for cHwUSB_0::readEP(unsigned char, unsigned char*, unsigned short)
    lib.o(.constdata__ZTV8cHwUSB_0) refers to lib.o(i._ZN8cHwUSB_07writeEPEhPht) for cHwUSB_0::writeEP(unsigned char, unsigned char*, unsigned short)
    lib.o(.constdata__ZTV17cHwI2Cmaster_Emul) refers to lib.o(.constdata__ZTI17cHwI2Cmaster_Emul) for typeinfo for cHwI2Cmaster_Emul
    lib.o(.constdata__ZTV17cHwI2Cmaster_Emul) refers to lib.o(i._ZN12cHwI2Cmaster5writeEhPhhS0_h) for cHwI2Cmaster::write(unsigned char, unsigned char*, unsigned char, unsigned char*, unsigned char)
    lib.o(.constdata__ZTV17cHwI2Cmaster_Emul) refers to lib.o(i._ZN12cHwI2Cmaster4readEhPhhS0_h) for cHwI2Cmaster::read(unsigned char, unsigned char*, unsigned char, unsigned char*, unsigned char)
    lib.o(.constdata__ZTV17cHwI2Cmaster_Emul) refers to lib.o(i._ZN17cHwI2Cmaster_Emul5startEv) for cHwI2Cmaster_Emul::start()
    lib.o(.constdata__ZTV17cHwI2Cmaster_Emul) refers to lib.o(i._ZN17cHwI2Cmaster_Emul4stopEv) for cHwI2Cmaster_Emul::stop()
    lib.o(.constdata__ZTV17cHwI2Cmaster_Emul) refers to lib.o(i._ZN17cHwI2Cmaster_Emul8sendAddrEh) for cHwI2Cmaster_Emul::sendAddr(unsigned char)
    lib.o(.constdata__ZTV17cHwI2Cmaster_Emul) refers to lib.o(i._ZN17cHwI2Cmaster_Emul9writeByteEh) for cHwI2Cmaster_Emul::writeByte(unsigned char)
    lib.o(.constdata__ZTV17cHwI2Cmaster_Emul) refers to lib.o(i._ZN17cHwI2Cmaster_Emul11readByteAckEv) for cHwI2Cmaster_Emul::readByteAck()
    lib.o(.constdata__ZTV17cHwI2Cmaster_Emul) refers to lib.o(i._ZN17cHwI2Cmaster_Emul12readByteNackEv) for cHwI2Cmaster_Emul::readByteNack()
    lib.o(.constdata__ZTV17cHwI2Cmaster_Emul) refers to lib.o(i._ZN17cHwI2Cmaster_Emul11waitForAcknEv) for cHwI2Cmaster_Emul::waitForAckn()
    lib.o(.constdata__ZTV17cHwI2Cmaster_Emul) refers to lib.o(i._ZN17cHwI2Cmaster_Emul4waitEv) for cHwI2Cmaster_Emul::wait()
    lib.o(.constdata__ZTVN12cHwSPImaster6DeviceE) refers to lib.o(.constdata__ZTIN12cHwSPImaster6DeviceE) for typeinfo for cHwSPImaster::Device
    lib.o(.constdata__ZTVN12cHwSPImaster6DeviceE) refers to lib.o(i._ZN12cHwSPImaster6Device10transceiveEh) for cHwSPImaster::Device::transceive(unsigned char)
    lib.o(.constdata__ZTVN12cHwSPImaster6DeviceE) refers to lib.o(i._ZN12cHwSPImaster6Device10transceiveEPht) for cHwSPImaster::Device::transceive(unsigned char*, unsigned short)
    lib.o(.constdata__ZTVN12cHwSPImaster6DeviceE) refers to lib.o(i._ZN12cHwSPImaster6Device4readEv) for cHwSPImaster::Device::read()
    lib.o(.constdata__ZTVN12cHwSPImaster6DeviceE) refers to lib.o(i._ZN12cHwSPImaster6Device4readEPht) for cHwSPImaster::Device::read(unsigned char*, unsigned short)
    lib.o(.constdata__ZTVN12cHwSPImaster6DeviceE) refers to lib.o(i._ZN12cHwSPImaster6Device5writeEh) for cHwSPImaster::Device::write(unsigned char)
    lib.o(.constdata__ZTVN12cHwSPImaster6DeviceE) refers to lib.o(i._ZN12cHwSPImaster6Device5writeEt) for cHwSPImaster::Device::write(unsigned short)
    lib.o(.constdata__ZTVN12cHwSPImaster6DeviceE) refers to lib.o(i._ZN12cHwSPImaster6Device5writeEPht) for cHwSPImaster::Device::write(unsigned char*, unsigned short)
    lib.o(.constdata__ZTVN12cHwSPImaster6DeviceE) refers to lib.o(i._ZN12cHwSPImaster6Device8writeExtEhh) for cHwSPImaster::Device::writeExt(unsigned char, unsigned char)
    lib.o(.constdata__ZTVN12cHwSPImaster6DeviceE) refers to lib.o(i._ZN12cHwSPImaster6Device8writeExtEht) for cHwSPImaster::Device::writeExt(unsigned char, unsigned short)
    lib.o(.constdata__ZTV10cHwUSBctrl) refers to lib.o(.constdata__ZTI10cHwUSBctrl) for typeinfo for cHwUSBctrl
    lib.o(.constdata__ZTV10cHwUSBctrl) refers to lib.o(i._ZN10cHwUSBctrl5setupEv) for cHwUSBctrl::setup()
    lib.o(.constdata__ZTV10cHwUSBctrl) refers to lib.o(i._ZN10cHwUSBctrl3outEv) for cHwUSBctrl::out()
    lib.o(.constdata__ZTV10cHwUSBctrl) refers to lib.o(i._ZN10cHwUSBctrl2inEv) for cHwUSBctrl::in()
    lib.o(.constdata__ZTV10cHwUSBctrl) refers to lib.o(i._ZN10cHwUSBctrl5StallEv) for cHwUSBctrl::Stall()
    lib.o(.constdata__ZTVN7cNetUDP6SocketE) refers to lib.o(.constdata__ZTIN7cNetUDP6SocketE) for typeinfo for cNetUDP::Socket
    lib.o(.constdata__ZTVN7cNetUDP6SocketE) refers to lib.o(i._ZN7cNetUDP6Socket6updateEv) for cNetUDP::Socket::update()
    lib.o(.constdata__ZTVN7cNetUDP6SocketE) refers to lib.o(i._ZN7cNetUDP6Socket4openE8cNetAddrILh4EEt) for cNetUDP::Socket::open(cNetAddr<(unsigned char)4>, unsigned short)
    lib.o(.constdata__ZTVN7cNetUDP6SocketE) refers to lib.o(i._ZN13cNetTransport6Socket11openDefaultEv) for cNetTransport::Socket::openDefault()
    lib.o(.constdata__ZTVN7cNetUDP6SocketE) refers to lib.o(i._ZN7cNetUDP6Socket5closeEv) for cNetUDP::Socket::close()
    lib.o(.constdata__ZTVN7cNetUDP6SocketE) refers to lib.o(i._ZN7cNetUDP6Socket11isConnectedEv) for cNetUDP::Socket::isConnected()
    lib.o(.constdata__ZTVN7cNetUDP6SocketE) refers to lib.o(i._ZN7cNetUDP6Socket7isReadyEv) for cNetUDP::Socket::isReady()
    lib.o(.constdata__ZTVN7cNetUDP6SocketE) refers to lib.o(i._ZN13cNetTransport6Socket11getRemoteIPEv) for cNetTransport::Socket::getRemoteIP()
    lib.o(.constdata__ZTVN7cNetUDP6SocketE) refers to lib.o(i._ZN7cNetUDP6Socket5clearEv) for cNetUDP::Socket::clear()
    lib.o(.constdata__ZTVN7cNetUDP6SocketE) refers to lib.o(i._ZN7cNetUDP6Socket10getDataPtrEv) for cNetUDP::Socket::getDataPtr()
    lib.o(.constdata__ZTVN7cNetUDP6SocketE) refers to lib.o(i._ZN7cNetUDP6Socket13setDataLengthEt) for cNetUDP::Socket::setDataLength(unsigned short)
    lib.o(.constdata__ZTVN7cNetUDP6SocketE) refers to lib.o(i._ZN7cNetUDP6Socket4sendEv) for cNetUDP::Socket::send()
    lib.o(.constdata__ZTVN7cNetUDP6SocketE) refers to lib.o(i._ZN7cNetUDP6Socket3getEPc) for cNetUDP::Socket::get(char*)
    lib.o(.constdata__ZTVN7cNetUDP6SocketE) refers to lib.o(i._ZN13cNetTransport6Socket8isServerEv) for cNetTransport::Socket::isServer()
    lib.o(.constdata__ZTVN7cNetUDP6SocketE) refers to lib.o(i._ZN7cNetUDP6Socket10fillBufferEc) for cNetUDP::Socket::fillBuffer(char)
    lib.o(.constdata__ZTVN7cNetUDP6SocketE) refers to lib.o(i._ZN13cNetTransport6Socket4fillEc) for cNetTransport::Socket::fill(char)
    lib.o(.constdata__ZTVN7cNetUDP6SocketE) refers to lib.o(i._ZN13cNetTransport6Socket4fillEPKc) for cNetTransport::Socket::fill(const char*)
    lib.o(.constdata__ZTVN7cNetUDP6SocketE) refers to lib.o(i._ZN13cNetTransport6Socket4fillEPKct) for cNetTransport::Socket::fill(const char*, unsigned short)
    lib.o(.constdata__ZTVN7cNetUDP6SocketE) refers to lib.o(i._ZN7cNetUDP6Socket7processEv) for cNetUDP::Socket::process()
    lib.o(.constdata__ZTVN7cNetUDP6SocketE) refers to lib.o(i._ZN7cNetUDP6Socket7timeoutEv) for cNetUDP::Socket::timeout()
    lib.o(.constdata__ZTVN7cNetUDP6SocketE) refers to lib.o(i._ZN13cNetTransport6Socket10setTimeoutEtt) for cNetTransport::Socket::setTimeout(unsigned short, unsigned short)
    lib.o(.constdata__ZTVN7cNetTCP6SocketE) refers to lib.o(.constdata__ZTIN7cNetTCP6SocketE) for typeinfo for cNetTCP::Socket
    lib.o(.constdata__ZTVN7cNetTCP6SocketE) refers to lib.o(i._ZN7cNetTCP6Socket6updateEv) for cNetTCP::Socket::update()
    lib.o(.constdata__ZTVN7cNetTCP6SocketE) refers to lib.o(i._ZN7cNetTCP6Socket4openE8cNetAddrILh4EEt) for cNetTCP::Socket::open(cNetAddr<(unsigned char)4>, unsigned short)
    lib.o(.constdata__ZTVN7cNetTCP6SocketE) refers to lib.o(i._ZN13cNetTransport6Socket11openDefaultEv) for cNetTransport::Socket::openDefault()
    lib.o(.constdata__ZTVN7cNetTCP6SocketE) refers to lib.o(i._ZN7cNetTCP6Socket5closeEv) for cNetTCP::Socket::close()
    lib.o(.constdata__ZTVN7cNetTCP6SocketE) refers to lib.o(i._ZN7cNetTCP6Socket11isConnectedEv) for cNetTCP::Socket::isConnected()
    lib.o(.constdata__ZTVN7cNetTCP6SocketE) refers to lib.o(i._ZN7cNetTCP6Socket7isReadyEv) for cNetTCP::Socket::isReady()
    lib.o(.constdata__ZTVN7cNetTCP6SocketE) refers to lib.o(i._ZN13cNetTransport6Socket11getRemoteIPEv) for cNetTransport::Socket::getRemoteIP()
    lib.o(.constdata__ZTVN7cNetTCP6SocketE) refers to lib.o(i._ZN7cNetTCP6Socket5clearEv) for cNetTCP::Socket::clear()
    lib.o(.constdata__ZTVN7cNetTCP6SocketE) refers to lib.o(i._ZN7cNetTCP6Socket10getDataPtrEv) for cNetTCP::Socket::getDataPtr()
    lib.o(.constdata__ZTVN7cNetTCP6SocketE) refers to lib.o(i._ZN7cNetTCP6Socket13setDataLengthEt) for cNetTCP::Socket::setDataLength(unsigned short)
    lib.o(.constdata__ZTVN7cNetTCP6SocketE) refers to lib.o(i._ZN7cNetTCP6Socket4sendEv) for cNetTCP::Socket::send()
    lib.o(.constdata__ZTVN7cNetTCP6SocketE) refers to lib.o(i._ZN7cNetTCP6Socket3getEPc) for cNetTCP::Socket::get(char*)
    lib.o(.constdata__ZTVN7cNetTCP6SocketE) refers to lib.o(i._ZN13cNetTransport6Socket8isServerEv) for cNetTransport::Socket::isServer()
    lib.o(.constdata__ZTVN7cNetTCP6SocketE) refers to lib.o(i._ZN7cNetTCP6Socket10fillBufferEc) for cNetTCP::Socket::fillBuffer(char)
    lib.o(.constdata__ZTVN7cNetTCP6SocketE) refers to lib.o(i._ZN13cNetTransport6Socket4fillEc) for cNetTransport::Socket::fill(char)
    lib.o(.constdata__ZTVN7cNetTCP6SocketE) refers to lib.o(i._ZN13cNetTransport6Socket4fillEPKc) for cNetTransport::Socket::fill(const char*)
    lib.o(.constdata__ZTVN7cNetTCP6SocketE) refers to lib.o(i._ZN13cNetTransport6Socket4fillEPKct) for cNetTransport::Socket::fill(const char*, unsigned short)
    lib.o(.constdata__ZTVN7cNetTCP6SocketE) refers to lib.o(i._ZN7cNetTCP6Socket7processEv) for cNetTCP::Socket::process()
    lib.o(.constdata__ZTVN7cNetTCP6SocketE) refers to lib.o(i._ZN7cNetTCP6Socket7timeoutEv) for cNetTCP::Socket::timeout()
    lib.o(.constdata__ZTVN7cNetTCP6SocketE) refers to lib.o(i._ZN13cNetTransport6Socket10setTimeoutEtt) for cNetTransport::Socket::setTimeout(unsigned short, unsigned short)
    lib.o(.constdata__ZTV15cDevAnalogInADC) refers to lib.o(.constdata__ZTI15cDevAnalogInADC) for typeinfo for cDevAnalogInADC
    lib.o(.constdata__ZTV15cDevAnalogInADC) refers to lib.o(i._ZN12cDevAnalogIn3getEv) for cDevAnalogIn::get()
    lib.o(.constdata__ZTV15cDevAnalogInADC) refers to lib.o(i._ZN12cDevAnalogIncvfEv) for cDevAnalogIn::operator float()
    lib.o(.constdata__ZTV15cDevAnalogInADC) refers to lib.o(i._ZN15cDevAnalogInADC6getRawEv) for cDevAnalogInADC::getRaw()
    lib.o(.constdata__ZTV15cDevAnalogInADC) refers to lib.o(i._ZN15cDevAnalogInADC6enableEv) for cDevAnalogInADC::enable()
    lib.o(.constdata__ZTV13cDevAnalogOut) refers to lib.o(.constdata__ZTI13cDevAnalogOut) for typeinfo for cDevAnalogOut
    lib.o(.constdata__ZTV13cDevAnalogOut) refers to lib.o(i._ZN13cDevAnalogOut3setEf) for cDevAnalogOut::set(float)
    lib.o(.constdata__ZTV13cDevAnalogOut) refers to lib.o(i._ZN13cDevAnalogOutaSEf) for cDevAnalogOut::operator =(float)
    lib.o(.constdata__ZTV13cDevAnalogOut) refers to lib.o(i.__cxa_pure_virtual) for __cxa_pure_virtual
    lib.o(.constdata__ZTV16cDevAnalogOutDAC) refers to lib.o(.constdata__ZTI16cDevAnalogOutDAC) for typeinfo for cDevAnalogOutDAC
    lib.o(.constdata__ZTV16cDevAnalogOutDAC) refers to lib.o(i._ZN13cDevAnalogOut3setEf) for cDevAnalogOut::set(float)
    lib.o(.constdata__ZTV16cDevAnalogOutDAC) refers to lib.o(i._ZN13cDevAnalogOutaSEf) for cDevAnalogOut::operator =(float)
    lib.o(.constdata__ZTV16cDevAnalogOutDAC) refers to lib.o(i._ZN16cDevAnalogOutDAC6setRawEt) for cDevAnalogOutDAC::setRaw(unsigned short)
    lib.o(.constdata__ZTV16cDevAnalogOutPWM) refers to lib.o(.constdata__ZTI16cDevAnalogOutPWM) for typeinfo for cDevAnalogOutPWM
    lib.o(.constdata__ZTV16cDevAnalogOutPWM) refers to lib.o(i._ZN13cDevAnalogOut3setEf) for cDevAnalogOut::set(float)
    lib.o(.constdata__ZTV16cDevAnalogOutPWM) refers to lib.o(i._ZN13cDevAnalogOutaSEf) for cDevAnalogOut::operator =(float)
    lib.o(.constdata__ZTV16cDevAnalogOutPWM) refers to lib.o(i._ZN16cDevAnalogOutPWM6setRawEt) for cDevAnalogOutPWM::setRaw(unsigned short)
    lib.o(.constdata__ZTV20cDevAnalogOutPWMemul) refers to lib.o(.constdata__ZTI20cDevAnalogOutPWMemul) for typeinfo for cDevAnalogOutPWMemul
    lib.o(.constdata__ZTV20cDevAnalogOutPWMemul) refers to lib.o(i._ZN13cDevAnalogOut3setEf) for cDevAnalogOut::set(float)
    lib.o(.constdata__ZTV20cDevAnalogOutPWMemul) refers to lib.o(i._ZN13cDevAnalogOutaSEf) for cDevAnalogOut::operator =(float)
    lib.o(.constdata__ZTV20cDevAnalogOutPWMemul) refers to lib.o(i._ZN20cDevAnalogOutPWMemul6setRawEt) for cDevAnalogOutPWMemul::setRaw(unsigned short)
    lib.o(.constdata__ZTV20cDevAnalogOutPWMemul) refers to lib.o(i._ZN20cDevAnalogOutPWMemul6updateEv) for cDevAnalogOutPWMemul::update()
    lib.o(.constdata__ZTV20cDevAnalogOutPWMemul) refers to lib.o(i._ZThn16_N20cDevAnalogOutPWMemul6updateEv) for thunk{-16} to cDevAnalogOutPWMemul::update()
    lib.o(.constdata__ZTV15cDevDisplayChar) refers to lib.o(.constdata__ZTI15cDevDisplayChar) for typeinfo for cDevDisplayChar
    lib.o(.constdata__ZTV15cDevDisplayChar) refers to lib.o(i._ZN15cDevDisplayChar5clearEv) for cDevDisplayChar::clear()
    lib.o(.constdata__ZTV15cDevDisplayChar) refers to lib.o(i._ZN15cDevDisplayChar7refreshEv) for cDevDisplayChar::refresh()
    lib.o(.constdata__ZTV15cDevDisplayChar) refers to lib.o(i._ZN15cDevDisplayChar6printfEhhhPKcz) for cDevDisplayChar::printf(unsigned char, unsigned char, unsigned char, const char*, ...)
    lib.o(.constdata__ZTV15cDevDisplayChar) refers to lib.o(i._ZN15cDevDisplayChar6printfEhhPKc) for cDevDisplayChar::printf(unsigned char, unsigned char, const char*)
    lib.o(.constdata__ZTV10cDevTextIO) refers to lib.o(.constdata__ZTI10cDevTextIO) for typeinfo for cDevTextIO
    lib.o(.constdata__ZTV10cDevTextIO) refers to lib.o(i._ZN10cDevTextIO6printfEPKcz) for cDevTextIO::printf(const char*, ...)
    lib.o(.constdata__ZTV10cDevTextIO) refers to lib.o(i.__cxa_pure_virtual) for __cxa_pure_virtual
    lib.o(.constdata__ZTV18cDevControlEncoder) refers to lib.o(.constdata__ZTI18cDevControlEncoder) for typeinfo for cDevControlEncoder
    lib.o(.constdata__ZTV18cDevControlEncoder) refers to lib.o(i._ZN18cDevControlEncoder6updateEv) for cDevControlEncoder::update()
    lib.o(.constdata__ZTV18cDevControlEncoder) refers to lib.o(i._ZN18cDevControlEncoder7getCtrlEv) for cDevControlEncoder::getCtrl()
    lib.o(.constdata__ZTV18cDevControlEncoder) refers to lib.o(i.__cxa_pure_virtual) for __cxa_pure_virtual
    lib.o(.constdata__ZTV26cDevControlEncoderJoystick) refers to lib.o(.constdata__ZTI26cDevControlEncoderJoystick) for typeinfo for cDevControlEncoderJoystick
    lib.o(.constdata__ZTV26cDevControlEncoderJoystick) refers to lib.o(i._ZN18cDevControlEncoder6updateEv) for cDevControlEncoder::update()
    lib.o(.constdata__ZTV26cDevControlEncoderJoystick) refers to lib.o(i._ZN18cDevControlEncoder7getCtrlEv) for cDevControlEncoder::getCtrl()
    lib.o(.constdata__ZTV26cDevControlEncoderJoystick) refers to lib.o(i._ZN26cDevControlEncoderJoystick12getIncrementEv) for cDevControlEncoderJoystick::getIncrement()
    lib.o(.constdata__ZTV28cDevControlEncoderRotaryKnob) refers to lib.o(.constdata__ZTI28cDevControlEncoderRotaryKnob) for typeinfo for cDevControlEncoderRotaryKnob
    lib.o(.constdata__ZTV28cDevControlEncoderRotaryKnob) refers to lib.o(i._ZN18cDevControlEncoder6updateEv) for cDevControlEncoder::update()
    lib.o(.constdata__ZTV28cDevControlEncoderRotaryKnob) refers to lib.o(i._ZN18cDevControlEncoder7getCtrlEv) for cDevControlEncoder::getCtrl()
    lib.o(.constdata__ZTV28cDevControlEncoderRotaryKnob) refers to lib.o(i._ZN28cDevControlEncoderRotaryKnob12getIncrementEv) for cDevControlEncoderRotaryKnob::getIncrement()
    lib.o(.constdata__ZTV18cDevControlPointer) refers to lib.o(.constdata__ZTI18cDevControlPointer) for typeinfo for cDevControlPointer
    lib.o(.constdata__ZTV18cDevControlPointer) refers to lib.o(i._ZN18cDevControlPointer3getEv) for cDevControlPointer::get()
    lib.o(.constdata__ZTV12cTaskHandler) refers to lib.o(.constdata__ZTI12cTaskHandler) for typeinfo for cTaskHandler
    lib.o(.constdata__ZTV12cTaskHandler) refers to lib.o(i._ZN12cTaskHandler6updateEv) for cTaskHandler::update()
    lib.o(.constdata__ZTV12cTaskHandler) refers to lib.o(i._ZN12cTaskHandler12getCycleTimeEv) for cTaskHandler::getCycleTime()
    lib.o(.constdata__ZTV12cTaskHandler) refers to lib.o(i._ZN12cTaskHandler7getTicsEv) for cTaskHandler::getTics()
    lib.o(.constdata__ZTV12cTaskHandler) refers to lib.o(i._ZN12cTaskHandler3runEv) for cTaskHandler::run()
    lib.o(.constdata__ZTV12cTaskHandler) refers to lib.o(i._ZN12cTaskHandler7addTaskEPNS_4TaskE) for cTaskHandler::addTask(cTaskHandler::Task*)
    lib.o(.constdata__ZTVN12cTaskHandler5TimerE) refers to lib.o(.constdata__ZTIN12cTaskHandler5TimerE) for typeinfo for cTaskHandler::Timer
    lib.o(.constdata__ZTVN12cTaskHandler5TimerE) refers to lib.o(i._ZN12cTaskHandler5Timer7getTicsEv) for cTaskHandler::Timer::getTics()
    lib.o(.constdata__ZTVN12cTaskHandler5TimerE) refers to lib.o(i._ZN12cTaskHandler5Timer12getTimeOfTicEv) for cTaskHandler::Timer::getTimeOfTic()
    lib.o(i._ZN8cHwUSB_03isrEv) refers to lib.o(i._ZN8cHwUSB_018isInterruptPendingEj) for cHwUSB_0::isInterruptPending(unsigned)
    lib.o(i._ZN8cHwUSB_03isrEv) refers to lib.o(i._ZN8cHwUSB_012clrInterruptEj) for cHwUSB_0::clrInterrupt(unsigned)
    lib.o(i._ZN8cHwUSB_03isrEv) refers to lib.o(i._ZN8cHwUSB_015getOutInterruptEv) for cHwUSB_0::getOutInterrupt()
    lib.o(i._ZN8cHwUSB_03isrEv) refers to lib.o(i._ZN8cHwUSB_011EndpointOUT12getInterruptEv) for cHwUSB_0::EndpointOUT::getInterrupt()
    lib.o(i._ZN8cHwUSB_03isrEv) refers to lib.o(i._ZN8cHwUSB_011EndpointOUT7receiveEv) for cHwUSB_0::EndpointOUT::receive()
    lib.o(i._ZN8cHwUSB_03isrEv) refers to lib.o(i._ZN8cHwUSB_011EndpointOUT12clrInterruptEj) for cHwUSB_0::EndpointOUT::clrInterrupt(unsigned)
    lib.o(i._ZN8cHwUSB_03isrEv) refers to lib.o(i._ZN8cHwUSB_010EndpointIN8transmitEb) for cHwUSB_0::EndpointIN::transmit(bool)
    lib.o(i._ZN8cHwUSB_03isrEv) refers to lib.o(i._ZN8cHwUSB_014getInInterruptEv) for cHwUSB_0::getInInterrupt()
    lib.o(i._ZN8cHwUSB_03isrEv) refers to lib.o(i._ZN8cHwUSB_010EndpointIN12getInterruptEv) for cHwUSB_0::EndpointIN::getInterrupt()
    lib.o(i._ZN8cHwUSB_03isrEv) refers to lib.o(i._ZN8cHwUSB_010EndpointIN12clrInterruptEj) for cHwUSB_0::EndpointIN::clrInterrupt(unsigned)
    lib.o(i._ZN8cHwUSB_03isrEv) refers to lib.o(i._ZN8cHwUSB_011EndpointOUT10receiveZLPEv) for cHwUSB_0::EndpointOUT::receiveZLP()
    lib.o(i._ZN8cHwUSB_03isrEv) refers to lib.o(i._ZN8cHwUSB_010EndpointIN11writeToFifoEv) for cHwUSB_0::EndpointIN::writeToFifo()
    lib.o(i._ZN8cHwUSB_03isrEv) refers to lib.o(i._ZN8cHwUSB_011EndpointOUT6configEth) for cHwUSB_0::EndpointOUT::config(unsigned short, unsigned char)
    lib.o(i._ZN8cHwUSB_03isrEv) refers to lib.o(i._ZN8cHwUSB_010EndpointIN6configEth) for cHwUSB_0::EndpointIN::config(unsigned short, unsigned char)
    lib.o(i._ZN8cHwUSB_03isrEv) refers to lib.o(i._ZN8cHwUSB_011EndpointOUT12readFromFifoEt) for cHwUSB_0::EndpointOUT::readFromFifo(unsigned short)
    lib.o(.ARM.exidx) refers to lib.o(i._ZN8cHwUSB_03isrEv) for i._ZN8cHwUSB_03isrEv
    lib.o(.ARM.exidx) refers to lib.o(i._ZN7cHwPort3Pin3setEb) for i._ZN7cHwPort3Pin3setEb
    lib.o(.ARM.exidx) refers to lib.o(i._ZN15cHwEthernet_MCU20ETH_WritePHYRegisterEttt) for i._ZN15cHwEthernet_MCU20ETH_WritePHYRegisterEttt
    lib.o(.ARM.exidx) refers to lib.o(i._ZN15cHwEthernet_MCU19ETH_ReadPHYRegisterEtt) for i._ZN15cHwEthernet_MCU19ETH_ReadPHYRegisterEtt
    lib.o(i._ZN15cHwEthernet_MCU8ETH_InitEt) refers to lib.o(i._ZN15cHwEthernet_MCU20ETH_WritePHYRegisterEttt) for cHwEthernet_MCU::ETH_WritePHYRegister(unsigned short, unsigned short, unsigned short)
    lib.o(i._ZN15cHwEthernet_MCU8ETH_InitEt) refers to lib.o(i._ZN7cSystem13delayMilliSecEt) for cSystem::delayMilliSec(unsigned short)
    lib.o(i._ZN15cHwEthernet_MCU8ETH_InitEt) refers to lib.o(i._ZN15cHwEthernet_MCU19ETH_ReadPHYRegisterEtt) for cHwEthernet_MCU::ETH_ReadPHYRegister(unsigned short, unsigned short)
    lib.o(.ARM.exidx) refers to lib.o(i._ZN15cHwEthernet_MCU8ETH_InitEt) for i._ZN15cHwEthernet_MCU8ETH_InitEt
    lib.o(t._ZN5cFifoIhElsERKh) refers to lib.o(i._ZN7cSystem16disableInterruptEv) for cSystem::disableInterrupt()
    lib.o(t._ZN5cFifoIhElsERKh) refers to lib.o(i._ZN7cSystem15enableInterruptEv) for cSystem::enableInterrupt()
    lib.o(.ARM.exidx) refers to lib.o(t._ZN5cFifoIhElsERKh) for t._ZN5cFifoIhElsERKh
    lib.o(t._ZN5cFifoIhErsERh) refers to lib.o(i._ZN7cSystem16disableInterruptEv) for cSystem::disableInterrupt()
    lib.o(t._ZN5cFifoIhErsERh) refers to lib.o(i._ZN7cSystem15enableInterruptEv) for cSystem::enableInterrupt()
    lib.o(.ARM.exidx) refers to lib.o(t._ZN5cFifoIhErsERh) for t._ZN5cFifoIhErsERh
    lib.o(i._ZN10cHwUSBctrl29ReqDeviceStd_SetConfigurationEv) refers to lib.o(i._ZN14cHwUSBendpoint16setConfigurationEv) for cHwUSBendpoint::setConfiguration()
    lib.o(i._ZN10cHwUSBctrl29ReqDeviceStd_SetConfigurationEv) refers to lib.o(i._ZN14cHwUSBendpoint16writeAcknowledgeEv) for cHwUSBendpoint::writeAcknowledge()
    lib.o(.ARM.exidx) refers to lib.o(i._ZN10cHwUSBctrl29ReqDeviceStd_SetConfigurationEv) for i._ZN10cHwUSBctrl29ReqDeviceStd_SetConfigurationEv
    lib.o(.ARM.exidx) refers to lib.o(i._ZN15cNetApplication10setTimeoutEtt) for i._ZN15cNetApplication10setTimeoutEtt
    lib.o(.ARM.exidx) refers to lib.o(i._ZN13cNetTransport6Socket10setTimeoutEtt) for i._ZN13cNetTransport6Socket10setTimeoutEtt
    lib.o(.ARM.exidx) refers to lib.o(i._ZN13cNetTransport6Socket4fillEc) for i._ZN13cNetTransport6Socket4fillEc
    lib.o(i._ZN13cNetTransport6Socket4fillEPKc) refers to strlen.o(.text) for strlen
    lib.o(.ARM.exidx) refers to lib.o(i._ZN13cNetTransport6Socket4fillEPKc) for i._ZN13cNetTransport6Socket4fillEPKc
    lib.o(.ARM.exidx) refers to lib.o(i._ZN20cDevDigitalIndicator3clrEv) for i._ZN20cDevDigitalIndicator3clrEv
    lib.o(t._ZN5cFifoIN18cDevControlEncoder6tEventEElsERKS1_) refers to lib.o(i._ZN7cSystem16disableInterruptEv) for cSystem::disableInterrupt()
    lib.o(t._ZN5cFifoIN18cDevControlEncoder6tEventEElsERKS1_) refers to lib.o(i._ZN7cSystem15enableInterruptEv) for cSystem::enableInterrupt()
    lib.o(.ARM.exidx) refers to lib.o(t._ZN5cFifoIN18cDevControlEncoder6tEventEElsERKS1_) for t._ZN5cFifoIN18cDevControlEncoder6tEventEElsERKS1_
    lib.o(i._Znaj) refers to h1_alloc.o(.text) for malloc
    lib.o(.ARM.exidx) refers to lib.o(i._Znaj) for i._Znaj
    lib.o(.ARM.exidx) refers to lib.o(t._Z3MINItET_S0_S0_) for t._Z3MINItET_S0_S0_
    lib.o(.ARM.exidx) refers to lib.o(t._Z5RANGEIsET_S0_S0_S0_) for t._Z5RANGEIsET_S0_S0_S0_
    lib.o(i._ZN8cHwTimer10isrHandlerEv) refers to lib.o(i._ZN5cList9updateAllEv) for cList::updateAll()
    lib.o(.ARM.exidx) refers to lib.o(i._ZN8cHwTimer10isrHandlerEv) for i._ZN8cHwTimer10isrHandlerEv
    lib.o(i._ZN6cHwADC3getEh) refers to lib.o(i._ZN7cSystem16disableInterruptEv) for cSystem::disableInterrupt()
    lib.o(i._ZN6cHwADC3getEh) refers to lib.o(i._ZN7cSystem15enableInterruptEv) for cSystem::enableInterrupt()
    lib.o(.ARM.exidx) refers to lib.o(i._ZN6cHwADC3getEh) for i._ZN6cHwADC3getEh
    lib.o(.ARM.exidx) refers to lib.o(i._ZN6cHwADC19getNumberOfChannelsEv) for i._ZN6cHwADC19getNumberOfChannelsEv
    lib.o(.ARM.exidx) refers to lib.o(i._ZN6cHwADC6updateEv) for i._ZN6cHwADC6updateEv
    lib.o(.ARM.exidx) refers to lib.o(i._ZN6cHwADC3isrEv) for i._ZN6cHwADC3isrEv
    lib.o(.ARM.exidx) refers to lib.o(i._ZN8cHwADC_09getResultEv) for i._ZN8cHwADC_09getResultEv
    lib.o(.ARM.exidx) refers to lib.o(i._ZN8cHwADC_07startChEh) for i._ZN8cHwADC_07startChEh
    lib.o(t._ZNK8cNetAddrILh4EEeqERKS0_) refers to memcmp.o(.text) for memcmp
    lib.o(.ARM.exidx) refers to lib.o(t._ZNK8cNetAddrILh4EEeqERKS0_) for t._ZNK8cNetAddrILh4EEeqERKS0_
    lib.o(t._ZNK8cNetAddrILh6EEeqERKS0_) refers to memcmp.o(.text) for memcmp
    lib.o(.ARM.exidx) refers to lib.o(t._ZNK8cNetAddrILh6EEeqERKS0_) for t._ZNK8cNetAddrILh6EEeqERKS0_
    lib.o(t._ZN8cNetTYPEItEaSEt) refers to lib.o(i._Z4htont) for hton(unsigned short)
    lib.o(.ARM.exidx) refers to lib.o(t._ZN8cNetTYPEItEaSEt) for t._ZN8cNetTYPEItEaSEt
    lib.o(t._ZN8cNetTYPEItEcvtEv) refers to lib.o(i._Z4ntoht) for ntoh(unsigned short)
    lib.o(.ARM.exidx) refers to lib.o(t._ZN8cNetTYPEItEcvtEv) for t._ZN8cNetTYPEItEcvtEv
    lib.o(.ARM.exidx) refers to lib.o(i._ZN7cHwPort3Pin7setModeENS_4ModeE) for i._ZN7cHwPort3Pin7setModeENS_4ModeE
    lib.o(.ARM.exidx) refers to lib.o(i._ZN7cHwPort3Pin3setEv) for i._ZN7cHwPort3Pin3setEv
    lib.o(.ARM.exidx) refers to lib.o(i._ZN7cHwPort3Pin3clrEv) for i._ZN7cHwPort3Pin3clrEv
    lib.o(.ARM.exidx) refers to lib.o(i._ZN7cHwPort3Pin3getEv) for i._ZN7cHwPort3Pin3getEv
    lib.o(.ARM.exidx) refers to lib.o(i._ZN14cHwI2Cmaster_N11waitForAcknEj) for i._ZN14cHwI2Cmaster_N11waitForAcknEj
    lib.o(.ARM.exidx) refers to lib.o(i._ZN14cHwI2Cmaster_N5startEv) for i._ZN14cHwI2Cmaster_N5startEv
    lib.o(.ARM.exidx) refers to lib.o(i._ZN14cHwI2Cmaster_N4stopEv) for i._ZN14cHwI2Cmaster_N4stopEv
    lib.o(.ARM.exidx) refers to lib.o(i._ZN14cHwI2Cmaster_N8sendAddrEh) for i._ZN14cHwI2Cmaster_N8sendAddrEh
    lib.o(.ARM.exidx) refers to lib.o(i._ZN14cHwI2Cmaster_N9writeByteEh) for i._ZN14cHwI2Cmaster_N9writeByteEh
    lib.o(.ARM.exidx) refers to lib.o(i._ZN14cHwI2Cmaster_N11readByteAckEv) for i._ZN14cHwI2Cmaster_N11readByteAckEv
    lib.o(.ARM.exidx) refers to lib.o(i._ZN14cHwI2Cmaster_N12readByteNackEv) for i._ZN14cHwI2Cmaster_N12readByteNackEv
    lib.o(.ARM.exidx) refers to lib.o(i._ZN9cHwMemory5writeEjh) for i._ZN9cHwMemory5writeEjh
    lib.o(.ARM.exidx) refers to lib.o(i._ZN9cHwMemory4readEj) for i._ZN9cHwMemory4readEj
    lib.o(.ARM.exidx) refers to lib.o(i._ZN9cHwMemory7getSizeEv) for i._ZN9cHwMemory7getSizeEv
    lib.o(.ARM.exidx) refers to lib.o(i._ZN9cHwMemory7isFlashEv) for i._ZN9cHwMemory7isFlashEv
    lib.o(.ARM.exidx) refers to lib.o(i._ZN9cHwPort_N3setEj) for i._ZN9cHwPort_N3setEj
    lib.o(.ARM.exidx) refers to lib.o(i._ZN9cHwPort_N3setEjj) for i._ZN9cHwPort_N3setEjj
    lib.o(.ARM.exidx) refers to lib.o(i._ZN9cHwPort_N3clrEj) for i._ZN9cHwPort_N3clrEj
    lib.o(.ARM.exidx) refers to lib.o(i._ZN9cHwPort_N3getEv) for i._ZN9cHwPort_N3getEv
    lib.o(t._ZN5cFifoIhEC1Eh) refers to lib.o(i._Znaj) for operator new[] (unsigned)
    lib.o(.ARM.exidx) refers to lib.o(t._ZN5cFifoIhEC1Eh) for t._ZN5cFifoIhEC1Eh
    lib.o(t._ZN5cFifoIhE6isFullEv) refers to lib.o(i._ZN7cSystem16disableInterruptEv) for cSystem::disableInterrupt()
    lib.o(t._ZN5cFifoIhE6isFullEv) refers to lib.o(i._ZN7cSystem15enableInterruptEv) for cSystem::enableInterrupt()
    lib.o(.ARM.exidx) refers to lib.o(t._ZN5cFifoIhE6isFullEv) for t._ZN5cFifoIhE6isFullEv
    lib.o(i._ZN7cHwUART14isTxBufferFullEv) refers to lib.o(t._ZN5cFifoIhE6isFullEv) for cFifo<unsigned char>::isFull()
    lib.o(.ARM.exidx) refers to lib.o(i._ZN7cHwUART14isTxBufferFullEv) for i._ZN7cHwUART14isTxBufferFullEv
    lib.o(i._ZN7cHwUART5isrRxEv) refers to lib.o(t._ZN5cFifoIhElsERKh) for cFifo<unsigned char>::operator <<(const unsigned char&)
    lib.o(.ARM.exidx) refers to lib.o(i._ZN7cHwUART5isrRxEv) for i._ZN7cHwUART5isrRxEv
    lib.o(i._ZN7cHwUART5isrTxEv) refers to lib.o(i._ZN7cSystem16disableInterruptEv) for cSystem::disableInterrupt()
    lib.o(i._ZN7cHwUART5isrTxEv) refers to lib.o(i._ZN7cSystem15enableInterruptEv) for cSystem::enableInterrupt()
    lib.o(i._ZN7cHwUART5isrTxEv) refers to lib.o(t._ZN5cFifoIhErsERh) for cFifo<unsigned char>::operator >>(unsigned char&)
    lib.o(.ARM.exidx) refers to lib.o(i._ZN7cHwUART5isrTxEv) for i._ZN7cHwUART5isrTxEv
    lib.o(.ARM.exidx) refers to lib.o(i._ZN12cDataPointerC1Ev) for i._ZN12cDataPointerC1Ev
    lib.o(.ARM.exidx) refers to lib.o(i._ZN12cDataPointer7isEmptyEv) for i._ZN12cDataPointer7isEmptyEv
    lib.o(.ARM.exidx) refers to lib.o(i._ZN12cDataPointer5shiftEt) for i._ZN12cDataPointer5shiftEt
    lib.o(.ARM.exidx) refers to lib.o(i._ZN10cHwUSBdesc5getIdEhhhh) for i._ZN10cHwUSBdesc5getIdEhhhh
    lib.o(i._ZN10cHwUSBctrl11ReqEndpointEv) refers to lib.o(i._ZN14cHwUSBendpoint8clrStallEv) for cHwUSBendpoint::clrStall()
    lib.o(i._ZN10cHwUSBctrl11ReqEndpointEv) refers to lib.o(i._ZN14cHwUSBendpoint10clrFeatureEv) for cHwUSBendpoint::clrFeature()
    lib.o(i._ZN10cHwUSBctrl11ReqEndpointEv) refers to lib.o(i._ZN14cHwUSBendpoint16writeAcknowledgeEv) for cHwUSBendpoint::writeAcknowledge()
    lib.o(i._ZN10cHwUSBctrl11ReqEndpointEv) refers to lib.o(i._ZN14cHwUSBendpoint5stallEv) for cHwUSBendpoint::stall()
    lib.o(.ARM.exidx) refers to lib.o(i._ZN10cHwUSBctrl11ReqEndpointEv) for i._ZN10cHwUSBctrl11ReqEndpointEv
    lib.o(i._ZN10cHwUSBctrl12ReqInterfaceEv) refers to lib.o(i._ZN14cHwUSBendpoint12writeDataLenERK12cDataPointert) for cHwUSBendpoint::writeDataLen(const cDataPointer&, unsigned short)
    lib.o(i._ZN10cHwUSBctrl12ReqInterfaceEv) refers to lib.o(i._ZN10cHwUSBctrl17ReqInterfaceClassEv) for cHwUSBctrl::ReqInterfaceClass()
    lib.o(.ARM.exidx) refers to lib.o(i._ZN10cHwUSBctrl12ReqInterfaceEv) for i._ZN10cHwUSBctrl12ReqInterfaceEv
    lib.o(i._ZN10cHwUSBctrl9ReqDeviceEv) refers to lib.o(i._ZN14cHwUSBendpoint9writeDataERK12cDataPointer) for cHwUSBendpoint::writeData(const cDataPointer&)
    lib.o(i._ZN10cHwUSBctrl9ReqDeviceEv) refers to lib.o(i._ZN10cHwUSBctrl26ReqDeviceStd_GetDescriptorEv) for cHwUSBctrl::ReqDeviceStd_GetDescriptor()
    lib.o(i._ZN10cHwUSBctrl9ReqDeviceEv) refers to lib.o(i._ZN10cHwUSBctrl29ReqDeviceStd_SetConfigurationEv) for cHwUSBctrl::ReqDeviceStd_SetConfiguration()
    lib.o(.ARM.exidx) refers to lib.o(i._ZN10cHwUSBctrl9ReqDeviceEv) for i._ZN10cHwUSBctrl9ReqDeviceEv
    lib.o(i._ZN10cHwUSBctrl5StallEv) refers to lib.o(i._ZN14cHwUSBendpoint5stallEv) for cHwUSBendpoint::stall()
    lib.o(.ARM.exidx) refers to lib.o(i._ZN10cHwUSBctrl5StallEv) for i._ZN10cHwUSBctrl5StallEv
    lib.o(.ARM.exidx) refers to lib.o(i._ZN8cHwUSB_06BufferC1Ev) for i._ZN8cHwUSB_06BufferC1Ev
    lib.o(.ARM.exidx) refers to lib.o(i._ZN15cNetApplication6updateEv) for i._ZN15cNetApplication6updateEv
    lib.o(i._ZN13cNetTransport6Socket11openDefaultEv) refers to lib.o(t._ZN8cNetTYPEItEcvtEv) for cNetTYPE<unsigned short>::operator unsigned short()
    lib.o(.ARM.exidx) refers to lib.o(i._ZN13cNetTransport6Socket11openDefaultEv) for i._ZN13cNetTransport6Socket11openDefaultEv
    lib.o(.ARM.exidx) refers to lib.o(i._ZN13cNetTransport6Socket8isServerEv) for i._ZN13cNetTransport6Socket8isServerEv
    lib.o(.ARM.exidx) refers to lib.o(i._ZN13cNetTransport6Socket6updateEv) for i._ZN13cNetTransport6Socket6updateEv
    lib.o(.ARM.exidx) refers to lib.o(i._ZN13cNetTransport6Socket4fillEPKct) for i._ZN13cNetTransport6Socket4fillEPKct
    lib.o(.ARM.exidx) refers to lib.o(i._ZN7cNetUDP7getAddrEv) for i._ZN7cNetUDP7getAddrEv
    lib.o(.ARM.exidx) refers to lib.o(i._ZN7cNetUDP10getAddrPhyEv) for i._ZN7cNetUDP10getAddrPhyEv
    lib.o(.ARM.exidx) refers to lib.o(i._ZN8cNetDHCP8OnUpdateEv) for i._ZN8cNetDHCP8OnUpdateEv
    lib.o(.ARM.exidx) refers to lib.o(i._ZN7cNetTCP7getAddrEv) for i._ZN7cNetTCP7getAddrEv
    lib.o(.ARM.exidx) refers to lib.o(i._ZN7cNetTCP10getAddrPhyEv) for i._ZN7cNetTCP10getAddrPhyEv
    lib.o(.ARM.exidx) refers to lib.o(i._ZN4cCRC9tabMethodEh) for i._ZN4cCRC9tabMethodEh
    lib.o(.ARM.exidx) refers to lib.o(i._ZN12cDevAnalogIn3getEv) for i._ZN12cDevAnalogIn3getEv
    lib.o(.ARM.exidx) refers to lib.o(i._ZN12cDevAnalogIncvfEv) for i._ZN12cDevAnalogIncvfEv
    lib.o(.ARM.exidx) refers to lib.o(i._ZN13cDevAnalogOutaSEf) for i._ZN13cDevAnalogOutaSEf
    lib.o(.ARM.exidx) refers to lib.o(i._ZN11cDevDigital3setEv) for i._ZN11cDevDigital3setEv
    lib.o(.ARM.exidx) refers to lib.o(i._ZN11cDevDigital3clrEv) for i._ZN11cDevDigital3clrEv
    lib.o(.ARM.exidx) refers to lib.o(i._ZN11cDevDigital6toggleEv) for i._ZN11cDevDigital6toggleEv
    lib.o(.ARM.exidx) refers to lib.o(i._ZN11cDevDigital8getEventEv) for i._ZN11cDevDigital8getEventEv
    lib.o(.ARM.exidx) refers to lib.o(i._ZN11cDevDigitalaSEb) for i._ZN11cDevDigitalaSEb
    lib.o(.ARM.exidx) refers to lib.o(i._ZN11cDevDigitalaSERS_) for i._ZN11cDevDigitalaSERS_
    lib.o(.ARM.exidx) refers to lib.o(i._ZN11cDevDigitalcvbEv) for i._ZN11cDevDigitalcvbEv
    lib.o(.ARM.exidx) refers to lib.o(i._ZN20cDevDigitalIndicator3setEv) for i._ZN20cDevDigitalIndicator3setEv
    lib.o(.ARM.exidx) refers to lib.o(i._ZN20cDevDigitalIndicator7triggerEt) for i._ZN20cDevDigitalIndicator7triggerEt
    lib.o(.ARM.exidx) refers to lib.o(i._ZN10cHwDisplay16getNumberOfLinesEv) for i._ZN10cHwDisplay16getNumberOfLinesEv
    lib.o(.ARM.exidx) refers to lib.o(i._ZN10cHwDisplay18getNumberOfColumnsEv) for i._ZN10cHwDisplay18getNumberOfColumnsEv
    lib.o(.ARM.exidx) refers to lib.o(i._ZN17cHwDisplayGraphic7refreshEv) for i._ZN17cHwDisplayGraphic7refreshEv
    lib.o(.ARM.exidx) refers to lib.o(i._ZN17cHwDisplayGraphic14getDefaultFontEv) for i._ZN17cHwDisplayGraphic14getDefaultFontEv
    lib.o(.ARM.exidx) refers to lib.o(i._ZN17cHwDisplayGraphic8getWidthEv) for i._ZN17cHwDisplayGraphic8getWidthEv
    lib.o(.ARM.exidx) refers to lib.o(i._ZN17cHwDisplayGraphic9getHeightEv) for i._ZN17cHwDisplayGraphic9getHeightEv
    lib.o(t._ZN5cFifoIN18cDevControlEncoder6tEventEE6isFullEv) refers to lib.o(i._ZN7cSystem16disableInterruptEv) for cSystem::disableInterrupt()
    lib.o(t._ZN5cFifoIN18cDevControlEncoder6tEventEE6isFullEv) refers to lib.o(i._ZN7cSystem15enableInterruptEv) for cSystem::enableInterrupt()
    lib.o(.ARM.exidx) refers to lib.o(t._ZN5cFifoIN18cDevControlEncoder6tEventEE6isFullEv) for t._ZN5cFifoIN18cDevControlEncoder6tEventEE6isFullEv
    lib.o(.ARM.exidx) refers to lib.o(i._ZN12cTaskHandler12getCycleTimeEv) for i._ZN12cTaskHandler12getCycleTimeEv
    lib.o(.ARM.exidx) refers to lib.o(i._ZN12cTaskHandler7getTicsEv) for i._ZN12cTaskHandler7getTicsEv
    lib.o(i._ZN12cTaskHandler3runEv) refers to lib.o(i._ZN7cSystem16disableInterruptEv) for cSystem::disableInterrupt()
    lib.o(i._ZN12cTaskHandler3runEv) refers to lib.o(i._ZN7cSystem15enableInterruptEv) for cSystem::enableInterrupt()
    lib.o(i._ZN12cTaskHandler3runEv) refers to lib.o(i._ZN5cList9updateAllEv) for cList::updateAll()
    lib.o(.ARM.exidx) refers to lib.o(i._ZN12cTaskHandler3runEv) for i._ZN12cTaskHandler3runEv
    lib.o(.ARM.exidx) refers to lib.o(i._ZN12cTaskHandler6updateEv) for i._ZN12cTaskHandler6updateEv
    lib.o(.ARM.exidx) refers to lib.o(i._ZN12cHwSPImaster6Device4readEv) for i._ZN12cHwSPImaster6Device4readEv
    lib.o(i._ZN12cHwSPImaster6Device4readEPht) refers to lib.o(i._ZN7cSystem16disableInterruptEv) for cSystem::disableInterrupt()
    lib.o(i._ZN12cHwSPImaster6Device4readEPht) refers to lib.o(i._ZN7cHwPort3Pin3clrEv) for cHwPort::Pin::clr()
    lib.o(i._ZN12cHwSPImaster6Device4readEPht) refers to lib.o(i._ZN7cHwPort3Pin3setEv) for cHwPort::Pin::set()
    lib.o(i._ZN12cHwSPImaster6Device4readEPht) refers to lib.o(i._ZN7cSystem15enableInterruptEv) for cSystem::enableInterrupt()
    lib.o(.ARM.exidx) refers to lib.o(i._ZN12cHwSPImaster6Device4readEPht) for i._ZN12cHwSPImaster6Device4readEPht
    lib.o(.ARM.exidx) refers to lib.o(i._ZN12cHwSPImaster6Device5writeEh) for i._ZN12cHwSPImaster6Device5writeEh
    lib.o(i._ZN12cHwSPImaster6Device5writeEt) refers to lib.o(i._ZN7cSystem16disableInterruptEv) for cSystem::disableInterrupt()
    lib.o(i._ZN12cHwSPImaster6Device5writeEt) refers to lib.o(i._ZN7cHwPort3Pin3clrEv) for cHwPort::Pin::clr()
    lib.o(i._ZN12cHwSPImaster6Device5writeEt) refers to lib.o(i._ZN7cHwPort3Pin3setEv) for cHwPort::Pin::set()
    lib.o(i._ZN12cHwSPImaster6Device5writeEt) refers to lib.o(i._ZN7cSystem15enableInterruptEv) for cSystem::enableInterrupt()
    lib.o(.ARM.exidx) refers to lib.o(i._ZN12cHwSPImaster6Device5writeEt) for i._ZN12cHwSPImaster6Device5writeEt
    lib.o(i._ZN12cHwSPImaster6Device5writeEPht) refers to lib.o(i._ZN7cSystem16disableInterruptEv) for cSystem::disableInterrupt()
    lib.o(i._ZN12cHwSPImaster6Device5writeEPht) refers to lib.o(i._ZN7cHwPort3Pin3clrEv) for cHwPort::Pin::clr()
    lib.o(i._ZN12cHwSPImaster6Device5writeEPht) refers to lib.o(i._ZN7cHwPort3Pin3setEv) for cHwPort::Pin::set()
    lib.o(i._ZN12cHwSPImaster6Device5writeEPht) refers to lib.o(i._ZN7cSystem15enableInterruptEv) for cSystem::enableInterrupt()
    lib.o(.ARM.exidx) refers to lib.o(i._ZN12cHwSPImaster6Device5writeEPht) for i._ZN12cHwSPImaster6Device5writeEPht
    lib.o(i._ZN12cHwSPImaster6Device8writeExtEhh) refers to lib.o(i._ZN7cSystem16disableInterruptEv) for cSystem::disableInterrupt()
    lib.o(i._ZN12cHwSPImaster6Device8writeExtEhh) refers to lib.o(i._ZN7cHwPort3Pin3clrEv) for cHwPort::Pin::clr()
    lib.o(i._ZN12cHwSPImaster6Device8writeExtEhh) refers to lib.o(i._ZN7cHwPort3Pin3setEv) for cHwPort::Pin::set()
    lib.o(i._ZN12cHwSPImaster6Device8writeExtEhh) refers to lib.o(i._ZN7cSystem15enableInterruptEv) for cSystem::enableInterrupt()
    lib.o(.ARM.exidx) refers to lib.o(i._ZN12cHwSPImaster6Device8writeExtEhh) for i._ZN12cHwSPImaster6Device8writeExtEhh
    lib.o(i._ZN12cHwSPImaster6Device8writeExtEht) refers to lib.o(i._ZN7cSystem16disableInterruptEv) for cSystem::disableInterrupt()
    lib.o(i._ZN12cHwSPImaster6Device8writeExtEht) refers to lib.o(i._ZN7cHwPort3Pin3clrEv) for cHwPort::Pin::clr()
    lib.o(i._ZN12cHwSPImaster6Device8writeExtEht) refers to lib.o(i._ZN7cHwPort3Pin3setEv) for cHwPort::Pin::set()
    lib.o(i._ZN12cHwSPImaster6Device8writeExtEht) refers to lib.o(i._ZN7cSystem15enableInterruptEv) for cSystem::enableInterrupt()
    lib.o(.ARM.exidx) refers to lib.o(i._ZN12cHwSPImaster6Device8writeExtEht) for i._ZN12cHwSPImaster6Device8writeExtEht
    lib.o(i._ZN10cHwUSBctrl17ReqInterfaceClassEv) refers to lib.o(i._ZN12cDataPointerC1Ev) for cDataPointer::cDataPointer()
    lib.o(i._ZN10cHwUSBctrl17ReqInterfaceClassEv) refers to lib.o(i._ZN12cDataPointeraSERKS_) for cDataPointer::operator =(const cDataPointer&)
    lib.o(i._ZN10cHwUSBctrl17ReqInterfaceClassEv) refers to lib.o(i._ZN14cHwUSBendpoint9writeDataEv) for cHwUSBendpoint::writeData()
    lib.o(i._ZN10cHwUSBctrl17ReqInterfaceClassEv) refers to lib.o(i._ZN14cHwUSBendpoint16writeAcknowledgeEv) for cHwUSBendpoint::writeAcknowledge()
    lib.o(.ARM.exidx) refers to lib.o(i._ZN10cHwUSBctrl17ReqInterfaceClassEv) for i._ZN10cHwUSBctrl17ReqInterfaceClassEv
    lib.o(i._ZN10cHwUSBctrl26ReqDeviceStd_GetDescriptorEv) refers to lib.o(i._ZN14cHwUSBendpoint12writeDataLenERK12cDataPointert) for cHwUSBendpoint::writeDataLen(const cDataPointer&, unsigned short)
    lib.o(.ARM.exidx) refers to lib.o(i._ZN10cHwUSBctrl26ReqDeviceStd_GetDescriptorEv) for i._ZN10cHwUSBctrl26ReqDeviceStd_GetDescriptorEv
    lib.o(.ARM.exidx) refers to lib.o(i._ZN12cDataPointeraSERKS_) for i._ZN12cDataPointeraSERKS_
    lib.o(.constdata__ZTVN5cList4ItemE) refers to main.o(.constdata__ZTIN5cList4ItemE) for typeinfo for cList::Item
    lib.o(.constdata__ZTVN5cList4ItemE) refers to lib.o(i._ZN5cList4Item6updateEv) for cList::Item::update()
    lib.o(.constdata__ZTVN7cHwPort3PinE) refers to lib.o(.constdata__ZTIN7cHwPort3PinE) for typeinfo for cHwPort::Pin
    lib.o(.constdata__ZTVN7cHwPort3PinE) refers to lib.o(i._ZN7cHwPort3Pin7setModeENS_4ModeE) for cHwPort::Pin::setMode(cHwPort::Mode)
    lib.o(.constdata__ZTVN7cHwPort3PinE) refers to lib.o(i._ZN7cHwPort3Pin3setEv) for cHwPort::Pin::set()
    lib.o(.constdata__ZTVN7cHwPort3PinE) refers to lib.o(i._ZN7cHwPort3Pin3setEb) for cHwPort::Pin::set(bool)
    lib.o(.constdata__ZTVN7cHwPort3PinE) refers to lib.o(i._ZN7cHwPort3Pin3clrEv) for cHwPort::Pin::clr()
    lib.o(.constdata__ZTVN7cHwPort3PinE) refers to lib.o(i._ZN7cHwPort3Pin3getEv) for cHwPort::Pin::get()
    lib.o(.constdata__ZTV6cHwRTC) refers to lib.o(.constdata__ZTI6cHwRTC) for typeinfo for cHwRTC
    lib.o(.constdata__ZTV6cHwRTC) refers to lib.o(i.__cxa_pure_virtual) for __cxa_pure_virtual
    lib.o(.constdata__ZTV12cHwUSBinterf) refers to lib.o(.constdata__ZTI12cHwUSBinterf) for typeinfo for cHwUSBinterf
    lib.o(.constdata__ZTV12cHwUSBinterf) refers to lib.o(i.__cxa_pure_virtual) for __cxa_pure_virtual
    lib.o(.constdata__ZTV12cHwUSBinterf) refers to lib.o(i._ZN12cHwUSBinterf13GetDescriptorEt) for cHwUSBinterf::GetDescriptor(unsigned short)
    lib.o(.constdata__ZTV12cHwUSBinterf) refers to lib.o(i._ZN12cHwUSBinterf10clrFeatureEv) for cHwUSBinterf::clrFeature()
    lib.o(.constdata__ZTV12cHwUSBinterf) refers to lib.o(i._ZN12cHwUSBinterf10setFeatureEv) for cHwUSBinterf::setFeature()
    lib.o(.constdata__ZTIN13cNetTransport6SocketE) refers to lib_rtti_impl.o(.constdata__ZTVN10__cxxabiv120__si_class_type_infoE) for vtable for __cxxabiv1::__si_class_type_info
    lib.o(.constdata__ZTIN13cNetTransport6SocketE) refers to lib.o(.constdata__ZTSN13cNetTransport6SocketE) for typeinfo name for cNetTransport::Socket
    lib.o(.constdata__ZTIN13cNetTransport6SocketE) refers to main.o(.constdata__ZTIN5cList4ItemE) for typeinfo for cList::Item
    lib.o(.constdata__ZTVN6cNetIP13cTimeOutTimerE) refers to lib.o(.constdata__ZTIN6cNetIP13cTimeOutTimerE) for typeinfo for cNetIP::cTimeOutTimer
    lib.o(.constdata__ZTVN6cNetIP13cTimeOutTimerE) refers to lib.o(i._ZN6cNetIP13cTimeOutTimer6updateEv) for cNetIP::cTimeOutTimer::update()
    lib.o(.constdata__ZTI8cHwTimer) refers to lib_rtti_impl.o(.constdata__ZTVN10__cxxabiv117__class_type_infoE) for vtable for __cxxabiv1::__class_type_info
    lib.o(.constdata__ZTI8cHwTimer) refers to lib.o(.constdata__ZTS8cHwTimer) for typeinfo name for cHwTimer
    lib.o(.constdata__ZTI11cDevDigital) refers to lib_rtti_impl.o(.constdata__ZTVN10__cxxabiv117__class_type_infoE) for vtable for __cxxabiv1::__class_type_info
    lib.o(.constdata__ZTI11cDevDigital) refers to lib.o(.constdata__ZTS11cDevDigital) for typeinfo name for cDevDigital
    lib.o(.constdata__ZTV10cHwDisplay) refers to lib.o(.constdata__ZTI10cHwDisplay) for typeinfo for cHwDisplay
    lib.o(.constdata__ZTV10cHwDisplay) refers to lib.o(i.__cxa_pure_virtual) for __cxa_pure_virtual
    lib.o(.constdata__ZTV10cHwDisplay) refers to lib.o(i._ZN10cHwDisplay16getNumberOfLinesEv) for cHwDisplay::getNumberOfLines()
    lib.o(.constdata__ZTV10cHwDisplay) refers to lib.o(i._ZN10cHwDisplay18getNumberOfColumnsEv) for cHwDisplay::getNumberOfColumns()
    lib.o(.constdata__ZTV11cDevDisplay) refers to lib.o(.constdata__ZTI11cDevDisplay) for typeinfo for cDevDisplay
    lib.o(.constdata__ZTV11cDevDisplay) refers to lib.o(i.__cxa_pure_virtual) for __cxa_pure_virtual
    lib.o(.constdata__ZTI17cHwDisplayGraphic) refers to lib_rtti_impl.o(.constdata__ZTVN10__cxxabiv120__si_class_type_infoE) for vtable for __cxxabiv1::__si_class_type_info
    lib.o(.constdata__ZTI17cHwDisplayGraphic) refers to lib.o(.constdata__ZTS17cHwDisplayGraphic) for typeinfo name for cHwDisplayGraphic
    lib.o(.constdata__ZTI17cHwDisplayGraphic) refers to lib.o(.constdata__ZTI10cHwDisplay) for typeinfo for cHwDisplay
    lib.o(.constdata__ZTV9cHwMemory) refers to lib.o(.constdata__ZTI9cHwMemory) for typeinfo for cHwMemory
    lib.o(.constdata__ZTV9cHwMemory) refers to lib.o(i.__cxa_pure_virtual) for __cxa_pure_virtual
    lib.o(.constdata__ZTV9cHwMemory) refers to lib.o(i._ZN9cHwMemory5writeEjh) for cHwMemory::write(unsigned, unsigned char)
    lib.o(.constdata__ZTV9cHwMemory) refers to lib.o(i._ZN9cHwMemory4readEj) for cHwMemory::read(unsigned)
    lib.o(.constdata__ZTV9cHwMemory) refers to lib.o(i._ZN9cHwMemory5clearEj) for cHwMemory::clear(unsigned)
    lib.o(.constdata__ZTV9cHwMemory) refers to lib.o(i._ZN9cHwMemory7getSizeEv) for cHwMemory::getSize()
    lib.o(.constdata__ZTV9cHwMemory) refers to lib.o(i._ZN9cHwMemory7isFlashEv) for cHwMemory::isFlash()
    lib.o(.constdata__ZTI6cHwADC) refers to lib_rtti_impl.o(.constdata__ZTVN10__cxxabiv120__si_class_type_infoE) for vtable for __cxxabiv1::__si_class_type_info
    lib.o(.constdata__ZTI6cHwADC) refers to lib.o(.constdata__ZTS6cHwADC) for typeinfo name for cHwADC
    lib.o(.constdata__ZTI6cHwADC) refers to main.o(.constdata__ZTIN5cList4ItemE) for typeinfo for cList::Item
    lib.o(.constdata__ZTV6cHwDAC) refers to lib.o(.constdata__ZTI6cHwDAC) for typeinfo for cHwDAC
    lib.o(.constdata__ZTV6cHwDAC) refers to lib.o(i.__cxa_pure_virtual) for __cxa_pure_virtual
    lib.o(.constdata__ZTV6cHwDAC) refers to lib.o(i._ZN6cHwDAC19getNumberOfChannelsEv) for cHwDAC::getNumberOfChannels()
    lib.o(.constdata__ZTV8cHwDAC_0) refers to lib.o(.constdata__ZTI8cHwDAC_0) for typeinfo for cHwDAC_0
    lib.o(.constdata__ZTV8cHwDAC_0) refers to lib.o(i._ZN8cHwDAC_03setEth) for cHwDAC_0::set(unsigned short, unsigned char)
    lib.o(.constdata__ZTV8cHwDAC_0) refers to lib.o(i._ZN8cHwDAC_06enableEh) for cHwDAC_0::enable(unsigned char)
    lib.o(.constdata__ZTV8cHwDAC_0) refers to lib.o(i._ZN6cHwDAC19getNumberOfChannelsEv) for cHwDAC::getNumberOfChannels()
    lib.o(.constdata__ZTI9cHwPort_N) refers to lib_rtti_impl.o(.constdata__ZTVN10__cxxabiv120__si_class_type_infoE) for vtable for __cxxabiv1::__si_class_type_info
    lib.o(.constdata__ZTI9cHwPort_N) refers to lib.o(.constdata__ZTS9cHwPort_N) for typeinfo name for cHwPort_N
    lib.o(.constdata__ZTI9cHwPort_N) refers to lib.o(.constdata__ZTI7cHwPort) for typeinfo for cHwPort
    lib.o(.constdata__ZTV9cHwUART_N) refers to lib.o(.constdata__ZTI9cHwUART_N) for typeinfo for cHwUART_N
    lib.o(.constdata__ZTV9cHwUART_N) refers to lib.o(i._ZN7cHwUART3setEh) for cHwUART::set(unsigned char)
    lib.o(.constdata__ZTV9cHwUART_N) refers to lib.o(i._ZN7cHwUART3setEPKhh) for cHwUART::set(const unsigned char*, unsigned char)
    lib.o(.constdata__ZTV9cHwUART_N) refers to lib.o(i._ZN7cHwUART3setEPKc) for cHwUART::set(const char*)
    lib.o(.constdata__ZTV9cHwUART_N) refers to lib.o(i._ZN7cHwUART14isTxBufferFullEv) for cHwUART::isTxBufferFull()
    lib.o(.constdata__ZTV9cHwUART_N) refers to lib.o(i._ZN7cHwUART3getEPh) for cHwUART::get(unsigned char*)
    lib.o(.constdata__ZTV9cHwUART_N) refers to lib.o(i._ZN7cHwUART3getEv) for cHwUART::get()
    lib.o(.constdata__ZTV9cHwUART_N) refers to lib.o(i._ZN7cHwUART5isrRxEv) for cHwUART::isrRx()
    lib.o(.constdata__ZTV9cHwUART_N) refers to lib.o(i._ZN7cHwUART5isrTxEv) for cHwUART::isrTx()
    lib.o(.constdata__ZTV9cHwUART_N) refers to lib.o(i._ZN7cHwUART12transmitByteEh) for cHwUART::transmitByte(unsigned char)
    lib.o(.constdata__ZTV9cHwUART_N) refers to lib.o(i._ZN9cHwUART_N7setByteEh) for cHwUART_N::setByte(unsigned char)
    lib.o(.constdata__ZTV9cHwUART_N) refers to lib.o(i._ZN9cHwUART_N7getByteEv) for cHwUART_N::getByte()
    lib.o(.constdata__ZTI7cHwUART) refers to lib_rtti_impl.o(.constdata__ZTVN10__cxxabiv117__class_type_infoE) for vtable for __cxxabiv1::__class_type_info
    lib.o(.constdata__ZTI7cHwUART) refers to lib.o(.constdata__ZTS7cHwUART) for typeinfo name for cHwUART
    lib.o(.constdata__ZTI6cHwUSB) refers to lib_rtti_impl.o(.constdata__ZTVN10__cxxabiv117__class_type_infoE) for vtable for __cxxabiv1::__class_type_info
    lib.o(.constdata__ZTI6cHwUSB) refers to lib.o(.constdata__ZTS6cHwUSB) for typeinfo name for cHwUSB
    lib.o(.constdata__ZTI8cHwUSB_0) refers to lib_rtti_impl.o(.constdata__ZTVN10__cxxabiv120__si_class_type_infoE) for vtable for __cxxabiv1::__si_class_type_info
    lib.o(.constdata__ZTI8cHwUSB_0) refers to lib.o(.constdata__ZTS8cHwUSB_0) for typeinfo name for cHwUSB_0
    lib.o(.constdata__ZTI8cHwUSB_0) refers to lib.o(.constdata__ZTI6cHwUSB) for typeinfo for cHwUSB
    lib.o(.constdata__ZTI11cHwEthernet) refers to lib_rtti_impl.o(.constdata__ZTVN10__cxxabiv117__class_type_infoE) for vtable for __cxxabiv1::__class_type_info
    lib.o(.constdata__ZTI11cHwEthernet) refers to lib.o(.constdata__ZTS11cHwEthernet) for typeinfo name for cHwEthernet
    lib.o(.constdata__ZTI12cHwI2Cmaster) refers to lib_rtti_impl.o(.constdata__ZTVN10__cxxabiv117__class_type_infoE) for vtable for __cxxabiv1::__class_type_info
    lib.o(.constdata__ZTI12cHwI2Cmaster) refers to lib.o(.constdata__ZTS12cHwI2Cmaster) for typeinfo name for cHwI2Cmaster
    lib.o(.constdata__ZTI17cHwI2Cmaster_Emul) refers to lib_rtti_impl.o(.constdata__ZTVN10__cxxabiv120__si_class_type_infoE) for vtable for __cxxabiv1::__si_class_type_info
    lib.o(.constdata__ZTI17cHwI2Cmaster_Emul) refers to lib.o(.constdata__ZTS17cHwI2Cmaster_Emul) for typeinfo name for cHwI2Cmaster_Emul
    lib.o(.constdata__ZTI17cHwI2Cmaster_Emul) refers to lib.o(.constdata__ZTI12cHwI2Cmaster) for typeinfo for cHwI2Cmaster
    lib.o(.constdata__ZTV12cHwSPImaster) refers to lib.o(.constdata__ZTI12cHwSPImaster) for typeinfo for cHwSPImaster
    lib.o(.constdata__ZTV12cHwSPImaster) refers to lib.o(i.__cxa_pure_virtual) for __cxa_pure_virtual
    lib.o(.constdata__ZTIN12cHwSPImaster6DeviceE) refers to lib_rtti_impl.o(.constdata__ZTVN10__cxxabiv117__class_type_infoE) for vtable for __cxxabiv1::__class_type_info
    lib.o(.constdata__ZTIN12cHwSPImaster6DeviceE) refers to lib.o(.constdata__ZTSN12cHwSPImaster6DeviceE) for typeinfo name for cHwSPImaster::Device
    lib.o(.constdata__ZTV8cHwTouch) refers to lib.o(.constdata__ZTI8cHwTouch) for typeinfo for cHwTouch
    lib.o(.constdata__ZTV8cHwTouch) refers to lib.o(i.__cxa_pure_virtual) for __cxa_pure_virtual
    lib.o(.constdata__ZTV8cHwTouch) refers to lib.o(i._ZN8cHwTouch7getPosXEv) for cHwTouch::getPosX()
    lib.o(.constdata__ZTV8cHwTouch) refers to lib.o(i._ZN8cHwTouch7getPosYEv) for cHwTouch::getPosY()
    lib.o(.constdata__ZTV8cHwTouch) refers to lib.o(i._ZN8cHwTouch9isTouchedEv) for cHwTouch::isTouched()
    lib.o(.constdata__ZTI10cHwUSBdesc) refers to lib_rtti_impl.o(.constdata__ZTVN10__cxxabiv117__class_type_infoE) for vtable for __cxxabiv1::__class_type_info
    lib.o(.constdata__ZTI10cHwUSBdesc) refers to lib.o(.constdata__ZTS10cHwUSBdesc) for typeinfo name for cHwUSBdesc
    lib.o(.constdata__ZTI10cHwUSBctrl) refers to lib_rtti_impl.o(.constdata__ZTVN10__cxxabiv117__class_type_infoE) for vtable for __cxxabiv1::__class_type_info
    lib.o(.constdata__ZTI10cHwUSBctrl) refers to lib.o(.constdata__ZTS10cHwUSBctrl) for typeinfo name for cHwUSBctrl
    lib.o(.constdata__ZTI7cNetTCP) refers to lib_rtti_impl.o(.constdata__ZTVN10__cxxabiv120__si_class_type_infoE) for vtable for __cxxabiv1::__si_class_type_info
    lib.o(.constdata__ZTI7cNetTCP) refers to lib.o(.constdata__ZTS7cNetTCP) for typeinfo name for cNetTCP
    lib.o(.constdata__ZTI7cNetTCP) refers to lib.o(.constdata__ZTI13cNetTransport) for typeinfo for cNetTransport
    lib.o(.constdata__ZTI7cNetUDP) refers to lib_rtti_impl.o(.constdata__ZTVN10__cxxabiv120__si_class_type_infoE) for vtable for __cxxabiv1::__si_class_type_info
    lib.o(.constdata__ZTI7cNetUDP) refers to lib.o(.constdata__ZTS7cNetUDP) for typeinfo name for cNetUDP
    lib.o(.constdata__ZTI7cNetUDP) refers to lib.o(.constdata__ZTI13cNetTransport) for typeinfo for cNetTransport
    lib.o(.constdata__ZTI13cNetTransport) refers to lib_rtti_impl.o(.constdata__ZTVN10__cxxabiv117__class_type_infoE) for vtable for __cxxabiv1::__class_type_info
    lib.o(.constdata__ZTI13cNetTransport) refers to lib.o(.constdata__ZTS13cNetTransport) for typeinfo name for cNetTransport
    lib.o(.constdata__ZTIN7cNetTCP6SocketE) refers to lib_rtti_impl.o(.constdata__ZTVN10__cxxabiv120__si_class_type_infoE) for vtable for __cxxabiv1::__si_class_type_info
    lib.o(.constdata__ZTIN7cNetTCP6SocketE) refers to lib.o(.constdata__ZTSN7cNetTCP6SocketE) for typeinfo name for cNetTCP::Socket
    lib.o(.constdata__ZTIN7cNetTCP6SocketE) refers to lib.o(.constdata__ZTIN13cNetTransport6SocketE) for typeinfo for cNetTransport::Socket
    lib.o(.constdata__ZTIN7cNetUDP6SocketE) refers to lib_rtti_impl.o(.constdata__ZTVN10__cxxabiv120__si_class_type_infoE) for vtable for __cxxabiv1::__si_class_type_info
    lib.o(.constdata__ZTIN7cNetUDP6SocketE) refers to lib.o(.constdata__ZTSN7cNetUDP6SocketE) for typeinfo name for cNetUDP::Socket
    lib.o(.constdata__ZTIN7cNetUDP6SocketE) refers to lib.o(.constdata__ZTIN13cNetTransport6SocketE) for typeinfo for cNetTransport::Socket
    lib.o(.constdata__ZTV12cDevAnalogIn) refers to lib.o(.constdata__ZTI12cDevAnalogIn) for typeinfo for cDevAnalogIn
    lib.o(.constdata__ZTV12cDevAnalogIn) refers to lib.o(i._ZN12cDevAnalogIn3getEv) for cDevAnalogIn::get()
    lib.o(.constdata__ZTV12cDevAnalogIn) refers to lib.o(i._ZN12cDevAnalogIncvfEv) for cDevAnalogIn::operator float()
    lib.o(.constdata__ZTV12cDevAnalogIn) refers to lib.o(i.__cxa_pure_virtual) for __cxa_pure_virtual
    lib.o(.constdata__ZTI13cDevAnalogOut) refers to lib_rtti_impl.o(.constdata__ZTVN10__cxxabiv121__vmi_class_type_infoE) for vtable for __cxxabiv1::__vmi_class_type_info
    lib.o(.constdata__ZTI13cDevAnalogOut) refers to lib.o(.constdata__ZTS13cDevAnalogOut) for typeinfo name for cDevAnalogOut
    lib.o(.constdata__ZTI13cDevAnalogOut) refers to lib.o(.constdata__ZTI10cDevAnalog) for typeinfo for cDevAnalog
    lib.o(.constdata__ZTI20cDevDigitalIndicator) refers to lib_rtti_impl.o(.constdata__ZTVN10__cxxabiv120__si_class_type_infoE) for vtable for __cxxabiv1::__si_class_type_info
    lib.o(.constdata__ZTI20cDevDigitalIndicator) refers to lib.o(.constdata__ZTS20cDevDigitalIndicator) for typeinfo name for cDevDigitalIndicator
    lib.o(.constdata__ZTI20cDevDigitalIndicator) refers to main.o(.constdata__ZTIN5cList4ItemE) for typeinfo for cList::Item
    lib.o(.constdata__ZTI18cDevDisplayGraphic) refers to lib_rtti_impl.o(.constdata__ZTVN10__cxxabiv120__si_class_type_infoE) for vtable for __cxxabiv1::__si_class_type_info
    lib.o(.constdata__ZTI18cDevDisplayGraphic) refers to lib.o(.constdata__ZTS18cDevDisplayGraphic) for typeinfo name for cDevDisplayGraphic
    lib.o(.constdata__ZTI18cDevDisplayGraphic) refers to lib.o(.constdata__ZTI11cDevDisplay) for typeinfo for cDevDisplay
    lib.o(.constdata__ZTI10cDevTextIO) refers to lib_rtti_impl.o(.constdata__ZTVN10__cxxabiv117__class_type_infoE) for vtable for __cxxabiv1::__class_type_info
    lib.o(.constdata__ZTI10cDevTextIO) refers to lib.o(.constdata__ZTS10cDevTextIO) for typeinfo name for cDevTextIO
    lib.o(.constdata__ZTV15cDevTextIO_UART) refers to lib.o(.constdata__ZTI15cDevTextIO_UART) for typeinfo for cDevTextIO_UART
    lib.o(.constdata__ZTV15cDevTextIO_UART) refers to lib.o(i._ZN10cDevTextIO6printfEPKcz) for cDevTextIO::printf(const char*, ...)
    lib.o(.constdata__ZTV15cDevTextIO_UART) refers to lib.o(i._ZN15cDevTextIO_UART3setEPhh) for cDevTextIO_UART::set(unsigned char*, unsigned char)
    lib.o(.constdata__ZTV15cDevTextIO_UART) refers to lib.o(i._ZN15cDevTextIO_UART3getEPh) for cDevTextIO_UART::get(unsigned char*)
    lib.o(.constdata__ZTI18cDevControlEncoder) refers to lib_rtti_impl.o(.constdata__ZTVN10__cxxabiv120__si_class_type_infoE) for vtable for __cxxabiv1::__si_class_type_info
    lib.o(.constdata__ZTI18cDevControlEncoder) refers to lib.o(.constdata__ZTS18cDevControlEncoder) for typeinfo name for cDevControlEncoder
    lib.o(.constdata__ZTI18cDevControlEncoder) refers to main.o(.constdata__ZTIN5cList4ItemE) for typeinfo for cList::Item
    lib.o(.constdata__ZTV6cTimer) refers to lib.o(.constdata__ZTI6cTimer) for typeinfo for cTimer
    lib.o(.constdata__ZTV6cTimer) refers to lib.o(i.__cxa_pure_virtual) for __cxa_pure_virtual
    lib.o(.constdata__ZTI12cTaskHandler) refers to lib_rtti_impl.o(.constdata__ZTVN10__cxxabiv120__si_class_type_infoE) for vtable for __cxxabiv1::__si_class_type_info
    lib.o(.constdata__ZTI12cTaskHandler) refers to lib.o(.constdata__ZTS12cTaskHandler) for typeinfo name for cTaskHandler
    lib.o(.constdata__ZTI12cTaskHandler) refers to main.o(.constdata__ZTIN5cList4ItemE) for typeinfo for cList::Item
    lib.o(.constdata__ZTVN12cTaskHandler4TaskE) refers to main.o(.constdata__ZTIN12cTaskHandler4TaskE) for typeinfo for cTaskHandler::Task
    lib.o(.constdata__ZTVN12cTaskHandler4TaskE) refers to lib.o(i.__cxa_pure_virtual) for __cxa_pure_virtual
    lib.o(.constdata__ZTI8cHwADC_0) refers to lib_rtti_impl.o(.constdata__ZTVN10__cxxabiv120__si_class_type_infoE) for vtable for __cxxabiv1::__si_class_type_info
    lib.o(.constdata__ZTI8cHwADC_0) refers to lib.o(.constdata__ZTS8cHwADC_0) for typeinfo name for cHwADC_0
    lib.o(.constdata__ZTI8cHwADC_0) refers to lib.o(.constdata__ZTI6cHwADC) for typeinfo for cHwADC
    lib.o(.constdata__ZTI15cHwEthernet_MCU) refers to lib_rtti_impl.o(.constdata__ZTVN10__cxxabiv120__si_class_type_infoE) for vtable for __cxxabiv1::__si_class_type_info
    lib.o(.constdata__ZTI15cHwEthernet_MCU) refers to lib.o(.constdata__ZTS15cHwEthernet_MCU) for typeinfo name for cHwEthernet_MCU
    lib.o(.constdata__ZTI15cHwEthernet_MCU) refers to lib.o(.constdata__ZTI11cHwEthernet) for typeinfo for cHwEthernet
    lib.o(.constdata__ZTIN12cHwI2Cmaster6DeviceE) refers to lib_rtti_impl.o(.constdata__ZTVN10__cxxabiv117__class_type_infoE) for vtable for __cxxabiv1::__class_type_info
    lib.o(.constdata__ZTIN12cHwI2Cmaster6DeviceE) refers to lib.o(.constdata__ZTSN12cHwI2Cmaster6DeviceE) for typeinfo name for cHwI2Cmaster::Device
    lib.o(.constdata__ZTI14cHwI2Cmaster_N) refers to lib_rtti_impl.o(.constdata__ZTVN10__cxxabiv120__si_class_type_infoE) for vtable for __cxxabiv1::__si_class_type_info
    lib.o(.constdata__ZTI14cHwI2Cmaster_N) refers to lib.o(.constdata__ZTS14cHwI2Cmaster_N) for typeinfo name for cHwI2Cmaster_N
    lib.o(.constdata__ZTI14cHwI2Cmaster_N) refers to lib.o(.constdata__ZTI12cHwI2Cmaster) for typeinfo for cHwI2Cmaster
    lib.o(.constdata__ZTI15cHwMemory_Flash) refers to lib_rtti_impl.o(.constdata__ZTVN10__cxxabiv120__si_class_type_infoE) for vtable for __cxxabiv1::__si_class_type_info
    lib.o(.constdata__ZTI15cHwMemory_Flash) refers to lib.o(.constdata__ZTS15cHwMemory_Flash) for typeinfo name for cHwMemory_Flash
    lib.o(.constdata__ZTI15cHwMemory_Flash) refers to lib.o(.constdata__ZTI9cHwMemory) for typeinfo for cHwMemory
    lib.o(.constdata__ZTI8cHwRTC_0) refers to lib_rtti_impl.o(.constdata__ZTVN10__cxxabiv120__si_class_type_infoE) for vtable for __cxxabiv1::__si_class_type_info
    lib.o(.constdata__ZTI8cHwRTC_0) refers to lib.o(.constdata__ZTS8cHwRTC_0) for typeinfo name for cHwRTC_0
    lib.o(.constdata__ZTI8cHwRTC_0) refers to lib.o(.constdata__ZTI6cHwRTC) for typeinfo for cHwRTC
    lib.o(.constdata__ZTI10cHwTimer_N) refers to lib_rtti_impl.o(.constdata__ZTVN10__cxxabiv120__si_class_type_infoE) for vtable for __cxxabiv1::__si_class_type_info
    lib.o(.constdata__ZTI10cHwTimer_N) refers to lib.o(.constdata__ZTS10cHwTimer_N) for typeinfo name for cHwTimer_N
    lib.o(.constdata__ZTI10cHwTimer_N) refers to lib.o(.constdata__ZTI8cHwTimer) for typeinfo for cHwTimer
    lib.o(.constdata__ZTI8cNetDHCP) refers to lib_rtti_impl.o(.constdata__ZTVN10__cxxabiv120__si_class_type_infoE) for vtable for __cxxabiv1::__si_class_type_info
    lib.o(.constdata__ZTI8cNetDHCP) refers to lib.o(.constdata__ZTS8cNetDHCP) for typeinfo name for cNetDHCP
    lib.o(.constdata__ZTI8cNetDHCP) refers to lib.o(.constdata__ZTI15cNetApplication) for typeinfo for cNetApplication
    lib.o(.constdata__ZTI15cDevAnalogInADC) refers to lib_rtti_impl.o(.constdata__ZTVN10__cxxabiv120__si_class_type_infoE) for vtable for __cxxabiv1::__si_class_type_info
    lib.o(.constdata__ZTI15cDevAnalogInADC) refers to lib.o(.constdata__ZTS15cDevAnalogInADC) for typeinfo name for cDevAnalogInADC
    lib.o(.constdata__ZTI15cDevAnalogInADC) refers to lib.o(.constdata__ZTI12cDevAnalogIn) for typeinfo for cDevAnalogIn
    lib.o(.constdata__ZTI16cDevAnalogOutDAC) refers to lib_rtti_impl.o(.constdata__ZTVN10__cxxabiv120__si_class_type_infoE) for vtable for __cxxabiv1::__si_class_type_info
    lib.o(.constdata__ZTI16cDevAnalogOutDAC) refers to lib.o(.constdata__ZTS16cDevAnalogOutDAC) for typeinfo name for cDevAnalogOutDAC
    lib.o(.constdata__ZTI16cDevAnalogOutDAC) refers to lib.o(.constdata__ZTI13cDevAnalogOut) for typeinfo for cDevAnalogOut
    lib.o(.constdata__ZTI16cDevAnalogOutPWM) refers to lib_rtti_impl.o(.constdata__ZTVN10__cxxabiv120__si_class_type_infoE) for vtable for __cxxabiv1::__si_class_type_info
    lib.o(.constdata__ZTI16cDevAnalogOutPWM) refers to lib.o(.constdata__ZTS16cDevAnalogOutPWM) for typeinfo name for cDevAnalogOutPWM
    lib.o(.constdata__ZTI16cDevAnalogOutPWM) refers to lib.o(.constdata__ZTI13cDevAnalogOut) for typeinfo for cDevAnalogOut
    lib.o(.constdata__ZTI20cDevAnalogOutPWMemul) refers to lib_rtti_impl.o(.constdata__ZTVN10__cxxabiv121__vmi_class_type_infoE) for vtable for __cxxabiv1::__vmi_class_type_info
    lib.o(.constdata__ZTI20cDevAnalogOutPWMemul) refers to lib.o(.constdata__ZTS20cDevAnalogOutPWMemul) for typeinfo name for cDevAnalogOutPWMemul
    lib.o(.constdata__ZTI20cDevAnalogOutPWMemul) refers to lib.o(.constdata__ZTI13cDevAnalogOut) for typeinfo for cDevAnalogOut
    lib.o(.constdata__ZTI20cDevAnalogOutPWMemul) refers to main.o(.constdata__ZTIN5cList4ItemE) for typeinfo for cList::Item
    lib.o(.constdata__ZTI15cDevDisplayChar) refers to lib_rtti_impl.o(.constdata__ZTVN10__cxxabiv120__si_class_type_infoE) for vtable for __cxxabiv1::__si_class_type_info
    lib.o(.constdata__ZTI15cDevDisplayChar) refers to lib.o(.constdata__ZTS15cDevDisplayChar) for typeinfo name for cDevDisplayChar
    lib.o(.constdata__ZTI15cDevDisplayChar) refers to lib.o(.constdata__ZTI11cDevDisplay) for typeinfo for cDevDisplay
    lib.o(.constdata__ZTI26cDevControlEncoderJoystick) refers to lib_rtti_impl.o(.constdata__ZTVN10__cxxabiv120__si_class_type_infoE) for vtable for __cxxabiv1::__si_class_type_info
    lib.o(.constdata__ZTI26cDevControlEncoderJoystick) refers to lib.o(.constdata__ZTS26cDevControlEncoderJoystick) for typeinfo name for cDevControlEncoderJoystick
    lib.o(.constdata__ZTI26cDevControlEncoderJoystick) refers to lib.o(.constdata__ZTI18cDevControlEncoder) for typeinfo for cDevControlEncoder
    lib.o(.constdata__ZTI28cDevControlEncoderRotaryKnob) refers to lib_rtti_impl.o(.constdata__ZTVN10__cxxabiv120__si_class_type_infoE) for vtable for __cxxabiv1::__si_class_type_info
    lib.o(.constdata__ZTI28cDevControlEncoderRotaryKnob) refers to lib.o(.constdata__ZTS28cDevControlEncoderRotaryKnob) for typeinfo name for cDevControlEncoderRotaryKnob
    lib.o(.constdata__ZTI28cDevControlEncoderRotaryKnob) refers to lib.o(.constdata__ZTI18cDevControlEncoder) for typeinfo for cDevControlEncoder
    lib.o(.constdata__ZTI18cDevControlPointer) refers to lib_rtti_impl.o(.constdata__ZTVN10__cxxabiv117__class_type_infoE) for vtable for __cxxabiv1::__class_type_info
    lib.o(.constdata__ZTI18cDevControlPointer) refers to lib.o(.constdata__ZTS18cDevControlPointer) for typeinfo name for cDevControlPointer
    lib.o(.constdata__ZTIN12cTaskHandler5TimerE) refers to lib_rtti_impl.o(.constdata__ZTVN10__cxxabiv120__si_class_type_infoE) for vtable for __cxxabiv1::__si_class_type_info
    lib.o(.constdata__ZTIN12cTaskHandler5TimerE) refers to lib.o(.constdata__ZTSN12cTaskHandler5TimerE) for typeinfo name for cTaskHandler::Timer
    lib.o(.constdata__ZTIN12cTaskHandler5TimerE) refers to lib.o(.constdata__ZTI6cTimer) for typeinfo for cTimer
    lib.o(.constdata__ZTI7cHwPort) refers to lib_rtti_impl.o(.constdata__ZTVN10__cxxabiv117__class_type_infoE) for vtable for __cxxabiv1::__class_type_info
    lib.o(.constdata__ZTI7cHwPort) refers to lib.o(.constdata__ZTS7cHwPort) for typeinfo name for cHwPort
    lib.o(.constdata__ZTI15cNetApplication) refers to lib_rtti_impl.o(.constdata__ZTVN10__cxxabiv120__si_class_type_infoE) for vtable for __cxxabiv1::__si_class_type_info
    lib.o(.constdata__ZTI15cNetApplication) refers to lib.o(.constdata__ZTS15cNetApplication) for typeinfo name for cNetApplication
    lib.o(.constdata__ZTI15cNetApplication) refers to main.o(.constdata__ZTIN5cList4ItemE) for typeinfo for cList::Item
    lib.o(.constdata__ZTI9cHwMemory) refers to lib_rtti_impl.o(.constdata__ZTVN10__cxxabiv117__class_type_infoE) for vtable for __cxxabiv1::__class_type_info
    lib.o(.constdata__ZTI9cHwMemory) refers to lib.o(.constdata__ZTS9cHwMemory) for typeinfo name for cHwMemory
    lib.o(.constdata__ZTIN7cHwPort3PinE) refers to lib_rtti_impl.o(.constdata__ZTVN10__cxxabiv117__class_type_infoE) for vtable for __cxxabiv1::__class_type_info
    lib.o(.constdata__ZTIN7cHwPort3PinE) refers to lib.o(.constdata__ZTSN7cHwPort3PinE) for typeinfo name for cHwPort::Pin
    lib.o(.constdata__ZTI12cHwSPImaster) refers to lib_rtti_impl.o(.constdata__ZTVN10__cxxabiv117__class_type_infoE) for vtable for __cxxabiv1::__class_type_info
    lib.o(.constdata__ZTI12cHwSPImaster) refers to lib.o(.constdata__ZTS12cHwSPImaster) for typeinfo name for cHwSPImaster
    lib.o(.constdata__ZTI12cHwUSBinterf) refers to lib_rtti_impl.o(.constdata__ZTVN10__cxxabiv117__class_type_infoE) for vtable for __cxxabiv1::__class_type_info
    lib.o(.constdata__ZTI12cHwUSBinterf) refers to lib.o(.constdata__ZTS12cHwUSBinterf) for typeinfo name for cHwUSBinterf
    lib.o(.constdata__ZTI12cDevAnalogIn) refers to lib_rtti_impl.o(.constdata__ZTVN10__cxxabiv121__vmi_class_type_infoE) for vtable for __cxxabiv1::__vmi_class_type_info
    lib.o(.constdata__ZTI12cDevAnalogIn) refers to lib.o(.constdata__ZTS12cDevAnalogIn) for typeinfo name for cDevAnalogIn
    lib.o(.constdata__ZTI12cDevAnalogIn) refers to lib.o(.constdata__ZTI10cDevAnalog) for typeinfo for cDevAnalog
    lib.o(.constdata__ZTI6cHwDAC) refers to lib_rtti_impl.o(.constdata__ZTVN10__cxxabiv117__class_type_infoE) for vtable for __cxxabiv1::__class_type_info
    lib.o(.constdata__ZTI6cHwDAC) refers to lib.o(.constdata__ZTS6cHwDAC) for typeinfo name for cHwDAC
    lib.o(.constdata__ZTI10cHwDisplay) refers to lib_rtti_impl.o(.constdata__ZTVN10__cxxabiv117__class_type_infoE) for vtable for __cxxabiv1::__class_type_info
    lib.o(.constdata__ZTI10cHwDisplay) refers to lib.o(.constdata__ZTS10cHwDisplay) for typeinfo name for cHwDisplay
    lib.o(.constdata__ZTI8cHwTouch) refers to lib_rtti_impl.o(.constdata__ZTVN10__cxxabiv117__class_type_infoE) for vtable for __cxxabiv1::__class_type_info
    lib.o(.constdata__ZTI8cHwTouch) refers to lib.o(.constdata__ZTS8cHwTouch) for typeinfo name for cHwTouch
    lib.o(.constdata__ZTI6cTimer) refers to lib_rtti_impl.o(.constdata__ZTVN10__cxxabiv117__class_type_infoE) for vtable for __cxxabiv1::__class_type_info
    lib.o(.constdata__ZTI6cTimer) refers to lib.o(.constdata__ZTS6cTimer) for typeinfo name for cTimer
    lib.o(.constdata__ZTI8cHwDAC_0) refers to lib_rtti_impl.o(.constdata__ZTVN10__cxxabiv120__si_class_type_infoE) for vtable for __cxxabiv1::__si_class_type_info
    lib.o(.constdata__ZTI8cHwDAC_0) refers to lib.o(.constdata__ZTS8cHwDAC_0) for typeinfo name for cHwDAC_0
    lib.o(.constdata__ZTI8cHwDAC_0) refers to lib.o(.constdata__ZTI6cHwDAC) for typeinfo for cHwDAC
    lib.o(.constdata__ZTI6cHwRTC) refers to lib_rtti_impl.o(.constdata__ZTVN10__cxxabiv117__class_type_infoE) for vtable for __cxxabiv1::__class_type_info
    lib.o(.constdata__ZTI6cHwRTC) refers to lib.o(.constdata__ZTS6cHwRTC) for typeinfo name for cHwRTC
    lib.o(.constdata__ZTI9cHwUART_N) refers to lib_rtti_impl.o(.constdata__ZTVN10__cxxabiv120__si_class_type_infoE) for vtable for __cxxabiv1::__si_class_type_info
    lib.o(.constdata__ZTI9cHwUART_N) refers to lib.o(.constdata__ZTS9cHwUART_N) for typeinfo name for cHwUART_N
    lib.o(.constdata__ZTI9cHwUART_N) refers to lib.o(.constdata__ZTI7cHwUART) for typeinfo for cHwUART
    lib.o(.constdata__ZTIN6cNetIP13cTimeOutTimerE) refers to lib_rtti_impl.o(.constdata__ZTVN10__cxxabiv120__si_class_type_infoE) for vtable for __cxxabiv1::__si_class_type_info
    lib.o(.constdata__ZTIN6cNetIP13cTimeOutTimerE) refers to lib.o(.constdata__ZTSN6cNetIP13cTimeOutTimerE) for typeinfo name for cNetIP::cTimeOutTimer
    lib.o(.constdata__ZTIN6cNetIP13cTimeOutTimerE) refers to main.o(.constdata__ZTIN5cList4ItemE) for typeinfo for cList::Item
    lib.o(.constdata__ZTI11cDevDisplay) refers to lib_rtti_impl.o(.constdata__ZTVN10__cxxabiv117__class_type_infoE) for vtable for __cxxabiv1::__class_type_info
    lib.o(.constdata__ZTI11cDevDisplay) refers to lib.o(.constdata__ZTS11cDevDisplay) for typeinfo name for cDevDisplay
    lib.o(.constdata__ZTI15cDevTextIO_UART) refers to lib_rtti_impl.o(.constdata__ZTVN10__cxxabiv120__si_class_type_infoE) for vtable for __cxxabiv1::__si_class_type_info
    lib.o(.constdata__ZTI15cDevTextIO_UART) refers to lib.o(.constdata__ZTS15cDevTextIO_UART) for typeinfo name for cDevTextIO_UART
    lib.o(.constdata__ZTI15cDevTextIO_UART) refers to lib.o(.constdata__ZTI10cDevTextIO) for typeinfo for cDevTextIO
    lib.o(.constdata__ZTI10cDevAnalog) refers to lib_rtti_impl.o(.constdata__ZTVN10__cxxabiv117__class_type_infoE) for vtable for __cxxabiv1::__class_type_info
    lib.o(.constdata__ZTI10cDevAnalog) refers to lib.o(.constdata__ZTS10cDevAnalog) for typeinfo name for cDevAnalog
    lib.o(.ARM.exidx) refers to lib.o(i._ZN5cList4Item6updateEv) for i._ZN5cList4Item6updateEv
    lib.o(.ARM.exidx) refers to lib.o(i._ZN6cHwDAC19getNumberOfChannelsEv) for i._ZN6cHwDAC19getNumberOfChannelsEv
    lib.o(.ARM.exidx) refers to lib.o(i._ZN8cHwDAC_03setEth) for i._ZN8cHwDAC_03setEth
    lib.o(i._ZN8cHwDAC_06enableEh) refers to lib.o(i._ZN12cHwPinConfig3setENS_8FunctionEj) for cHwPinConfig::set(cHwPinConfig::Function, unsigned)
    lib.o(.ARM.exidx) refers to lib.o(i._ZN8cHwDAC_06enableEh) for i._ZN8cHwDAC_06enableEh
    lib.o(.ARM.exidx) refers to lib.o(i._ZN9cHwMemory5clearEj) for i._ZN9cHwMemory5clearEj
    lib.o(.ARM.exidx) refers to lib.o(i._ZN9cHwUART_N7getByteEv) for i._ZN9cHwUART_N7getByteEv
    lib.o(.ARM.exidx) refers to lib.o(i._ZN9cHwUART_N7setByteEh) for i._ZN9cHwUART_N7setByteEh
    lib.o(i._ZN12cHwUSBinterf13GetDescriptorEt) refers to lib.o(i._ZN12cDataPointerC1Ev) for cDataPointer::cDataPointer()
    lib.o(.ARM.exidx) refers to lib.o(i._ZN12cHwUSBinterf13GetDescriptorEt) for i._ZN12cHwUSBinterf13GetDescriptorEt
    lib.o(.ARM.exidx) refers to lib.o(i._ZN12cHwUSBinterf10clrFeatureEv) for i._ZN12cHwUSBinterf10clrFeatureEv
    lib.o(.ARM.exidx) refers to lib.o(i._ZN12cHwUSBinterf10setFeatureEv) for i._ZN12cHwUSBinterf10setFeatureEv
    lib.o(.ARM.exidx) refers to lib.o(i._ZN6cNetIP13cTimeOutTimer6updateEv) for i._ZN6cNetIP13cTimeOutTimer6updateEv
    lib.o(.ARM.exidx) refers to lib.o(i._ZN15cDevTextIO_UART3setEPhh) for i._ZN15cDevTextIO_UART3setEPhh
    lib.o(.ARM.exidx) refers to lib.o(i._ZN15cDevTextIO_UART3getEPh) for i._ZN15cDevTextIO_UART3getEPh
    lib.o(.ARM.exidx) refers to lib.o(i._ZN8cHwTouch7getPosXEv) for i._ZN8cHwTouch7getPosXEv
    lib.o(.ARM.exidx) refers to lib.o(i._ZN8cHwTouch7getPosYEv) for i._ZN8cHwTouch7getPosYEv
    lib.o(.ARM.exidx) refers to lib.o(i._ZN8cHwTouch9isTouchedEv) for i._ZN8cHwTouch9isTouchedEv
    rtos.o(.constdata__ZTVN5cRTOS4TaskE) refers to rtos.o(.constdata__ZTIN5cRTOS4TaskE) for typeinfo for cRTOS::Task
    rtos.o(.constdata__ZTVN5cRTOS4TaskE) refers to rtos.o(i._ZN5cRTOS4TaskD2Ev) for cRTOS::Task::~Task__sub_object()
    rtos.o(.constdata__ZTVN5cRTOS4TaskE) refers to rtos.o(i._ZN5cRTOS4TaskD0Ev) for cRTOS::Task::~Task__deallocating()
    rtos.o(.constdata__ZTVN5cRTOS4TaskE) refers to rtos.o(i._ZN5cRTOS4Task4StopEv) for cRTOS::Task::Stop()
    rtos.o(.constdata__ZTVN5cRTOS4TaskE) refers to rtos.o(i._ZN5cRTOS4Task5PauseEt) for cRTOS::Task::Pause(unsigned short)
    rtos.o(.constdata__ZTVN5cRTOS4TaskE) refers to rtos.o(i._ZN5cRTOS4Task5StartEv) for cRTOS::Task::Start()
    rtos.o(.constdata__ZTVN5cRTOS4TaskE) refers to rtos.o(i._ZN5cRTOS4Task6FinishEv) for cRTOS::Task::Finish()
    rtos.o(.constdata__ZTVN5cRTOS4TaskE) refers to main.o(i._ZN5cRTOS4Task8isActiveEv) for cRTOS::Task::isActive()
    rtos.o(.constdata__ZTVN5cRTOS4TaskE) refers to lib.o(i.__cxa_pure_virtual) for __cxa_pure_virtual
    rtos.o(.constdata__ZTVN5cRTOS4TaskE) refers to rtos.o(i._ZN5cRTOS4Task7OnStartEv) for cRTOS::Task::OnStart()
    rtos.o(.constdata__ZTVN5cRTOS4TaskE) refers to rtos.o(i._ZN5cRTOS4Task6OnStopEv) for cRTOS::Task::OnStop()
    rtos.o(.constdata__ZTVN5cRTOS5TimerE) refers to rtos.o(.constdata__ZTIN5cRTOS5TimerE) for typeinfo for cRTOS::Timer
    rtos.o(.constdata__ZTVN5cRTOS5TimerE) refers to rtos.o(i._ZN5cRTOS5Timer7getTicsEv) for cRTOS::Timer::getTics()
    rtos.o(.constdata__ZTVN5cRTOS5TimerE) refers to rtos.o(i._ZN5cRTOS5Timer12getTimeOfTicEv) for cRTOS::Timer::getTimeOfTic()
    rtos.o(.ARM.exidx) refers to rtos.o(i._ZN11cHwRTOS_MCU10deleteFuncEv) for i._ZN11cHwRTOS_MCU10deleteFuncEv
    rtos.o(i._ZN11cHwRTOS_MCU10getSysTimeEv) refers to lludivv7m.o(.text) for __aeabi_uldivmod
    rtos.o(i._ZN11cHwRTOS_MCU10getSysTimeEv) refers to lib.o(.data) for cHwRTOS_MCU::sysTic
    rtos.o(i._ZN11cHwRTOS_MCU10getSysTimeEv) refers to lib.o(.data) for cHwRTOS_MCU::sysTicTime
    rtos.o(.ARM.exidx) refers to rtos.o(i._ZN11cHwRTOS_MCU10getSysTimeEv) for i._ZN11cHwRTOS_MCU10getSysTimeEv
    rtos.o(.ARM.exidx) refers to rtos.o(i._ZN5cRTOS4Task7OnStartEv) for i._ZN5cRTOS4Task7OnStartEv
    rtos.o(.ARM.exidx) refers to rtos.o(i._ZN5cRTOS4Task6OnStopEv) for i._ZN5cRTOS4Task6OnStopEv
    rtos.o(.constdata__ZTV5cRTOS) refers to main.o(.constdata__ZTI5cRTOS) for typeinfo for cRTOS
    rtos.o(.constdata__ZTV5cRTOS) refers to lib.o(i.__cxa_pure_virtual) for __cxa_pure_virtual
    rtos.o(.constdata__ZTIN5cRTOS4TaskE) refers to lib_rtti_impl.o(.constdata__ZTVN10__cxxabiv117__class_type_infoE) for vtable for __cxxabiv1::__class_type_info
    rtos.o(.constdata__ZTIN5cRTOS4TaskE) refers to rtos.o(.constdata__ZTSN5cRTOS4TaskE) for typeinfo name for cRTOS::Task
    rtos.o(.constdata__ZTIN5cRTOS5TimerE) refers to lib_rtti_impl.o(.constdata__ZTVN10__cxxabiv120__si_class_type_infoE) for vtable for __cxxabiv1::__si_class_type_info
    rtos.o(.constdata__ZTIN5cRTOS5TimerE) refers to rtos.o(.constdata__ZTSN5cRTOS5TimerE) for typeinfo name for cRTOS::Timer
    rtos.o(.constdata__ZTIN5cRTOS5TimerE) refers to lib.o(.constdata__ZTI6cTimer) for typeinfo for cTimer
    disp_otm8009a.o(.constdata__ZTV19cHwDisp_OTM8009Acmd) refers to disp_otm8009a.o(.constdata__ZTI19cHwDisp_OTM8009Acmd) for typeinfo for cHwDisp_OTM8009Acmd
    disp_otm8009a.o(.constdata__ZTV19cHwDisp_OTM8009Acmd) refers to disp_otm8009a.o(i._ZN19cHwDisp_OTM8009Acmd5clearEv) for cHwDisp_OTM8009Acmd::clear()
    disp_otm8009a.o(.constdata__ZTV19cHwDisp_OTM8009Acmd) refers to disp_otm8009a.o(i._ZN19cHwDisp_OTM8009Acmd7refreshEv) for cHwDisp_OTM8009Acmd::refresh()
    disp_otm8009a.o(.constdata__ZTV19cHwDisp_OTM8009Acmd) refers to lib.o(i._ZN17cHwDisplayGraphic11gotoTextPosEhh) for cHwDisplayGraphic::gotoTextPos(unsigned char, unsigned char)
    disp_otm8009a.o(.constdata__ZTV19cHwDisp_OTM8009Acmd) refers to lib.o(i._ZN17cHwDisplayGraphic7putCharEc) for cHwDisplayGraphic::putChar(char)
    disp_otm8009a.o(.constdata__ZTV19cHwDisp_OTM8009Acmd) refers to lib.o(i._ZN10cHwDisplay16getNumberOfLinesEv) for cHwDisplay::getNumberOfLines()
    disp_otm8009a.o(.constdata__ZTV19cHwDisp_OTM8009Acmd) refers to lib.o(i._ZN10cHwDisplay18getNumberOfColumnsEv) for cHwDisplay::getNumberOfColumns()
    disp_otm8009a.o(.constdata__ZTV19cHwDisp_OTM8009Acmd) refers to lib.o(i._ZN17cHwDisplayGraphic7setFontE14cHwDisplayFonth) for cHwDisplayGraphic::setFont(cHwDisplayFont, unsigned char)
    disp_otm8009a.o(.constdata__ZTV19cHwDisp_OTM8009Acmd) refers to lib.o(i._ZN17cHwDisplayGraphic7setZoomEh) for cHwDisplayGraphic::setZoom(unsigned char)
    disp_otm8009a.o(.constdata__ZTV19cHwDisp_OTM8009Acmd) refers to lib.o(i._ZN17cHwDisplayGraphic12setBackColorEt) for cHwDisplayGraphic::setBackColor(unsigned short)
    disp_otm8009a.o(.constdata__ZTV19cHwDisp_OTM8009Acmd) refers to lib.o(i._ZN17cHwDisplayGraphic13setPaintColorEt) for cHwDisplayGraphic::setPaintColor(unsigned short)
    disp_otm8009a.o(.constdata__ZTV19cHwDisp_OTM8009Acmd) refers to lib.o(i._ZN17cHwDisplayGraphic12setTextColorEt) for cHwDisplayGraphic::setTextColor(unsigned short)
    disp_otm8009a.o(.constdata__ZTV19cHwDisp_OTM8009Acmd) refers to lib.o(i._ZN17cHwDisplayGraphic12gotoPixelPosEtt) for cHwDisplayGraphic::gotoPixelPos(unsigned short, unsigned short)
    disp_otm8009a.o(.constdata__ZTV19cHwDisp_OTM8009Acmd) refers to lib.o(i._ZN17cHwDisplayGraphic8putPixelEtt) for cHwDisplayGraphic::putPixel(unsigned short, unsigned short)
    disp_otm8009a.o(.constdata__ZTV19cHwDisp_OTM8009Acmd) refers to lib.o(i._ZN17cHwDisplayGraphic12putRectangleEtttt) for cHwDisplayGraphic::putRectangle(unsigned short, unsigned short, unsigned short, unsigned short)
    disp_otm8009a.o(.constdata__ZTV19cHwDisp_OTM8009Acmd) refers to lib.o(i._ZN17cHwDisplayGraphic9putBitmapEttttPKt) for cHwDisplayGraphic::putBitmap(unsigned short, unsigned short, unsigned short, unsigned short, const unsigned short*)
    disp_otm8009a.o(.constdata__ZTV19cHwDisp_OTM8009Acmd) refers to lib.o(i._ZN17cHwDisplayGraphic14getDefaultFontEv) for cHwDisplayGraphic::getDefaultFont()
    disp_otm8009a.o(.constdata__ZTV19cHwDisp_OTM8009Acmd) refers to lib.o(i._ZN17cHwDisplayGraphic8getWidthEv) for cHwDisplayGraphic::getWidth()
    disp_otm8009a.o(.constdata__ZTV19cHwDisp_OTM8009Acmd) refers to lib.o(i._ZN17cHwDisplayGraphic9getHeightEv) for cHwDisplayGraphic::getHeight()
    disp_otm8009a.o(.constdata__ZTV19cHwDisp_OTM8009Acmd) refers to disp_otm8009a.o(i._ZN19cHwDisp_OTM8009Acmd7setAreaEtttt) for cHwDisp_OTM8009Acmd::setArea(unsigned short, unsigned short, unsigned short, unsigned short)
    disp_otm8009a.o(.constdata__ZTV19cHwDisp_OTM8009Acmd) refers to disp_otm8009a.o(i._ZN19cHwDisp_OTM8009Acmd8setPixelEttt) for cHwDisp_OTM8009Acmd::setPixel(unsigned short, unsigned short, unsigned short)
    disp_otm8009a.o(.constdata__ZTV19cHwDisp_OTM8009Acmd) refers to disp_otm8009a.o(i._ZN19cHwDisp_OTM8009Acmd8setPixelEt) for cHwDisp_OTM8009Acmd::setPixel(unsigned short)
    disp_otm8009a.o(.constdata__ZTV19cHwDisp_OTM8009Aram) refers to disp_otm8009a.o(.constdata__ZTI19cHwDisp_OTM8009Aram) for typeinfo for cHwDisp_OTM8009Aram
    disp_otm8009a.o(.constdata__ZTV19cHwDisp_OTM8009Aram) refers to disp_otm8009a.o(i._ZN19cHwDisp_OTM8009Aram5clearEv) for cHwDisp_OTM8009Aram::clear()
    disp_otm8009a.o(.constdata__ZTV19cHwDisp_OTM8009Aram) refers to disp_otm8009a.o(i._ZN19cHwDisp_OTM8009Aram7refreshEv) for cHwDisp_OTM8009Aram::refresh()
    disp_otm8009a.o(.constdata__ZTV19cHwDisp_OTM8009Aram) refers to lib.o(i._ZN17cHwDisplayGraphic11gotoTextPosEhh) for cHwDisplayGraphic::gotoTextPos(unsigned char, unsigned char)
    disp_otm8009a.o(.constdata__ZTV19cHwDisp_OTM8009Aram) refers to lib.o(i._ZN17cHwDisplayGraphic7putCharEc) for cHwDisplayGraphic::putChar(char)
    disp_otm8009a.o(.constdata__ZTV19cHwDisp_OTM8009Aram) refers to lib.o(i._ZN10cHwDisplay16getNumberOfLinesEv) for cHwDisplay::getNumberOfLines()
    disp_otm8009a.o(.constdata__ZTV19cHwDisp_OTM8009Aram) refers to lib.o(i._ZN10cHwDisplay18getNumberOfColumnsEv) for cHwDisplay::getNumberOfColumns()
    disp_otm8009a.o(.constdata__ZTV19cHwDisp_OTM8009Aram) refers to lib.o(i._ZN17cHwDisplayGraphic7setFontE14cHwDisplayFonth) for cHwDisplayGraphic::setFont(cHwDisplayFont, unsigned char)
    disp_otm8009a.o(.constdata__ZTV19cHwDisp_OTM8009Aram) refers to lib.o(i._ZN17cHwDisplayGraphic7setZoomEh) for cHwDisplayGraphic::setZoom(unsigned char)
    disp_otm8009a.o(.constdata__ZTV19cHwDisp_OTM8009Aram) refers to lib.o(i._ZN17cHwDisplayGraphic12setBackColorEt) for cHwDisplayGraphic::setBackColor(unsigned short)
    disp_otm8009a.o(.constdata__ZTV19cHwDisp_OTM8009Aram) refers to lib.o(i._ZN17cHwDisplayGraphic13setPaintColorEt) for cHwDisplayGraphic::setPaintColor(unsigned short)
    disp_otm8009a.o(.constdata__ZTV19cHwDisp_OTM8009Aram) refers to lib.o(i._ZN17cHwDisplayGraphic12setTextColorEt) for cHwDisplayGraphic::setTextColor(unsigned short)
    disp_otm8009a.o(.constdata__ZTV19cHwDisp_OTM8009Aram) refers to lib.o(i._ZN17cHwDisplayGraphic12gotoPixelPosEtt) for cHwDisplayGraphic::gotoPixelPos(unsigned short, unsigned short)
    disp_otm8009a.o(.constdata__ZTV19cHwDisp_OTM8009Aram) refers to lib.o(i._ZN17cHwDisplayGraphic8putPixelEtt) for cHwDisplayGraphic::putPixel(unsigned short, unsigned short)
    disp_otm8009a.o(.constdata__ZTV19cHwDisp_OTM8009Aram) refers to lib.o(i._ZN17cHwDisplayGraphic12putRectangleEtttt) for cHwDisplayGraphic::putRectangle(unsigned short, unsigned short, unsigned short, unsigned short)
    disp_otm8009a.o(.constdata__ZTV19cHwDisp_OTM8009Aram) refers to lib.o(i._ZN17cHwDisplayGraphic9putBitmapEttttPKt) for cHwDisplayGraphic::putBitmap(unsigned short, unsigned short, unsigned short, unsigned short, const unsigned short*)
    disp_otm8009a.o(.constdata__ZTV19cHwDisp_OTM8009Aram) refers to lib.o(i._ZN17cHwDisplayGraphic14getDefaultFontEv) for cHwDisplayGraphic::getDefaultFont()
    disp_otm8009a.o(.constdata__ZTV19cHwDisp_OTM8009Aram) refers to lib.o(i._ZN17cHwDisplayGraphic8getWidthEv) for cHwDisplayGraphic::getWidth()
    disp_otm8009a.o(.constdata__ZTV19cHwDisp_OTM8009Aram) refers to lib.o(i._ZN17cHwDisplayGraphic9getHeightEv) for cHwDisplayGraphic::getHeight()
    disp_otm8009a.o(.constdata__ZTV19cHwDisp_OTM8009Aram) refers to disp_otm8009a.o(i._ZN19cHwDisp_OTM8009Aram7setAreaEtttt) for cHwDisp_OTM8009Aram::setArea(unsigned short, unsigned short, unsigned short, unsigned short)
    disp_otm8009a.o(.constdata__ZTV19cHwDisp_OTM8009Aram) refers to disp_otm8009a.o(i._ZN19cHwDisp_OTM8009Aram8setPixelEttt) for cHwDisp_OTM8009Aram::setPixel(unsigned short, unsigned short, unsigned short)
    disp_otm8009a.o(.constdata__ZTV19cHwDisp_OTM8009Aram) refers to disp_otm8009a.o(i._ZN19cHwDisp_OTM8009Aram8setPixelEt) for cHwDisp_OTM8009Aram::setPixel(unsigned short)
    disp_otm8009a.o(i._ZN6cHwDSI4InitEttb) refers to dmul.o(x$fpl$dmul) for __aeabi_dmul
    disp_otm8009a.o(i._ZN6cHwDSI4InitEttb) refers to ddiv.o(x$fpl$ddiv) for __aeabi_ddiv
    disp_otm8009a.o(i._ZN6cHwDSI4InitEttb) refers to dfixu.o(x$fpl$dfixu) for __aeabi_d2uiz
    disp_otm8009a.o(.ARM.exidx) refers to disp_otm8009a.o(i._ZN6cHwDSI4InitEttb) for i._ZN6cHwDSI4InitEttb
    disp_otm8009a.o(i._ZN16cHwDisp_OTM8009AC2ER6cHwDSIRN7cHwPort3PinENS_11OrientationE14cHwDisplayFonth) refers to lib.o(i._ZN17cHwDisplayGraphicC2E14cHwDisplayFonth) for cHwDisplayGraphic::cHwDisplayGraphic__sub_object(cHwDisplayFont, unsigned char)
    disp_otm8009a.o(i._ZN16cHwDisp_OTM8009AC2ER6cHwDSIRN7cHwPort3PinENS_11OrientationE14cHwDisplayFonth) refers to lib.o(i._ZN7cSystem13delayMilliSecEt) for cSystem::delayMilliSec(unsigned short)
    disp_otm8009a.o(i._ZN16cHwDisp_OTM8009AC2ER6cHwDSIRN7cHwPort3PinENS_11OrientationE14cHwDisplayFonth) refers to disp_otm8009a.o(.constdata__ZTV16cHwDisp_OTM8009A) for vtable for cHwDisp_OTM8009A
    disp_otm8009a.o(.ARM.exidx) refers to disp_otm8009a.o(i._ZN16cHwDisp_OTM8009AC2ER6cHwDSIRN7cHwPort3PinENS_11OrientationE14cHwDisplayFonth) for i._ZN16cHwDisp_OTM8009AC2ER6cHwDSIRN7cHwPort3PinENS_11OrientationE14cHwDisplayFonth
    disp_otm8009a.o(.ARM.exidx) refers to disp_otm8009a.o(i._ZN6cHwDSI14DisplayRefreshEv) for i._ZN6cHwDSI14DisplayRefreshEv
    disp_otm8009a.o(.constdata__ZTV16cHwDisp_OTM8009A) refers to disp_otm8009a.o(.constdata__ZTI16cHwDisp_OTM8009A) for typeinfo for cHwDisp_OTM8009A
    disp_otm8009a.o(.constdata__ZTV16cHwDisp_OTM8009A) refers to lib.o(i.__cxa_pure_virtual) for __cxa_pure_virtual
    disp_otm8009a.o(.constdata__ZTV16cHwDisp_OTM8009A) refers to lib.o(i._ZN17cHwDisplayGraphic7refreshEv) for cHwDisplayGraphic::refresh()
    disp_otm8009a.o(.constdata__ZTV16cHwDisp_OTM8009A) refers to lib.o(i._ZN17cHwDisplayGraphic11gotoTextPosEhh) for cHwDisplayGraphic::gotoTextPos(unsigned char, unsigned char)
    disp_otm8009a.o(.constdata__ZTV16cHwDisp_OTM8009A) refers to lib.o(i._ZN17cHwDisplayGraphic7putCharEc) for cHwDisplayGraphic::putChar(char)
    disp_otm8009a.o(.constdata__ZTV16cHwDisp_OTM8009A) refers to lib.o(i._ZN10cHwDisplay16getNumberOfLinesEv) for cHwDisplay::getNumberOfLines()
    disp_otm8009a.o(.constdata__ZTV16cHwDisp_OTM8009A) refers to lib.o(i._ZN10cHwDisplay18getNumberOfColumnsEv) for cHwDisplay::getNumberOfColumns()
    disp_otm8009a.o(.constdata__ZTV16cHwDisp_OTM8009A) refers to lib.o(i._ZN17cHwDisplayGraphic7setFontE14cHwDisplayFonth) for cHwDisplayGraphic::setFont(cHwDisplayFont, unsigned char)
    disp_otm8009a.o(.constdata__ZTV16cHwDisp_OTM8009A) refers to lib.o(i._ZN17cHwDisplayGraphic7setZoomEh) for cHwDisplayGraphic::setZoom(unsigned char)
    disp_otm8009a.o(.constdata__ZTV16cHwDisp_OTM8009A) refers to lib.o(i._ZN17cHwDisplayGraphic12setBackColorEt) for cHwDisplayGraphic::setBackColor(unsigned short)
    disp_otm8009a.o(.constdata__ZTV16cHwDisp_OTM8009A) refers to lib.o(i._ZN17cHwDisplayGraphic13setPaintColorEt) for cHwDisplayGraphic::setPaintColor(unsigned short)
    disp_otm8009a.o(.constdata__ZTV16cHwDisp_OTM8009A) refers to lib.o(i._ZN17cHwDisplayGraphic12setTextColorEt) for cHwDisplayGraphic::setTextColor(unsigned short)
    disp_otm8009a.o(.constdata__ZTV16cHwDisp_OTM8009A) refers to lib.o(i._ZN17cHwDisplayGraphic12gotoPixelPosEtt) for cHwDisplayGraphic::gotoPixelPos(unsigned short, unsigned short)
    disp_otm8009a.o(.constdata__ZTV16cHwDisp_OTM8009A) refers to lib.o(i._ZN17cHwDisplayGraphic8putPixelEtt) for cHwDisplayGraphic::putPixel(unsigned short, unsigned short)
    disp_otm8009a.o(.constdata__ZTV16cHwDisp_OTM8009A) refers to lib.o(i._ZN17cHwDisplayGraphic12putRectangleEtttt) for cHwDisplayGraphic::putRectangle(unsigned short, unsigned short, unsigned short, unsigned short)
    disp_otm8009a.o(.constdata__ZTV16cHwDisp_OTM8009A) refers to lib.o(i._ZN17cHwDisplayGraphic9putBitmapEttttPKt) for cHwDisplayGraphic::putBitmap(unsigned short, unsigned short, unsigned short, unsigned short, const unsigned short*)
    disp_otm8009a.o(.constdata__ZTV16cHwDisp_OTM8009A) refers to lib.o(i._ZN17cHwDisplayGraphic14getDefaultFontEv) for cHwDisplayGraphic::getDefaultFont()
    disp_otm8009a.o(.constdata__ZTV16cHwDisp_OTM8009A) refers to lib.o(i._ZN17cHwDisplayGraphic8getWidthEv) for cHwDisplayGraphic::getWidth()
    disp_otm8009a.o(.constdata__ZTV16cHwDisp_OTM8009A) refers to lib.o(i._ZN17cHwDisplayGraphic9getHeightEv) for cHwDisplayGraphic::getHeight()
    disp_otm8009a.o(.constdata__ZTI19cHwDisp_OTM8009Acmd) refers to lib_rtti_impl.o(.constdata__ZTVN10__cxxabiv120__si_class_type_infoE) for vtable for __cxxabiv1::__si_class_type_info
    disp_otm8009a.o(.constdata__ZTI19cHwDisp_OTM8009Acmd) refers to disp_otm8009a.o(.constdata__ZTS19cHwDisp_OTM8009Acmd) for typeinfo name for cHwDisp_OTM8009Acmd
    disp_otm8009a.o(.constdata__ZTI19cHwDisp_OTM8009Acmd) refers to disp_otm8009a.o(.constdata__ZTI16cHwDisp_OTM8009A) for typeinfo for cHwDisp_OTM8009A
    disp_otm8009a.o(.constdata__ZTI19cHwDisp_OTM8009Aram) refers to lib_rtti_impl.o(.constdata__ZTVN10__cxxabiv120__si_class_type_infoE) for vtable for __cxxabiv1::__si_class_type_info
    disp_otm8009a.o(.constdata__ZTI19cHwDisp_OTM8009Aram) refers to disp_otm8009a.o(.constdata__ZTS19cHwDisp_OTM8009Aram) for typeinfo name for cHwDisp_OTM8009Aram
    disp_otm8009a.o(.constdata__ZTI19cHwDisp_OTM8009Aram) refers to disp_otm8009a.o(.constdata__ZTI16cHwDisp_OTM8009A) for typeinfo for cHwDisp_OTM8009A
    disp_otm8009a.o(.constdata__ZTI16cHwDisp_OTM8009A) refers to lib_rtti_impl.o(.constdata__ZTVN10__cxxabiv120__si_class_type_infoE) for vtable for __cxxabiv1::__si_class_type_info
    disp_otm8009a.o(.constdata__ZTI16cHwDisp_OTM8009A) refers to disp_otm8009a.o(.constdata__ZTS16cHwDisp_OTM8009A) for typeinfo name for cHwDisp_OTM8009A
    disp_otm8009a.o(.constdata__ZTI16cHwDisp_OTM8009A) refers to lib.o(.constdata__ZTI17cHwDisplayGraphic) for typeinfo for cHwDisplayGraphic
    touch_ft6206.o(.constdata__ZTV15cHwTouch_FT6206) refers to touch_ft6206.o(.constdata__ZTI15cHwTouch_FT6206) for typeinfo for cHwTouch_FT6206
    touch_ft6206.o(.constdata__ZTV15cHwTouch_FT6206) refers to touch_ft6206.o(i._ZN15cHwTouch_FT62066updateEv) for cHwTouch_FT6206::update()
    touch_ft6206.o(.constdata__ZTV15cHwTouch_FT6206) refers to lib.o(i._ZN8cHwTouch7getPosXEv) for cHwTouch::getPosX()
    touch_ft6206.o(.constdata__ZTV15cHwTouch_FT6206) refers to lib.o(i._ZN8cHwTouch7getPosYEv) for cHwTouch::getPosY()
    touch_ft6206.o(.constdata__ZTV15cHwTouch_FT6206) refers to lib.o(i._ZN8cHwTouch9isTouchedEv) for cHwTouch::isTouched()
    touch_ft6206.o(.constdata__ZTI15cHwTouch_FT6206) refers to lib_rtti_impl.o(.constdata__ZTVN10__cxxabiv120__si_class_type_infoE) for vtable for __cxxabiv1::__si_class_type_info
    touch_ft6206.o(.constdata__ZTI15cHwTouch_FT6206) refers to touch_ft6206.o(.constdata__ZTS15cHwTouch_FT6206) for typeinfo name for cHwTouch_FT6206
    touch_ft6206.o(.constdata__ZTI15cHwTouch_FT6206) refers to lib.o(.constdata__ZTI8cHwTouch) for typeinfo for cHwTouch
    lib_rtti_impl.o(.constdata__ZTVN10__cxxabiv123__fundamental_type_infoE) refers to lib_rtti_impl.o(.constdata__ZTIN10__cxxabiv123__fundamental_type_infoE) for typeinfo for __cxxabiv1::__fundamental_type_info
    lib_rtti_impl.o(.constdata__ZTVN10__cxxabiv123__fundamental_type_infoE) refers to lib_rtti_impl.o(i._ZN10__cxxabiv123__fundamental_type_infoD1Ev) for __cxxabiv1::__fundamental_type_info::~__fundamental_type_info()
    lib_rtti_impl.o(.constdata__ZTVN10__cxxabiv123__fundamental_type_infoE) refers to lib_rtti_impl.o(i._ZN10__cxxabiv123__fundamental_type_infoD0Ev) for __cxxabiv1::__fundamental_type_info::~__fundamental_type_info__deallocating()
    lib_rtti_impl.o(.constdata__ZTVN10__cxxabiv117__array_type_infoE) refers to lib_rtti_impl.o(.constdata__ZTIN10__cxxabiv117__array_type_infoE) for typeinfo for __cxxabiv1::__array_type_info
    lib_rtti_impl.o(.constdata__ZTVN10__cxxabiv117__array_type_infoE) refers to lib_rtti_impl.o(i._ZN10__cxxabiv117__array_type_infoD1Ev) for __cxxabiv1::__array_type_info::~__array_type_info()
    lib_rtti_impl.o(.constdata__ZTVN10__cxxabiv117__array_type_infoE) refers to lib_rtti_impl.o(i._ZN10__cxxabiv117__array_type_infoD0Ev) for __cxxabiv1::__array_type_info::~__array_type_info__deallocating()
    lib_rtti_impl.o(.constdata__ZTVN10__cxxabiv120__function_type_infoE) refers to lib_rtti_impl.o(.constdata__ZTIN10__cxxabiv120__function_type_infoE) for typeinfo for __cxxabiv1::__function_type_info
    lib_rtti_impl.o(.constdata__ZTVN10__cxxabiv120__function_type_infoE) refers to lib_rtti_impl.o(i._ZN10__cxxabiv120__function_type_infoD1Ev) for __cxxabiv1::__function_type_info::~__function_type_info()
    lib_rtti_impl.o(.constdata__ZTVN10__cxxabiv120__function_type_infoE) refers to lib_rtti_impl.o(i._ZN10__cxxabiv120__function_type_infoD0Ev) for __cxxabiv1::__function_type_info::~__function_type_info__deallocating()
    lib_rtti_impl.o(.constdata__ZTVN10__cxxabiv116__enum_type_infoE) refers to lib_rtti_impl.o(.constdata__ZTIN10__cxxabiv116__enum_type_infoE) for typeinfo for __cxxabiv1::__enum_type_info
    lib_rtti_impl.o(.constdata__ZTVN10__cxxabiv116__enum_type_infoE) refers to lib_rtti_impl.o(i._ZN10__cxxabiv116__enum_type_infoD1Ev) for __cxxabiv1::__enum_type_info::~__enum_type_info()
    lib_rtti_impl.o(.constdata__ZTVN10__cxxabiv116__enum_type_infoE) refers to lib_rtti_impl.o(i._ZN10__cxxabiv116__enum_type_infoD0Ev) for __cxxabiv1::__enum_type_info::~__enum_type_info__deallocating()
    lib_rtti_impl.o(.constdata__ZTVN10__cxxabiv117__class_type_infoE) refers to lib_rtti_impl.o(.constdata__ZTIN10__cxxabiv117__class_type_infoE) for typeinfo for __cxxabiv1::__class_type_info
    lib_rtti_impl.o(.constdata__ZTVN10__cxxabiv117__class_type_infoE) refers to lib_rtti_impl.o(i._ZN10__cxxabiv117__class_type_infoD1Ev) for __cxxabiv1::__class_type_info::~__class_type_info()
    lib_rtti_impl.o(.constdata__ZTVN10__cxxabiv117__class_type_infoE) refers to lib_rtti_impl.o(i._ZN10__cxxabiv117__class_type_infoD0Ev) for __cxxabiv1::__class_type_info::~__class_type_info__deallocating()
    lib_rtti_impl.o(.constdata__ZTVN10__cxxabiv120__si_class_type_infoE) refers to lib_rtti_impl.o(.constdata__ZTIN10__cxxabiv120__si_class_type_infoE) for typeinfo for __cxxabiv1::__si_class_type_info
    lib_rtti_impl.o(.constdata__ZTVN10__cxxabiv120__si_class_type_infoE) refers to lib_rtti_impl.o(i._ZN10__cxxabiv120__si_class_type_infoD1Ev) for __cxxabiv1::__si_class_type_info::~__si_class_type_info()
    lib_rtti_impl.o(.constdata__ZTVN10__cxxabiv120__si_class_type_infoE) refers to lib_rtti_impl.o(i._ZN10__cxxabiv120__si_class_type_infoD0Ev) for __cxxabiv1::__si_class_type_info::~__si_class_type_info__deallocating()
    lib_rtti_impl.o(.constdata__ZTVN10__cxxabiv121__vmi_class_type_infoE) refers to lib_rtti_impl.o(.constdata__ZTIN10__cxxabiv121__vmi_class_type_infoE) for typeinfo for __cxxabiv1::__vmi_class_type_info
    lib_rtti_impl.o(.constdata__ZTVN10__cxxabiv121__vmi_class_type_infoE) refers to lib_rtti_impl.o(i._ZN10__cxxabiv121__vmi_class_type_infoD1Ev) for __cxxabiv1::__vmi_class_type_info::~__vmi_class_type_info()
    lib_rtti_impl.o(.constdata__ZTVN10__cxxabiv121__vmi_class_type_infoE) refers to lib_rtti_impl.o(i._ZN10__cxxabiv121__vmi_class_type_infoD0Ev) for __cxxabiv1::__vmi_class_type_info::~__vmi_class_type_info__deallocating()
    lib_rtti_impl.o(.constdata__ZTVN10__cxxabiv117__pbase_type_infoE) refers to lib_rtti_impl.o(.constdata__ZTIN10__cxxabiv117__pbase_type_infoE) for typeinfo for __cxxabiv1::__pbase_type_info
    lib_rtti_impl.o(.constdata__ZTVN10__cxxabiv117__pbase_type_infoE) refers to lib_rtti_impl.o(i._ZN10__cxxabiv117__pbase_type_infoD1Ev) for __cxxabiv1::__pbase_type_info::~__pbase_type_info()
    lib_rtti_impl.o(.constdata__ZTVN10__cxxabiv117__pbase_type_infoE) refers to lib_rtti_impl.o(i._ZN10__cxxabiv117__pbase_type_infoD0Ev) for __cxxabiv1::__pbase_type_info::~__pbase_type_info__deallocating()
    lib_rtti_impl.o(.constdata__ZTVN10__cxxabiv119__pointer_type_infoE) refers to lib_rtti_impl.o(.constdata__ZTIN10__cxxabiv119__pointer_type_infoE) for typeinfo for __cxxabiv1::__pointer_type_info
    lib_rtti_impl.o(.constdata__ZTVN10__cxxabiv119__pointer_type_infoE) refers to lib_rtti_impl.o(i._ZN10__cxxabiv119__pointer_type_infoD1Ev) for __cxxabiv1::__pointer_type_info::~__pointer_type_info()
    lib_rtti_impl.o(.constdata__ZTVN10__cxxabiv119__pointer_type_infoE) refers to lib_rtti_impl.o(i._ZN10__cxxabiv119__pointer_type_infoD0Ev) for __cxxabiv1::__pointer_type_info::~__pointer_type_info__deallocating()
    lib_rtti_impl.o(.constdata__ZTVN10__cxxabiv129__pointer_to_member_type_infoE) refers to lib_rtti_impl.o(.constdata__ZTIN10__cxxabiv129__pointer_to_member_type_infoE) for typeinfo for __cxxabiv1::__pointer_to_member_type_info
    lib_rtti_impl.o(.constdata__ZTVN10__cxxabiv129__pointer_to_member_type_infoE) refers to lib_rtti_impl.o(i._ZN10__cxxabiv129__pointer_to_member_type_infoD1Ev) for __cxxabiv1::__pointer_to_member_type_info::~__pointer_to_member_type_info()
    lib_rtti_impl.o(.constdata__ZTVN10__cxxabiv129__pointer_to_member_type_infoE) refers to lib_rtti_impl.o(i._ZN10__cxxabiv129__pointer_to_member_type_infoD0Ev) for __cxxabiv1::__pointer_to_member_type_info::~__pointer_to_member_type_info__deallocating()
    lib_rtti_impl.o(.ARM.exidx) refers to lib_rtti_impl.o(i._ZNSt9type_infodlEPv) for i._ZNSt9type_infodlEPv
    lib_rtti_impl.o(.constdata__ZTIN10__cxxabiv123__fundamental_type_infoE) refers to lib_rtti_impl.o(.constdata__ZTVN10__cxxabiv120__si_class_type_infoE) for vtable for __cxxabiv1::__si_class_type_info
    lib_rtti_impl.o(.constdata__ZTIN10__cxxabiv123__fundamental_type_infoE) refers to lib_rtti_impl.o(.constdata__ZTSN10__cxxabiv123__fundamental_type_infoE) for typeinfo name for __cxxabiv1::__fundamental_type_info
    lib_rtti_impl.o(.constdata__ZTIN10__cxxabiv123__fundamental_type_infoE) refers to type_info_dtor.o(.constdata__ZTISt9type_info) for typeinfo for std::type_info
    lib_rtti_impl.o(.constdata__ZTIN10__cxxabiv117__array_type_infoE) refers to lib_rtti_impl.o(.constdata__ZTVN10__cxxabiv120__si_class_type_infoE) for vtable for __cxxabiv1::__si_class_type_info
    lib_rtti_impl.o(.constdata__ZTIN10__cxxabiv117__array_type_infoE) refers to lib_rtti_impl.o(.constdata__ZTSN10__cxxabiv117__array_type_infoE) for typeinfo name for __cxxabiv1::__array_type_info
    lib_rtti_impl.o(.constdata__ZTIN10__cxxabiv117__array_type_infoE) refers to type_info_dtor.o(.constdata__ZTISt9type_info) for typeinfo for std::type_info
    lib_rtti_impl.o(.constdata__ZTIN10__cxxabiv120__function_type_infoE) refers to lib_rtti_impl.o(.constdata__ZTVN10__cxxabiv120__si_class_type_infoE) for vtable for __cxxabiv1::__si_class_type_info
    lib_rtti_impl.o(.constdata__ZTIN10__cxxabiv120__function_type_infoE) refers to lib_rtti_impl.o(.constdata__ZTSN10__cxxabiv120__function_type_infoE) for typeinfo name for __cxxabiv1::__function_type_info
    lib_rtti_impl.o(.constdata__ZTIN10__cxxabiv120__function_type_infoE) refers to type_info_dtor.o(.constdata__ZTISt9type_info) for typeinfo for std::type_info
    lib_rtti_impl.o(.constdata__ZTIN10__cxxabiv116__enum_type_infoE) refers to lib_rtti_impl.o(.constdata__ZTVN10__cxxabiv120__si_class_type_infoE) for vtable for __cxxabiv1::__si_class_type_info
    lib_rtti_impl.o(.constdata__ZTIN10__cxxabiv116__enum_type_infoE) refers to lib_rtti_impl.o(.constdata__ZTSN10__cxxabiv116__enum_type_infoE) for typeinfo name for __cxxabiv1::__enum_type_info
    lib_rtti_impl.o(.constdata__ZTIN10__cxxabiv116__enum_type_infoE) refers to type_info_dtor.o(.constdata__ZTISt9type_info) for typeinfo for std::type_info
    lib_rtti_impl.o(.constdata__ZTIN10__cxxabiv117__class_type_infoE) refers to lib_rtti_impl.o(.constdata__ZTVN10__cxxabiv120__si_class_type_infoE) for vtable for __cxxabiv1::__si_class_type_info
    lib_rtti_impl.o(.constdata__ZTIN10__cxxabiv117__class_type_infoE) refers to lib_rtti_impl.o(.constdata__ZTSN10__cxxabiv117__class_type_infoE) for typeinfo name for __cxxabiv1::__class_type_info
    lib_rtti_impl.o(.constdata__ZTIN10__cxxabiv117__class_type_infoE) refers to type_info_dtor.o(.constdata__ZTISt9type_info) for typeinfo for std::type_info
    lib_rtti_impl.o(.constdata__ZTIN10__cxxabiv120__si_class_type_infoE) refers to lib_rtti_impl.o(.constdata__ZTVN10__cxxabiv120__si_class_type_infoE) for vtable for __cxxabiv1::__si_class_type_info
    lib_rtti_impl.o(.constdata__ZTIN10__cxxabiv120__si_class_type_infoE) refers to lib_rtti_impl.o(.constdata__ZTSN10__cxxabiv120__si_class_type_infoE) for typeinfo name for __cxxabiv1::__si_class_type_info
    lib_rtti_impl.o(.constdata__ZTIN10__cxxabiv120__si_class_type_infoE) refers to lib_rtti_impl.o(.constdata__ZTIN10__cxxabiv117__class_type_infoE) for typeinfo for __cxxabiv1::__class_type_info
    lib_rtti_impl.o(.constdata__ZTIN10__cxxabiv121__vmi_class_type_infoE) refers to lib_rtti_impl.o(.constdata__ZTVN10__cxxabiv120__si_class_type_infoE) for vtable for __cxxabiv1::__si_class_type_info
    lib_rtti_impl.o(.constdata__ZTIN10__cxxabiv121__vmi_class_type_infoE) refers to lib_rtti_impl.o(.constdata__ZTSN10__cxxabiv121__vmi_class_type_infoE) for typeinfo name for __cxxabiv1::__vmi_class_type_info
    lib_rtti_impl.o(.constdata__ZTIN10__cxxabiv121__vmi_class_type_infoE) refers to lib_rtti_impl.o(.constdata__ZTIN10__cxxabiv117__class_type_infoE) for typeinfo for __cxxabiv1::__class_type_info
    lib_rtti_impl.o(.constdata__ZTIN10__cxxabiv117__pbase_type_infoE) refers to lib_rtti_impl.o(.constdata__ZTVN10__cxxabiv120__si_class_type_infoE) for vtable for __cxxabiv1::__si_class_type_info
    lib_rtti_impl.o(.constdata__ZTIN10__cxxabiv117__pbase_type_infoE) refers to lib_rtti_impl.o(.constdata__ZTSN10__cxxabiv117__pbase_type_infoE) for typeinfo name for __cxxabiv1::__pbase_type_info
    lib_rtti_impl.o(.constdata__ZTIN10__cxxabiv117__pbase_type_infoE) refers to type_info_dtor.o(.constdata__ZTISt9type_info) for typeinfo for std::type_info
    lib_rtti_impl.o(.constdata__ZTIN10__cxxabiv119__pointer_type_infoE) refers to lib_rtti_impl.o(.constdata__ZTVN10__cxxabiv120__si_class_type_infoE) for vtable for __cxxabiv1::__si_class_type_info
    lib_rtti_impl.o(.constdata__ZTIN10__cxxabiv119__pointer_type_infoE) refers to lib_rtti_impl.o(.constdata__ZTSN10__cxxabiv119__pointer_type_infoE) for typeinfo name for __cxxabiv1::__pointer_type_info
    lib_rtti_impl.o(.constdata__ZTIN10__cxxabiv119__pointer_type_infoE) refers to lib_rtti_impl.o(.constdata__ZTIN10__cxxabiv117__pbase_type_infoE) for typeinfo for __cxxabiv1::__pbase_type_info
    lib_rtti_impl.o(.constdata__ZTIN10__cxxabiv129__pointer_to_member_type_infoE) refers to lib_rtti_impl.o(.constdata__ZTVN10__cxxabiv120__si_class_type_infoE) for vtable for __cxxabiv1::__si_class_type_info
    lib_rtti_impl.o(.constdata__ZTIN10__cxxabiv129__pointer_to_member_type_infoE) refers to lib_rtti_impl.o(.constdata__ZTSN10__cxxabiv129__pointer_to_member_type_infoE) for typeinfo name for __cxxabiv1::__pointer_to_member_type_info
    lib_rtti_impl.o(.constdata__ZTIN10__cxxabiv129__pointer_to_member_type_infoE) refers to lib_rtti_impl.o(.constdata__ZTIN10__cxxabiv117__pbase_type_infoE) for typeinfo for __cxxabiv1::__pbase_type_info
    lib_rtti_impl.o(i.__ARM_common_noexcept_landing) refers to arm_exceptions_callterm.o(.text) for __cxa_call_terminate
    lib_rtti_impl.o(.ARM.exidx) refers to lib_rtti_impl.o(i.__ARM_common_noexcept_landing) for i.__ARM_common_noexcept_landing
    type_info_dtor.o(.constdata__ZTVSt9type_info) refers to type_info_dtor.o(.constdata__ZTISt9type_info) for typeinfo for std::type_info
    type_info_dtor.o(.constdata__ZTVSt9type_info) refers to type_info_dtor.o(i._ZNSt9type_infoD1Ev) for std::type_info::~type_info()
    type_info_dtor.o(.constdata__ZTVSt9type_info) refers to type_info_dtor.o(i._ZNSt9type_infoD0Ev) for std::type_info::~type_info__deallocating()
    type_info_dtor.o(.constdata__ZTISt9type_info) refers to lib_rtti_impl.o(.constdata__ZTVN10__cxxabiv117__class_type_infoE) for vtable for __cxxabiv1::__class_type_info
    type_info_dtor.o(.constdata__ZTISt9type_info) refers to type_info_dtor.o(.constdata__ZTSSt9type_info) for typeinfo name for std::type_info


==============================================================================

Removing Unused input sections from the image.

    Removing main.o(.rev16_text), (4 bytes).
    Removing main.o(.revsh_text), (4 bytes).
    Removing main.o(.rrx_text), (6 bytes).
    Removing main.o(.ARM.exidx), (8 bytes).
    Removing main.o(.ARM.exidx), (8 bytes).
    Removing lib.o(.rev16_text), (4 bytes).
    Removing lib.o(.revsh_text), (4 bytes).
    Removing lib.o(.rrx_text), (6 bytes).
    Removing lib.o(i._Z4htonj), (24 bytes).
    Removing lib.o(i._Z4htont), (10 bytes).
    Removing lib.o(i._Z4ntohj), (4 bytes).
    Removing lib.o(i._Z4ntoht), (4 bytes).
    Removing lib.o(i._Z8ChecksumPhtj), (50 bytes).
    Removing lib.o(i._ZN10cDevMemory4readEPhtt), (46 bytes).
    Removing lib.o(i._ZN10cDevMemory5clearEv), (34 bytes).
    Removing lib.o(i._ZN10cDevMemory5writeEPhtt), (62 bytes).
    Removing lib.o(i._ZN10cDevMemory7isValidEv), (24 bytes).
    Removing lib.o(i._ZN10cDevMemory8allocateEt), (10 bytes).
    Removing lib.o(i._ZN10cDevMemory8setValidEv), (36 bytes).
    Removing lib.o(i._ZN10cDevMemoryC1ER9cHwMemoryt), (10 bytes).
    Removing lib.o(i._ZN10cDevTextIO6printfEPKcz), (42 bytes).
    Removing lib.o(i._ZN10cDevTextIO9getStringEv), (192 bytes).
    Removing lib.o(i._ZN10cDevTextIOC2EhhPKcS1_), (56 bytes).
    Removing lib.o(i._ZN10cHwTimer_N6setPWMEth), (46 bytes).
    Removing lib.o(i._ZN10cHwTimer_N9enablePWMEhN8cHwTimer4ModeE), (652 bytes).
    Removing lib.o(i._ZN10cHwUSBctrl2inEv), (28 bytes).
    Removing lib.o(i._ZN10cHwUSBctrl3outEv), (30 bytes).
    Removing lib.o(i._ZN10cHwUSBctrl5setupEv), (84 bytes).
    Removing lib.o(i._ZN10cHwUSBctrlC1ER6cHwUSB), (92 bytes).
    Removing lib.o(i._ZN10cHwUSBdesc16getDescriptorHIDEhhh), (48 bytes).
    Removing lib.o(i._ZN10cHwUSBdesc17getMaxPacketSize0Ev), (44 bytes).
    Removing lib.o(i._ZN10cHwUSBdesc19getDescriptorConfigEh), (48 bytes).
    Removing lib.o(i._ZN10cHwUSBdesc19getDescriptorDeviceEv), (48 bytes).
    Removing lib.o(i._ZN10cHwUSBdesc19getDescriptorStringEh), (48 bytes).
    Removing lib.o(i._ZN10cHwUSBdesc21getConfigDeviceStatusEh), (60 bytes).
    Removing lib.o(i._ZN10cHwUSBdesc21getDescriptorEndpointEhhh), (48 bytes).
    Removing lib.o(i._ZN10cHwUSBdesc22getDescriptorHIDreportEhhh), (52 bytes).
    Removing lib.o(i._ZN10cHwUSBdesc22getDescriptorInterfaceEhh), (48 bytes).
    Removing lib.o(i._ZN11cDevDigital7setModeENS_4ModeE), (6 bytes).
    Removing lib.o(i._ZN11cDevDisplayC2Ev), (12 bytes).
    Removing lib.o(i._ZN11cHwEthernet5getIPEv), (64 bytes).
    Removing lib.o(i._ZN11cHwEthernet5setIPEP6cNetIP), (6 bytes).
    Removing lib.o(i._ZN11cHwEthernet6setARPEP7cNetARP), (6 bytes).
    Removing lib.o(i._ZN11cHwEthernet6updateEv), (76 bytes).
    Removing lib.o(i._ZN11cHwEthernet7isNewIPEv), (36 bytes).
    Removing lib.o(i._ZN11cHwEthernetC2ERK8cNetAddrILh6EE), (28 bytes).
    Removing lib.o(i._ZN11cHwI2CslaveC1ERNS_11DataHandlerEh), (6 bytes).
    Removing lib.o(i._ZN11cHwRTOS_MCUC1Ev), (2 bytes).
    Removing lib.o(i._ZN11cHwSPIslaveC1ERNS_11DataHandlerE), (4 bytes).
    Removing lib.o(i._ZN12cDevAnalogIn9calibrateEffff), (36 bytes).
    Removing lib.o(i._ZN12cHwI2Cmaster5writeEhPhhS0_h), (132 bytes).
    Removing lib.o(i._ZN12cHwI2Cmaster6Device4readEPhh), (30 bytes).
    Removing lib.o(i._ZN12cHwI2Cmaster6Device4readEh), (46 bytes).
    Removing lib.o(i._ZN12cHwI2Cmaster6Device4readEt), (54 bytes).
    Removing lib.o(i._ZN12cHwI2Cmaster6Device4readEtPhh), (40 bytes).
    Removing lib.o(i._ZN12cHwI2Cmaster6Device4readEv), (42 bytes).
    Removing lib.o(i._ZN12cHwI2Cmaster6Device5writeEPhh), (34 bytes).
    Removing lib.o(i._ZN12cHwI2Cmaster6Device5writeEh), (36 bytes).
    Removing lib.o(i._ZN12cHwI2Cmaster6Device5writeEhPhh), (34 bytes).
    Removing lib.o(i._ZN12cHwI2Cmaster6Device5writeEhh), (38 bytes).
    Removing lib.o(i._ZN12cHwI2Cmaster6Device5writeEtPhh), (40 bytes).
    Removing lib.o(i._ZN12cHwI2Cmaster6Device5writeEth), (48 bytes).
    Removing lib.o(i._ZN12cHwSPImaster6Device10transceiveEPht), (62 bytes).
    Removing lib.o(i._ZN12cHwSPImaster6Device10transceiveEh), (46 bytes).
    Removing lib.o(i._ZN12cHwSPImasterC2Ev), (12 bytes).
    Removing lib.o(i._ZN12cHwUSBinterfC2ER6cHwUSBhh), (164 bytes).
    Removing lib.o(i._ZN12cTaskHandler5Timer12getTimeOfTicEv), (8 bytes).
    Removing lib.o(i._ZN12cTaskHandler5Timer7getTicsEv), (8 bytes).
    Removing lib.o(i._ZN12cTaskHandler5TimerC1ERS_tt), (36 bytes).
    Removing lib.o(i._ZN12cTaskHandlerC1EPS_), (60 bytes).
    Removing lib.o(i._ZN13cNetTransport6Socket11getRemoteIPEv), (4 bytes).
    Removing lib.o(i._ZN13cNetTransport6SocketC2ERS_R15cNetApplication8cNetAddrILh4EEt), (120 bytes).
    Removing lib.o(i._ZN13cNetTransport6updateEv), (34 bytes).
    Removing lib.o(i._ZN13cNetTransport7processEv), (34 bytes).
    Removing lib.o(i._ZN13cNetTransport7timeoutEv), (34 bytes).
    Removing lib.o(i._ZN13cNetTransportC2Ev), (20 bytes).
    Removing lib.o(i._ZN14cHwI2Cmaster_N5writeEhPhhS0_h), (140 bytes).
    Removing lib.o(i._ZN14cHwUSBendpoint10clrFeatureEv), (14 bytes).
    Removing lib.o(i._ZN14cHwUSBendpoint12writeDataLenERK12cDataPointert), (44 bytes).
    Removing lib.o(i._ZN14cHwUSBendpoint15readAcknowledgeEv), (18 bytes).
    Removing lib.o(i._ZN14cHwUSBendpoint16setConfigurationEv), (20 bytes).
    Removing lib.o(i._ZN14cHwUSBendpoint16writeAcknowledgeEv), (20 bytes).
    Removing lib.o(i._ZN14cHwUSBendpoint2inEv), (56 bytes).
    Removing lib.o(i._ZN14cHwUSBendpoint3outEv), (60 bytes).
    Removing lib.o(i._ZN14cHwUSBendpoint5stallEv), (10 bytes).
    Removing lib.o(i._ZN14cHwUSBendpoint6inCtrlEv), (40 bytes).
    Removing lib.o(i._ZN14cHwUSBendpoint7outCtrlEv), (50 bytes).
    Removing lib.o(i._ZN14cHwUSBendpoint8clrStallEv), (10 bytes).
    Removing lib.o(i._ZN14cHwUSBendpoint8readDataEv), (34 bytes).
    Removing lib.o(i._ZN14cHwUSBendpoint9writeDataERK12cDataPointer), (10 bytes).
    Removing lib.o(i._ZN14cHwUSBendpoint9writeDataEv), (42 bytes).
    Removing lib.o(i._ZN14cHwUSBendpointC1ER6cHwUSBP12cHwUSBinterfhth), (34 bytes).
    Removing lib.o(i._ZN14cHwUSBendpointC1ER6cHwUSBht), (28 bytes).
    Removing lib.o(i._ZN15cDevAnalogInADC6enableEv), (12 bytes).
    Removing lib.o(i._ZN15cDevDisplayChar5clearEv), (8 bytes).
    Removing lib.o(i._ZN15cDevDisplayChar6printfEhhPKc), (38 bytes).
    Removing lib.o(i._ZN15cDevDisplayChar6printfEhhhPKcz), (90 bytes).
    Removing lib.o(i._ZN15cDevDisplayChar7refreshEv), (8 bytes).
    Removing lib.o(i._ZN15cDevDisplayCharC1ER10cHwDisplay), (28 bytes).
    Removing lib.o(i._ZN15cDevTextIO_UARTC1ER7cHwUARThhPKcS3_), (32 bytes).
    Removing lib.o(i._ZN15cHwEthernet_MCU10PacketSendEPht), (4 bytes).
    Removing lib.o(i._ZN15cHwEthernet_MCU13PacketReceiveEv), (36 bytes).
    Removing lib.o(i._ZN15cHwEthernet_MCU14low_level_initEv), (136 bytes).
    Removing lib.o(i._ZN15cHwEthernet_MCU15low_level_inputEPhj), (112 bytes).
    Removing lib.o(i._ZN15cHwEthernet_MCU16low_level_outputEPhj), (36 bytes).
    Removing lib.o(i._ZN15cHwEthernet_MCU22ETH_CheckFrameReceivedEv), (104 bytes).
    Removing lib.o(i._ZN15cHwEthernet_MCU22ETH_DMARxDescChainInitEP18ETH_DMADESCTypeDefPhj), (92 bytes).
    Removing lib.o(i._ZN15cHwEthernet_MCU22ETH_DMATxDescChainInitEP18ETH_DMADESCTypeDefPhj), (72 bytes).
    Removing lib.o(i._ZN15cHwEthernet_MCU22ETH_Get_Received_FrameEv), (60 bytes).
    Removing lib.o(i._ZN15cHwEthernet_MCU32ETH_Prepare_Transmit_DescriptorsEt), (184 bytes).
    Removing lib.o(i._ZN15cHwEthernet_MCU6createE8cNetAddrILh6EEt), (42 bytes).
    Removing lib.o(i._ZN15cHwEthernet_MCU7getTypeEv), (62 bytes).
    Removing lib.o(i._ZN15cHwEthernet_MCUC1ERN7cHwPort3PinERK8cNetAddrILh6EE), (532 bytes).
    Removing lib.o(i._ZN15cHwMemory_Flash4lockEv), (24 bytes).
    Removing lib.o(i._ZN15cHwMemory_Flash5clearEj), (60 bytes).
    Removing lib.o(i._ZN15cHwMemory_Flash6unlockEv), (40 bytes).
    Removing lib.o(i._ZN15cHwMemory_Flash8readByteEj), (6 bytes).
    Removing lib.o(i._ZN15cHwMemory_Flash9writeByteEjh), (32 bytes).
    Removing lib.o(i._ZN15cHwMemory_FlashC1ENS_6SectorE), (52 bytes).
    Removing lib.o(i._ZN16cDevAnalogOutPWM6setRawEt), (10 bytes).
    Removing lib.o(i._ZN16cDevAnalogOutPWMC1ER8cHwTimerNS0_4ModeEhff), (36 bytes).
    Removing lib.o(i._ZN17cHwDisplayGraphic12setTextColorEt), (4 bytes).
    Removing lib.o(i._ZN17cHwDisplayGraphic7setFontE14cHwDisplayFonth), (20 bytes).
    Removing lib.o(i._ZN17cHwDisplayGraphic7setZoomEh), (6 bytes).
    Removing lib.o(i._ZN17cHwDisplayGraphic9putBitmapEttttPKt), (66 bytes).
    Removing lib.o(i._ZN17cHwI2Cmaster_Emul11readByteAckEv), (144 bytes).
    Removing lib.o(i._ZN17cHwI2Cmaster_Emul11waitForAcknEv), (42 bytes).
    Removing lib.o(i._ZN17cHwI2Cmaster_Emul12readByteNackEv), (160 bytes).
    Removing lib.o(i._ZN17cHwI2Cmaster_Emul4stopEv), (88 bytes).
    Removing lib.o(i._ZN17cHwI2Cmaster_Emul4waitEv), (6 bytes).
    Removing lib.o(i._ZN17cHwI2Cmaster_Emul5startEv), (80 bytes).
    Removing lib.o(i._ZN17cHwI2Cmaster_Emul8sendAddrEh), (6 bytes).
    Removing lib.o(i._ZN17cHwI2Cmaster_Emul9writeByteEh), (156 bytes).
    Removing lib.o(i._ZN17cHwI2Cmaster_EmulC1ERN7cHwPort3PinES2_N12cHwI2Cmaster4MODEE), (116 bytes).
    Removing lib.o(i._ZN18cDevDisplayGraphic10drawBitmapEttttPKt), (20 bytes).
    Removing lib.o(i._ZN18cDevDisplayGraphic12setTextColorEt), (8 bytes).
    Removing lib.o(i._ZN18cDevDisplayGraphic14getDefaultFontEv), (8 bytes).
    Removing lib.o(i._ZN18cDevDisplayGraphic7setFontE14cHwDisplayFonth), (24 bytes).
    Removing lib.o(i._ZN18cDevDisplayGraphic7setZoomEh), (8 bytes).
    Removing lib.o(i._ZN18cDevDisplayGraphic8drawTextEttPKc), (38 bytes).
    Removing lib.o(i._ZN20cDevAnalogOutPWMemul6setRawEt), (28 bytes).
    Removing lib.o(i._ZN20cDevAnalogOutPWMemul6updateEv), (60 bytes).
    Removing lib.o(i._ZN20cDevAnalogOutPWMemulC1ER8cHwTimerR11cDevDigitalhff), (88 bytes).
    Removing lib.o(i._ZN20cDevDigitalIndicator6updateEv), (124 bytes).
    Removing lib.o(i._ZN20cDevDigitalIndicatorC1ER11cDevDigitalR8cHwTimer), (128 bytes).
    Removing lib.o(i._ZN28cDevControlEncoderRotaryKnob12getIncrementEv), (110 bytes).
    Removing lib.o(i._ZN28cDevControlEncoderRotaryKnobC1EP11cDevDigitalS1_S1_P8cHwTimer), (28 bytes).
    Removing lib.o(i._ZN4cCRCC1ENS_4MODEEtt), (66 bytes).
    Removing lib.o(i._ZN4cCRCD1Ev), (18 bytes).
    Removing lib.o(i._ZN4cCRCclEPKhj), (60 bytes).
    Removing lib.o(i._ZN4cCRCclEh), (46 bytes).
    Removing lib.o(i._ZN5cList4Item7getNextEv), (4 bytes).
    Removing lib.o(i._ZN5cList4Item7getPrevERS_), (46 bytes).
    Removing lib.o(i._ZN5cList8getFirstEv), (4 bytes).
    Removing lib.o(i._ZN5cListixEt), (18 bytes).
    Removing lib.o(i._ZN6cHwUSB12eventHandlerEhh), (80 bytes).
    Removing lib.o(i._ZN6cHwUSBC2ER10cHwUSBdesc), (28 bytes).
    Removing lib.o(i._ZN6cNetIP6createE8cNetAddrILh6EES0_ILh4EEtt), (146 bytes).
    Removing lib.o(i._ZN6cNetIP6updateEv), (64 bytes).
    Removing lib.o(i._ZN6cNetIP7processEv), (94 bytes).
    Removing lib.o(i._ZN6cNetIPC1ER11cHwEthernetRK8cNetAddrILh4EER8cHwTimer), (112 bytes).
    Removing lib.o(i._ZN6cTimer4stopEv), (6 bytes).
    Removing lib.o(i._ZN6cTimer7timeoutEtt), (26 bytes).
    Removing lib.o(i._ZN6cTimer9isRunningEv), (28 bytes).
    Removing lib.o(i._ZN7cHwPort3PinC1ERS_hNS_4ModeE), (40 bytes).
    Removing lib.o(i._ZN7cHwUART12transmitByteEh), (56 bytes).
    Removing lib.o(i._ZN7cHwUART3getEPh), (32 bytes).
    Removing lib.o(i._ZN7cHwUART3getEv), (26 bytes).
    Removing lib.o(i._ZN7cHwUART3setEPKc), (26 bytes).
    Removing lib.o(i._ZN7cHwUART3setEPKhh), (30 bytes).
    Removing lib.o(i._ZN7cHwUART3setEh), (6 bytes).
    Removing lib.o(i._ZN7cHwUARTC2Ehh), (36 bytes).
    Removing lib.o(i._ZN7cNetARP6setTCPEP7cNetTCP), (4 bytes).
    Removing lib.o(i._ZN7cNetARP6setUDPEP7cNetUDP), (4 bytes).
    Removing lib.o(i._ZN7cNetARP7processEv), (212 bytes).
    Removing lib.o(i._ZN7cNetARP7requestER8cNetAddrILh4EE), (148 bytes).
    Removing lib.o(i._ZN7cNetARPC1ER11cHwEthernetR8cNetAddrILh4EE), (30 bytes).
    Removing lib.o(i._ZN7cNetTCP6Socket10fillBufferEc), (62 bytes).
    Removing lib.o(i._ZN7cNetTCP6Socket10getDataPtrEv), (10 bytes).
    Removing lib.o(i._ZN7cNetTCP6Socket11isConnectedEv), (20 bytes).
    Removing lib.o(i._ZN7cNetTCP6Socket13setDataLengthEt), (12 bytes).
    Removing lib.o(i._ZN7cNetTCP6Socket3getEPc), (32 bytes).
    Removing lib.o(i._ZN7cNetTCP6Socket4openE8cNetAddrILh4EEt), (192 bytes).
    Removing lib.o(i._ZN7cNetTCP6Socket4sendEv), (70 bytes).
    Removing lib.o(i._ZN7cNetTCP6Socket5clearEv), (14 bytes).
    Removing lib.o(i._ZN7cNetTCP6Socket5closeEv), (80 bytes).
    Removing lib.o(i._ZN7cNetTCP6Socket6updateEv), (76 bytes).
    Removing lib.o(i._ZN7cNetTCP6Socket7isReadyEv), (36 bytes).
    Removing lib.o(i._ZN7cNetTCP6Socket7processEv), (640 bytes).
    Removing lib.o(i._ZN7cNetTCP6Socket7timeoutEv), (70 bytes).
    Removing lib.o(i._ZN7cNetTCP6SocketC1ERS_R15cNetApplication8cNetAddrILh4EEt), (40 bytes).
    Removing lib.o(i._ZN7cNetTCP6createERNS_6SocketEt), (256 bytes).
    Removing lib.o(i._ZN7cNetTCP9handleARPE8cNetAddrILh4EES0_ILh6EE), (64 bytes).
    Removing lib.o(i._ZN7cNetTCPC1ER6cNetIP), (48 bytes).
    Removing lib.o(i._ZN7cNetUDP6Socket10fillBufferEc), (62 bytes).
    Removing lib.o(i._ZN7cNetUDP6Socket10getDataPtrEv), (10 bytes).
    Removing lib.o(i._ZN7cNetUDP6Socket11isConnectedEv), (16 bytes).
    Removing lib.o(i._ZN7cNetUDP6Socket13setDataLengthEt), (12 bytes).
    Removing lib.o(i._ZN7cNetUDP6Socket3getEPc), (32 bytes).
    Removing lib.o(i._ZN7cNetUDP6Socket4openE8cNetAddrILh4EEt), (92 bytes).
    Removing lib.o(i._ZN7cNetUDP6Socket4sendEv), (34 bytes).
    Removing lib.o(i._ZN7cNetUDP6Socket5clearEv), (14 bytes).
    Removing lib.o(i._ZN7cNetUDP6Socket5closeEv), (8 bytes).
    Removing lib.o(i._ZN7cNetUDP6Socket6updateEv), (40 bytes).
    Removing lib.o(i._ZN7cNetUDP6Socket7isReadyEv), (36 bytes).
    Removing lib.o(i._ZN7cNetUDP6Socket7processEv), (164 bytes).
    Removing lib.o(i._ZN7cNetUDP6Socket7timeoutEv), (50 bytes).
    Removing lib.o(i._ZN7cNetUDP6SocketC1ERS_R15cNetApplication8cNetAddrILh4EEtt), (32 bytes).
    Removing lib.o(i._ZN7cNetUDP6createERNS_6SocketEt), (126 bytes).
    Removing lib.o(i._ZN7cNetUDP9handleARPE8cNetAddrILh4EES0_ILh6EE), (64 bytes).
    Removing lib.o(i._ZN7cNetUDPC1ER6cNetIP), (36 bytes).
    Removing lib.o(i._ZN7cSystem12feedWatchdogEv), (16 bytes).
    Removing lib.o(i._ZN7cSystem14enableWatchdogENS_4MODEE), (96 bytes).
    Removing lib.o(i._ZN7cSystem5resetEv), (52 bytes).
    Removing lib.o(i._ZN7cSystem5startEv), (4 bytes).
    Removing lib.o(i._ZN7cSystem8enterISREv), (16 bytes).
    Removing lib.o(i._ZN7cSystem8leaveISREv), (20 bytes).
    Removing lib.o(i._ZN8cHwRTC_03setERKN6cHwRTC10PropertiesE), (300 bytes).
    Removing lib.o(i._ZN8cHwUSB_010EndpointIN4initEh), (32 bytes).
    Removing lib.o(i._ZN8cHwUSB_010EndpointIN5flushEv), (32 bytes).
    Removing lib.o(i._ZN8cHwUSB_010EndpointIN5resetEv), (10 bytes).
    Removing lib.o(i._ZN8cHwUSB_010EndpointIN5startEv), (36 bytes).
    Removing lib.o(i._ZN8cHwUSB_010EndpointIN5writeEPht), (42 bytes).
    Removing lib.o(i._ZN8cHwUSB_010EndpointIN8clrStallEv), (24 bytes).
    Removing lib.o(i._ZN8cHwUSB_010EndpointIN8setStallEv), (32 bytes).
    Removing lib.o(i._ZN8cHwUSB_010EndpointINC1Ev), (12 bytes).
    Removing lib.o(i._ZN8cHwUSB_010clrStallEPEh), (44 bytes).
    Removing lib.o(i._ZN8cHwUSB_010setAddressEh), (40 bytes).
    Removing lib.o(i._ZN8cHwUSB_010setStallEPEh), (44 bytes).
    Removing lib.o(i._ZN8cHwUSB_011EndpointOUT4initEh), (32 bytes).
    Removing lib.o(i._ZN8cHwUSB_011EndpointOUT4readEPht), (48 bytes).
    Removing lib.o(i._ZN8cHwUSB_011EndpointOUT5flushEv), (28 bytes).
    Removing lib.o(i._ZN8cHwUSB_011EndpointOUT5resetEv), (10 bytes).
    Removing lib.o(i._ZN8cHwUSB_011EndpointOUT5startEv), (56 bytes).
    Removing lib.o(i._ZN8cHwUSB_011EndpointOUT8clrStallEv), (24 bytes).
    Removing lib.o(i._ZN8cHwUSB_011EndpointOUT8setStallEv), (52 bytes).
    Removing lib.o(i._ZN8cHwUSB_011EndpointOUTC1Ev), (12 bytes).
    Removing lib.o(i._ZN8cHwUSB_05resetEv), (120 bytes).
    Removing lib.o(i._ZN8cHwUSB_05startEv), (352 bytes).
    Removing lib.o(i._ZN8cHwUSB_06readEPEhPht), (44 bytes).
    Removing lib.o(i._ZN8cHwUSB_07writeEPEhPht), (42 bytes).
    Removing lib.o(i._ZN8cHwUSB_08configEPEhth), (80 bytes).
    Removing lib.o(i._ZN8cHwUSB_09CoreResetEv), (60 bytes).
    Removing lib.o(i._ZN8cHwUSB_09configureEh), (2 bytes).
    Removing lib.o(i._ZN8cHwUSB_0C1ER10cHwUSBdesc), (108 bytes).
    Removing lib.o(i._ZN8cNetDHCP13parse_optionsEPhi), (40 bytes).
    Removing lib.o(i._ZN8cNetDHCP4sendEh), (204 bytes).
    Removing lib.o(i._ZN8cNetDHCP7OnErrorEv), (2 bytes).
    Removing lib.o(i._ZN8cNetDHCP9OnReceiveEv), (152 bytes).
    Removing lib.o(i._ZN8cNetDHCP9OnTimeoutEv), (88 bytes).
    Removing lib.o(i._ZN8cNetDHCPC1ER7cNetUDPPKc), (108 bytes).
    Removing lib.o(i._ZN8cNetICMP7processEv), (132 bytes).
    Removing lib.o(i._ZN8cNetICMPC1ER6cNetIP), (6 bytes).
    Removing lib.o(i._ZN9cHwMemoryC2Ejh), (20 bytes).
    Removing lib.o(i._ZN9cHwPort_N7setModeEjN7cHwPort4ModeE), (42 bytes).
    Removing lib.o(i._ZN9cHwUART_NC1ENS_8USART_IdEjhh), (636 bytes).
    Removing lib.o(i._ZThn16_N20cDevAnalogOutPWMemul6updateEv), (6 bytes).
    Removing lib.o(.ARM.exidx), (8 bytes).
    Removing lib.o(.ARM.exidx), (8 bytes).
    Removing lib.o(.ARM.exidx), (8 bytes).
    Removing lib.o(.ARM.exidx), (8 bytes).
    Removing lib.o(.ARM.exidx), (8 bytes).
    Removing lib.o(.ARM.exidx), (8 bytes).
    Removing lib.o(.ARM.exidx), (8 bytes).
    Removing lib.o(.ARM.exidx), (8 bytes).
    Removing lib.o(.ARM.exidx), (8 bytes).
    Removing lib.o(.ARM.exidx), (8 bytes).
    Removing lib.o(.ARM.exidx), (8 bytes).
    Removing lib.o(.ARM.exidx), (8 bytes).
    Removing lib.o(.ARM.exidx), (8 bytes).
    Removing lib.o(.ARM.exidx), (8 bytes).
    Removing lib.o(.ARM.exidx), (8 bytes).
    Removing lib.o(.ARM.exidx), (8 bytes).
    Removing lib.o(.ARM.exidx), (8 bytes).
    Removing lib.o(.ARM.exidx), (8 bytes).
    Removing lib.o(.ARM.exidx), (8 bytes).
    Removing lib.o(.ARM.exidx), (8 bytes).
    Removing lib.o(.ARM.exidx), (8 bytes).
    Removing lib.o(.ARM.exidx), (8 bytes).
    Removing lib.o(.ARM.exidx), (8 bytes).
    Removing lib.o(.ARM.exidx), (8 bytes).
    Removing lib.o(.ARM.exidx), (8 bytes).
    Removing lib.o(.ARM.exidx), (8 bytes).
    Removing lib.o(.ARM.exidx), (8 bytes).
    Removing lib.o(.ARM.exidx), (8 bytes).
    Removing lib.o(.ARM.exidx), (8 bytes).
    Removing lib.o(.ARM.exidx), (8 bytes).
    Removing lib.o(.ARM.exidx), (8 bytes).
    Removing lib.o(.ARM.exidx), (8 bytes).
    Removing lib.o(.ARM.exidx), (8 bytes).
    Removing lib.o(.ARM.exidx), (8 bytes).
    Removing lib.o(.ARM.exidx), (8 bytes).
    Removing lib.o(.ARM.exidx), (8 bytes).
    Removing lib.o(.ARM.exidx), (8 bytes).
    Removing lib.o(.ARM.exidx), (8 bytes).
    Removing lib.o(.ARM.exidx), (8 bytes).
    Removing lib.o(.ARM.exidx), (8 bytes).
    Removing lib.o(.ARM.exidx), (8 bytes).
    Removing lib.o(.ARM.exidx), (8 bytes).
    Removing lib.o(.ARM.exidx), (8 bytes).
    Removing lib.o(.ARM.exidx), (8 bytes).
    Removing lib.o(.ARM.exidx), (8 bytes).
    Removing lib.o(.ARM.exidx), (8 bytes).
    Removing lib.o(.ARM.exidx), (8 bytes).
    Removing lib.o(.ARM.exidx), (8 bytes).
    Removing lib.o(.ARM.exidx), (8 bytes).
    Removing lib.o(.ARM.exidx), (8 bytes).
    Removing lib.o(.ARM.exidx), (8 bytes).
    Removing lib.o(.ARM.exidx), (8 bytes).
    Removing lib.o(.ARM.exidx), (8 bytes).
    Removing lib.o(.ARM.exidx), (8 bytes).
    Removing lib.o(.ARM.exidx), (8 bytes).
    Removing lib.o(.ARM.exidx), (8 bytes).
    Removing lib.o(.ARM.exidx), (8 bytes).
    Removing lib.o(.ARM.exidx), (8 bytes).
    Removing lib.o(.ARM.exidx), (8 bytes).
    Removing lib.o(.ARM.exidx), (8 bytes).
    Removing lib.o(.ARM.exidx), (8 bytes).
    Removing lib.o(.ARM.exidx), (8 bytes).
    Removing lib.o(.ARM.exidx), (8 bytes).
    Removing lib.o(.ARM.exidx), (8 bytes).
    Removing lib.o(.ARM.exidx), (8 bytes).
    Removing lib.o(.ARM.exidx), (8 bytes).
    Removing lib.o(.ARM.exidx), (8 bytes).
    Removing lib.o(.ARM.exidx), (8 bytes).
    Removing lib.o(.ARM.exidx), (8 bytes).
    Removing lib.o(.ARM.exidx), (8 bytes).
    Removing lib.o(.ARM.exidx), (8 bytes).
    Removing lib.o(.ARM.exidx), (8 bytes).
    Removing lib.o(.ARM.exidx), (8 bytes).
    Removing lib.o(.ARM.exidx), (8 bytes).
    Removing lib.o(.ARM.exidx), (8 bytes).
    Removing lib.o(.ARM.exidx), (8 bytes).
    Removing lib.o(.ARM.exidx), (8 bytes).
    Removing lib.o(.ARM.exidx), (8 bytes).
    Removing lib.o(.ARM.exidx), (8 bytes).
    Removing lib.o(.ARM.exidx), (8 bytes).
    Removing lib.o(.ARM.exidx), (8 bytes).
    Removing lib.o(.ARM.exidx), (8 bytes).
    Removing lib.o(.ARM.exidx), (8 bytes).
    Removing lib.o(.ARM.exidx), (8 bytes).
    Removing lib.o(.ARM.exidx), (8 bytes).
    Removing lib.o(.ARM.exidx), (8 bytes).
    Removing lib.o(.ARM.exidx), (8 bytes).
    Removing lib.o(.ARM.exidx), (8 bytes).
    Removing lib.o(.ARM.exidx), (8 bytes).
    Removing lib.o(.ARM.exidx), (8 bytes).
    Removing lib.o(.ARM.exidx), (8 bytes).
    Removing lib.o(.ARM.exidx), (8 bytes).
    Removing lib.o(.ARM.exidx), (8 bytes).
    Removing lib.o(.ARM.exidx), (8 bytes).
    Removing lib.o(.ARM.exidx), (8 bytes).
    Removing lib.o(.ARM.exidx), (8 bytes).
    Removing lib.o(.ARM.exidx), (8 bytes).
    Removing lib.o(.ARM.exidx), (8 bytes).
    Removing lib.o(.ARM.exidx), (8 bytes).
    Removing lib.o(.ARM.exidx), (8 bytes).
    Removing lib.o(.ARM.exidx), (8 bytes).
    Removing lib.o(.ARM.exidx), (8 bytes).
    Removing lib.o(.ARM.exidx), (8 bytes).
    Removing lib.o(.ARM.exidx), (8 bytes).
    Removing lib.o(.ARM.exidx), (8 bytes).
    Removing lib.o(.ARM.exidx), (8 bytes).
    Removing lib.o(.ARM.exidx), (8 bytes).
    Removing lib.o(.ARM.exidx), (8 bytes).
    Removing lib.o(.ARM.exidx), (8 bytes).
    Removing lib.o(.ARM.exidx), (8 bytes).
    Removing lib.o(.ARM.exidx), (8 bytes).
    Removing lib.o(.ARM.exidx), (8 bytes).
    Removing lib.o(.ARM.exidx), (8 bytes).
    Removing lib.o(.ARM.exidx), (8 bytes).
    Removing lib.o(.ARM.exidx), (8 bytes).
    Removing lib.o(.ARM.exidx), (8 bytes).
    Removing lib.o(.ARM.exidx), (8 bytes).
    Removing lib.o(.ARM.exidx), (8 bytes).
    Removing lib.o(.ARM.exidx), (8 bytes).
    Removing lib.o(.ARM.exidx), (8 bytes).
    Removing lib.o(.ARM.exidx), (8 bytes).
    Removing lib.o(.ARM.exidx), (8 bytes).
    Removing lib.o(.ARM.exidx), (8 bytes).
    Removing lib.o(.ARM.exidx), (8 bytes).
    Removing lib.o(.ARM.exidx), (8 bytes).
    Removing lib.o(.ARM.exidx), (8 bytes).
    Removing lib.o(.ARM.exidx), (8 bytes).
    Removing lib.o(.ARM.exidx), (8 bytes).
    Removing lib.o(.ARM.exidx), (8 bytes).
    Removing lib.o(.ARM.exidx), (8 bytes).
    Removing lib.o(.ARM.exidx), (8 bytes).
    Removing lib.o(.ARM.exidx), (8 bytes).
    Removing lib.o(.ARM.exidx), (8 bytes).
    Removing lib.o(.ARM.exidx), (8 bytes).
    Removing lib.o(.ARM.exidx), (8 bytes).
    Removing lib.o(.ARM.exidx), (8 bytes).
    Removing lib.o(.ARM.exidx), (8 bytes).
    Removing lib.o(.ARM.exidx), (8 bytes).
    Removing lib.o(.ARM.exidx), (8 bytes).
    Removing lib.o(.ARM.exidx), (8 bytes).
    Removing lib.o(.ARM.exidx), (8 bytes).
    Removing lib.o(.ARM.exidx), (8 bytes).
    Removing lib.o(.ARM.exidx), (8 bytes).
    Removing lib.o(.ARM.exidx), (8 bytes).
    Removing lib.o(.ARM.exidx), (8 bytes).
    Removing lib.o(.ARM.exidx), (8 bytes).
    Removing lib.o(.ARM.exidx), (8 bytes).
    Removing lib.o(.ARM.exidx), (8 bytes).
    Removing lib.o(.ARM.exidx), (8 bytes).
    Removing lib.o(.ARM.exidx), (8 bytes).
    Removing lib.o(.ARM.exidx), (8 bytes).
    Removing lib.o(.ARM.exidx), (8 bytes).
    Removing lib.o(.ARM.exidx), (8 bytes).
    Removing lib.o(.ARM.exidx), (8 bytes).
    Removing lib.o(.ARM.exidx), (8 bytes).
    Removing lib.o(.ARM.exidx), (8 bytes).
    Removing lib.o(.ARM.exidx), (8 bytes).
    Removing lib.o(.ARM.exidx), (8 bytes).
    Removing lib.o(.ARM.exidx), (8 bytes).
    Removing lib.o(.ARM.exidx), (8 bytes).
    Removing lib.o(.ARM.exidx), (8 bytes).
    Removing lib.o(.ARM.exidx), (8 bytes).
    Removing lib.o(.ARM.exidx), (8 bytes).
    Removing lib.o(.ARM.exidx), (8 bytes).
    Removing lib.o(.ARM.exidx), (8 bytes).
    Removing lib.o(.ARM.exidx), (8 bytes).
    Removing lib.o(.ARM.exidx), (8 bytes).
    Removing lib.o(.ARM.exidx), (8 bytes).
    Removing lib.o(.ARM.exidx), (8 bytes).
    Removing lib.o(.ARM.exidx), (8 bytes).
    Removing lib.o(.ARM.exidx), (8 bytes).
    Removing lib.o(.ARM.exidx), (8 bytes).
    Removing lib.o(.ARM.exidx), (8 bytes).
    Removing lib.o(.ARM.exidx), (8 bytes).
    Removing lib.o(.ARM.exidx), (8 bytes).
    Removing lib.o(.ARM.exidx), (8 bytes).
    Removing lib.o(.ARM.exidx), (8 bytes).
    Removing lib.o(.ARM.exidx), (8 bytes).
    Removing lib.o(.ARM.exidx), (8 bytes).
    Removing lib.o(.ARM.exidx), (8 bytes).
    Removing lib.o(.ARM.exidx), (8 bytes).
    Removing lib.o(.ARM.exidx), (8 bytes).
    Removing lib.o(.ARM.exidx), (8 bytes).
    Removing lib.o(.ARM.exidx), (8 bytes).
    Removing lib.o(.ARM.exidx), (8 bytes).
    Removing lib.o(.ARM.exidx), (8 bytes).
    Removing lib.o(.ARM.exidx), (8 bytes).
    Removing lib.o(.ARM.exidx), (8 bytes).
    Removing lib.o(.ARM.exidx), (8 bytes).
    Removing lib.o(.ARM.exidx), (8 bytes).
    Removing lib.o(.ARM.exidx), (8 bytes).
    Removing lib.o(.ARM.exidx), (8 bytes).
    Removing lib.o(.ARM.exidx), (8 bytes).
    Removing lib.o(.ARM.exidx), (8 bytes).
    Removing lib.o(.ARM.exidx), (8 bytes).
    Removing lib.o(.ARM.exidx), (8 bytes).
    Removing lib.o(.ARM.exidx), (8 bytes).
    Removing lib.o(.ARM.exidx), (8 bytes).
    Removing lib.o(.ARM.exidx), (8 bytes).
    Removing lib.o(.ARM.exidx), (8 bytes).
    Removing lib.o(.ARM.exidx), (8 bytes).
    Removing lib.o(.ARM.exidx), (8 bytes).
    Removing lib.o(.ARM.exidx), (8 bytes).
    Removing lib.o(.ARM.exidx), (8 bytes).
    Removing lib.o(.ARM.exidx), (8 bytes).
    Removing lib.o(.ARM.exidx), (8 bytes).
    Removing lib.o(.ARM.exidx), (8 bytes).
    Removing lib.o(.ARM.exidx), (8 bytes).
    Removing lib.o(.ARM.exidx), (8 bytes).
    Removing lib.o(.ARM.exidx), (8 bytes).
    Removing lib.o(.ARM.exidx), (8 bytes).
    Removing lib.o(.ARM.exidx), (8 bytes).
    Removing lib.o(.ARM.exidx), (8 bytes).
    Removing lib.o(.ARM.exidx), (8 bytes).
    Removing lib.o(.ARM.exidx), (8 bytes).
    Removing lib.o(.ARM.exidx), (8 bytes).
    Removing lib.o(.ARM.exidx), (8 bytes).
    Removing lib.o(.ARM.exidx), (8 bytes).
    Removing lib.o(.ARM.exidx), (8 bytes).
    Removing lib.o(.ARM.exidx), (8 bytes).
    Removing lib.o(.ARM.exidx), (8 bytes).
    Removing lib.o(.ARM.exidx), (8 bytes).
    Removing lib.o(.ARM.exidx), (8 bytes).
    Removing lib.o(.ARM.exidx), (8 bytes).
    Removing lib.o(.ARM.exidx), (8 bytes).
    Removing lib.o(.ARM.exidx), (8 bytes).
    Removing lib.o(.ARM.exidx), (8 bytes).
    Removing lib.o(.ARM.exidx), (8 bytes).
    Removing lib.o(.ARM.exidx), (8 bytes).
    Removing lib.o(.ARM.exidx), (8 bytes).
    Removing lib.o(.ARM.exidx), (8 bytes).
    Removing lib.o(.ARM.exidx), (8 bytes).
    Removing lib.o(.ARM.exidx), (8 bytes).
    Removing lib.o(.ARM.exidx), (8 bytes).
    Removing lib.o(.ARM.exidx), (8 bytes).
    Removing lib.o(.ARM.exidx), (8 bytes).
    Removing lib.o(.ARM.exidx), (8 bytes).
    Removing lib.o(.ARM.exidx), (8 bytes).
    Removing lib.o(.ARM.exidx), (8 bytes).
    Removing lib.o(.ARM.exidx), (8 bytes).
    Removing lib.o(.ARM.exidx), (8 bytes).
    Removing lib.o(.ARM.exidx), (8 bytes).
    Removing lib.o(.ARM.exidx), (8 bytes).
    Removing lib.o(.ARM.exidx), (8 bytes).
    Removing lib.o(.ARM.exidx), (8 bytes).
    Removing lib.o(.ARM.exidx), (8 bytes).
    Removing lib.o(.ARM.exidx), (8 bytes).
    Removing lib.o(.ARM.exidx), (8 bytes).
    Removing lib.o(.ARM.exidx), (8 bytes).
    Removing lib.o(.ARM.exidx), (8 bytes).
    Removing lib.o(.ARM.exidx), (8 bytes).
    Removing lib.o(.ARM.exidx), (8 bytes).
    Removing lib.o(.ARM.exidx), (8 bytes).
    Removing lib.o(.ARM.exidx), (8 bytes).
    Removing lib.o(.ARM.exidx), (8 bytes).
    Removing lib.o(.ARM.exidx), (8 bytes).
    Removing lib.o(.ARM.exidx), (8 bytes).
    Removing lib.o(.ARM.exidx), (8 bytes).
    Removing lib.o(.ARM.exidx), (8 bytes).
    Removing lib.o(.ARM.exidx), (8 bytes).
    Removing lib.o(.ARM.exidx), (8 bytes).
    Removing lib.o(.ARM.exidx), (8 bytes).
    Removing lib.o(.ARM.exidx), (8 bytes).
    Removing lib.o(.ARM.exidx), (8 bytes).
    Removing lib.o(.ARM.exidx), (8 bytes).
    Removing lib.o(.ARM.exidx), (8 bytes).
    Removing lib.o(.ARM.exidx), (8 bytes).
    Removing lib.o(.ARM.exidx), (8 bytes).
    Removing lib.o(.ARM.exidx), (8 bytes).
    Removing lib.o(.ARM.exidx), (8 bytes).
    Removing lib.o(.ARM.exidx), (8 bytes).
    Removing lib.o(.ARM.exidx), (8 bytes).
    Removing lib.o(.ARM.exidx), (8 bytes).
    Removing lib.o(.ARM.exidx), (8 bytes).
    Removing lib.o(.ARM.exidx), (8 bytes).
    Removing lib.o(.ARM.exidx), (8 bytes).
    Removing lib.o(.ARM.exidx), (8 bytes).
    Removing lib.o(.ARM.exidx), (8 bytes).
    Removing lib.o(.ARM.exidx), (8 bytes).
    Removing lib.o(.ARM.exidx), (8 bytes).
    Removing lib.o(.ARM.exidx), (8 bytes).
    Removing lib.o(.ARM.exidx), (8 bytes).
    Removing lib.o(.ARM.exidx), (8 bytes).
    Removing lib.o(.ARM.exidx), (8 bytes).
    Removing lib.o(.ARM.exidx), (8 bytes).
    Removing lib.o(.ARM.exidx), (8 bytes).
    Removing lib.o(.ARM.exidx), (8 bytes).
    Removing lib.o(.ARM.exidx), (8 bytes).
    Removing lib.o(.ARM.exidx), (8 bytes).
    Removing lib.o(.ARM.exidx), (8 bytes).
    Removing lib.o(.ARM.exidx), (8 bytes).
    Removing lib.o(.ARM.exidx), (8 bytes).
    Removing lib.o(.ARM.exidx), (8 bytes).
    Removing lib.o(.ARM.exidx), (8 bytes).
    Removing lib.o(.ARM.exidx), (8 bytes).
    Removing lib.o(.ARM.exidx), (8 bytes).
    Removing lib.o(.ARM.exidx), (8 bytes).
    Removing lib.o(.ARM.exidx), (8 bytes).
    Removing lib.o(.ARM.exidx), (8 bytes).
    Removing lib.o(.ARM.exidx), (8 bytes).
    Removing lib.o(.ARM.exidx), (8 bytes).
    Removing lib.o(.ARM.exidx), (8 bytes).
    Removing lib.o(.ARM.exidx), (8 bytes).
    Removing lib.o(.ARM.exidx), (8 bytes).
    Removing lib.o(.ARM.exidx), (8 bytes).
    Removing lib.o(.ARM.exidx), (8 bytes).
    Removing lib.o(.ARM.exidx), (8 bytes).
    Removing lib.o(.ARM.exidx), (8 bytes).
    Removing lib.o(.ARM.exidx), (8 bytes).
    Removing lib.o(.ARM.exidx), (8 bytes).
    Removing lib.o(.ARM.exidx), (8 bytes).
    Removing lib.o(.ARM.exidx), (8 bytes).
    Removing lib.o(.ARM.exidx), (8 bytes).
    Removing lib.o(.ARM.exidx), (8 bytes).
    Removing lib.o(.ARM.exidx), (8 bytes).
    Removing lib.o(.ARM.exidx), (8 bytes).
    Removing lib.o(.ARM.exidx), (8 bytes).
    Removing lib.o(.ARM.exidx), (8 bytes).
    Removing lib.o(.ARM.exidx), (8 bytes).
    Removing lib.o(.ARM.exidx), (8 bytes).
    Removing lib.o(.ARM.exidx), (8 bytes).
    Removing lib.o(.ARM.exidx), (8 bytes).
    Removing lib.o(.ARM.exidx), (8 bytes).
    Removing lib.o(.ARM.exidx), (8 bytes).
    Removing lib.o(.ARM.exidx), (8 bytes).
    Removing lib.o(.ARM.exidx), (8 bytes).
    Removing lib.o(.ARM.exidx), (8 bytes).
    Removing lib.o(.ARM.exidx), (8 bytes).
    Removing lib.o(.ARM.exidx), (8 bytes).
    Removing lib.o(.ARM.exidx), (8 bytes).
    Removing lib.o(.ARM.exidx), (8 bytes).
    Removing lib.o(.ARM.exidx), (8 bytes).
    Removing lib.o(.ARM.exidx), (8 bytes).
    Removing lib.o(.ARM.exidx), (8 bytes).
    Removing lib.o(.ARM.exidx), (8 bytes).
    Removing lib.o(.ARM.exidx), (8 bytes).
    Removing lib.o(.ARM.exidx), (8 bytes).
    Removing lib.o(.ARM.exidx), (8 bytes).
    Removing lib.o(.ARM.exidx), (8 bytes).
    Removing lib.o(.ARM.exidx), (8 bytes).
    Removing lib.o(.ARM.exidx), (8 bytes).
    Removing lib.o(.ARM.exidx), (8 bytes).
    Removing lib.o(.ARM.exidx), (8 bytes).
    Removing lib.o(.ARM.exidx), (8 bytes).
    Removing lib.o(.ARM.exidx), (8 bytes).
    Removing lib.o(.ARM.exidx), (8 bytes).
    Removing lib.o(.ARM.exidx), (8 bytes).
    Removing lib.o(.ARM.exidx), (8 bytes).
    Removing lib.o(.ARM.exidx), (8 bytes).
    Removing lib.o(.ARM.exidx), (8 bytes).
    Removing lib.o(.ARM.exidx), (8 bytes).
    Removing lib.o(.ARM.exidx), (8 bytes).
    Removing lib.o(.ARM.exidx), (8 bytes).
    Removing lib.o(.ARM.exidx), (8 bytes).
    Removing lib.o(.ARM.exidx), (8 bytes).
    Removing lib.o(.ARM.exidx), (8 bytes).
    Removing lib.o(.ARM.exidx), (8 bytes).
    Removing lib.o(.ARM.exidx), (8 bytes).
    Removing lib.o(.ARM.exidx), (8 bytes).
    Removing lib.o(.ARM.exidx), (8 bytes).
    Removing lib.o(.ARM.exidx), (8 bytes).
    Removing lib.o(.ARM.exidx), (8 bytes).
    Removing lib.o(.ARM.exidx), (8 bytes).
    Removing lib.o(.ARM.exidx), (8 bytes).
    Removing lib.o(.ARM.exidx), (8 bytes).
    Removing lib.o(.ARM.exidx), (8 bytes).
    Removing lib.o(.ARM.exidx), (8 bytes).
    Removing lib.o(.ARM.exidx), (8 bytes).
    Removing lib.o(.ARM.exidx), (8 bytes).
    Removing lib.o(.ARM.exidx), (8 bytes).
    Removing lib.o(.ARM.exidx), (8 bytes).
    Removing lib.o(.ARM.exidx), (8 bytes).
    Removing lib.o(.ARM.exidx), (8 bytes).
    Removing lib.o(.bss), (12 bytes).
    Removing lib.o(.data), (4 bytes).
    Removing rtos.o(.rev16_text), (4 bytes).
    Removing rtos.o(.revsh_text), (4 bytes).
    Removing rtos.o(.rrx_text), (6 bytes).
    Removing rtos.o(i._ZN5cRTOS4TaskD0Ev), (20 bytes).
    Removing rtos.o(.ARM.exidx), (8 bytes).
    Removing rtos.o(.ARM.exidx), (8 bytes).
    Removing rtos.o(.ARM.exidx), (8 bytes).
    Removing rtos.o(.ARM.exidx), (8 bytes).
    Removing rtos.o(.ARM.exidx), (8 bytes).
    Removing rtos.o(.ARM.exidx), (8 bytes).
    Removing rtos.o(.ARM.exidx), (8 bytes).
    Removing rtos.o(.ARM.exidx), (8 bytes).
    Removing rtos.o(.ARM.exidx), (8 bytes).
    Removing rtos.o(.ARM.exidx), (8 bytes).
    Removing rtos.o(.ARM.exidx), (8 bytes).
    Removing rtos.o(.ARM.exidx), (8 bytes).
    Removing rtos.o(.ARM.exidx), (8 bytes).
    Removing rtos.o(.ARM.exidx), (8 bytes).
    Removing rtos.o(.ARM.exidx), (8 bytes).
    Removing disp_otm8009a.o(.rev16_text), (4 bytes).
    Removing disp_otm8009a.o(.revsh_text), (4 bytes).
    Removing disp_otm8009a.o(.rrx_text), (6 bytes).
    Removing disp_otm8009a.o(i._ZN19cHwDisp_OTM8009Acmd5clearEv), (62 bytes).
    Removing disp_otm8009a.o(i._ZN19cHwDisp_OTM8009Acmd7refreshEv), (2 bytes).
    Removing disp_otm8009a.o(i._ZN19cHwDisp_OTM8009Acmd7setAreaEtttt), (24 bytes).
    Removing disp_otm8009a.o(i._ZN19cHwDisp_OTM8009Acmd8setPixelEt), (256 bytes).
    Removing disp_otm8009a.o(i._ZN19cHwDisp_OTM8009Acmd8setPixelEttt), (144 bytes).
    Removing disp_otm8009a.o(i._ZN19cHwDisp_OTM8009AcmdC1ER6cHwDSIRN7cHwPort3PinEN16cHwDisp_OTM8009A11OrientationE14cHwDisplayFonth), (80 bytes).
    Removing disp_otm8009a.o(.ARM.exidx), (8 bytes).
    Removing disp_otm8009a.o(.ARM.exidx), (8 bytes).
    Removing disp_otm8009a.o(.ARM.exidx), (8 bytes).
    Removing disp_otm8009a.o(.ARM.exidx), (8 bytes).
    Removing disp_otm8009a.o(.ARM.exidx), (8 bytes).
    Removing disp_otm8009a.o(.ARM.exidx), (8 bytes).
    Removing disp_otm8009a.o(.ARM.exidx), (8 bytes).
    Removing disp_otm8009a.o(.ARM.exidx), (8 bytes).
    Removing disp_otm8009a.o(.ARM.exidx), (8 bytes).
    Removing disp_otm8009a.o(.ARM.exidx), (8 bytes).
    Removing disp_otm8009a.o(.ARM.exidx), (8 bytes).
    Removing disp_otm8009a.o(.ARM.exidx), (8 bytes).
    Removing disp_otm8009a.o(.ARM.exidx), (8 bytes).
    Removing touch_ft6206.o(.rev16_text), (4 bytes).
    Removing touch_ft6206.o(.revsh_text), (4 bytes).
    Removing touch_ft6206.o(.rrx_text), (6 bytes).
    Removing touch_ft6206.o(.ARM.exidx), (8 bytes).
    Removing touch_ft6206.o(.ARM.exidx), (8 bytes).
    Removing main.o(.ARM.exidx), (8 bytes).
    Removing main.o(.ARM.exidx), (8 bytes).
    Removing main.o(.ARM.exidx), (8 bytes).
    Removing main.o(.ARM.exidx), (8 bytes).
    Removing main.o(.ARM.exidx), (8 bytes).
    Removing main.o(.ARM.exidx), (8 bytes).
    Removing main.o(.ARM.exidx), (8 bytes).
    Removing main.o(.ARM.exidx), (8 bytes).
    Removing main.o(.ARM.exidx), (8 bytes).
    Removing main.o(.ARM.exidx), (8 bytes).
    Removing main.o(.ARM.exidx), (8 bytes).
    Removing main.o(.ARM.exidx), (8 bytes).
    Removing main.o(.ARM.exidx), (8 bytes).
    Removing main.o(.constdata__ZTI6cHwDSI), (8 bytes).
    Removing main.o(.constdata__ZTI13cTask_Example), (12 bytes).
    Removing main.o(.constdata__ZTI17cRtosTask_Example), (12 bytes).
    Removing main.o(.constdata__ZTI8cRTOS_RRILh3EE), (12 bytes).
    Removing main.o(.constdata__ZTI5cRTOS), (8 bytes).
    Removing main.o(.constdata__ZTIN12cTaskHandler4TaskE), (12 bytes).
    Removing main.o(.constdata__ZTS6cHwDSI), (8 bytes).
    Removing main.o(.constdata__ZTS13cTask_Example), (16 bytes).
    Removing main.o(.constdata__ZTS17cRtosTask_Example), (20 bytes).
    Removing main.o(.constdata__ZTS8cRTOS_RRILh3EE), (16 bytes).
    Removing main.o(.constdata__ZTIN5cList4ItemE), (8 bytes).
    Removing main.o(.constdata__ZTSN12cTaskHandler4TaskE), (22 bytes).
    Removing main.o(.constdata__ZTS5cRTOS), (7 bytes).
    Removing main.o(.constdata__ZTSN5cList4ItemE), (14 bytes).
    Removing main.o(.ARM.exidx), (8 bytes).
    Removing main.o(.ARM.exidx), (8 bytes).
    Removing main.o(i._ZN5cRTOS4Task8isActiveEv), (14 bytes).
    Removing main.o(.ARM.exidx), (8 bytes).
    Removing main.o(.ARM.exidx), (8 bytes).
    Removing main.o(i._ZN17cRtosTask_ExampleD0Ev), (14 bytes).
    Removing main.o(.ARM.exidx), (8 bytes).
    Removing main.o(.ARM.exidx), (8 bytes).
    Removing main.o(.ARM.exidx), (8 bytes).
    Removing main.o(.ARM.exidx), (8 bytes).
    Removing main.o(.ARM.exidx), (8 bytes).
    Removing main.o(.ARM.exidx), (8 bytes).
    Removing main.o(.ARM.exidx), (8 bytes).
    Removing main.o(.ARM.exidx), (8 bytes).
    Removing lib.o(.constdata__ZTV11cHwEthernet), (28 bytes).
    Removing lib.o(.constdata__ZTV15cHwEthernet_MCU), (28 bytes).
    Removing lib.o(.constdata__ZTV10cHwUSBdesc), (64 bytes).
    Removing lib.o(.constdata__ZTVN13cNetTransport6SocketE), (88 bytes).
    Removing lib.o(.constdata__ZTV13cNetTransport), (28 bytes).
    Removing lib.o(.constdata__ZTV7cNetUDP), (32 bytes).
    Removing lib.o(.constdata__ZTV8cNetDHCP), (32 bytes).
    Removing lib.o(.constdata__ZTV7cNetTCP), (32 bytes).
    Removing lib.o(.constdata__ZTV20cDevDigitalIndicator), (24 bytes).
    Removing lib.o(.constdata__ZTV15cHwMemory_Flash), (44 bytes).
    Removing lib.o(.constdata__ZTV7cHwUART), (52 bytes).
    Removing lib.o(.constdata__ZTV6cHwUSB), (48 bytes).
    Removing lib.o(.constdata__ZTV8cHwUSB_0), (48 bytes).
    Removing lib.o(.constdata__ZTV17cHwI2Cmaster_Emul), (48 bytes).
    Removing lib.o(.constdata__ZTVN12cHwSPImaster6DeviceE), (44 bytes).
    Removing lib.o(.constdata__ZTV10cHwUSBctrl), (24 bytes).
    Removing lib.o(.constdata__ZTVN7cNetUDP6SocketE), (88 bytes).
    Removing lib.o(.constdata__ZTVN7cNetTCP6SocketE), (88 bytes).
    Removing lib.o(.constdata__ZTV16cDevAnalogOutPWM), (20 bytes).
    Removing lib.o(.constdata__ZTV20cDevAnalogOutPWMemul), (36 bytes).
    Removing lib.o(.constdata__ZTV15cDevDisplayChar), (24 bytes).
    Removing lib.o(.constdata__ZTV10cDevTextIO), (20 bytes).
    Removing lib.o(.constdata__ZTV28cDevControlEncoderRotaryKnob), (20 bytes).
    Removing lib.o(.constdata__ZTVN12cTaskHandler5TimerE), (16 bytes).
    Removing lib.o(.ARM.exidx), (8 bytes).
    Removing lib.o(.ARM.exidx), (8 bytes).
    Removing lib.o(i._ZN15cHwEthernet_MCU20ETH_WritePHYRegisterEttt), (88 bytes).
    Removing lib.o(.ARM.exidx), (8 bytes).
    Removing lib.o(i._ZN15cHwEthernet_MCU19ETH_ReadPHYRegisterEtt), (88 bytes).
    Removing lib.o(.ARM.exidx), (8 bytes).
    Removing lib.o(i._ZN15cHwEthernet_MCU8ETH_InitEt), (548 bytes).
    Removing lib.o(.ARM.exidx), (8 bytes).
    Removing lib.o(t._ZN5cFifoIhElsERKh), (62 bytes).
    Removing lib.o(.ARM.exidx), (8 bytes).
    Removing lib.o(t._ZN5cFifoIhErsERh), (58 bytes).
    Removing lib.o(.ARM.exidx), (8 bytes).
    Removing lib.o(i._ZN10cHwUSBctrl29ReqDeviceStd_SetConfigurationEv), (242 bytes).
    Removing lib.o(.ARM.exidx), (8 bytes).
    Removing lib.o(i._ZN15cNetApplication10setTimeoutEtt), (22 bytes).
    Removing lib.o(.ARM.exidx), (8 bytes).
    Removing lib.o(i._ZN13cNetTransport6Socket10setTimeoutEtt), (22 bytes).
    Removing lib.o(.ARM.exidx), (8 bytes).
    Removing lib.o(i._ZN13cNetTransport6Socket4fillEc), (6 bytes).
    Removing lib.o(.ARM.exidx), (8 bytes).
    Removing lib.o(i._ZN13cNetTransport6Socket4fillEPKc), (28 bytes).
    Removing lib.o(.ARM.exidx), (8 bytes).
    Removing lib.o(i._ZN20cDevDigitalIndicator3clrEv), (8 bytes).
    Removing lib.o(.ARM.exidx), (8 bytes).
    Removing lib.o(.ARM.exidx), (8 bytes).
    Removing lib.o(.ARM.exidx), (8 bytes).
    Removing lib.o(t._Z3MINItET_S0_S0_), (12 bytes).
    Removing lib.o(.ARM.exidx), (8 bytes).
    Removing lib.o(.ARM.exidx), (8 bytes).
    Removing lib.o(.ARM.exidx), (8 bytes).
    Removing lib.o(.ARM.exidx), (8 bytes).
    Removing lib.o(i._ZN6cHwADC19getNumberOfChannelsEv), (4 bytes).
    Removing lib.o(.ARM.exidx), (8 bytes).
    Removing lib.o(.ARM.exidx), (8 bytes).
    Removing lib.o(.ARM.exidx), (8 bytes).
    Removing lib.o(.ARM.exidx), (8 bytes).
    Removing lib.o(.ARM.exidx), (8 bytes).
    Removing lib.o(t._ZNK8cNetAddrILh4EEeqERKS0_), (18 bytes).
    Removing lib.o(.ARM.exidx), (8 bytes).
    Removing lib.o(t._ZNK8cNetAddrILh6EEeqERKS0_), (18 bytes).
    Removing lib.o(.ARM.exidx), (8 bytes).
    Removing lib.o(t._ZN8cNetTYPEItEaSEt), (14 bytes).
    Removing lib.o(.ARM.exidx), (8 bytes).
    Removing lib.o(t._ZN8cNetTYPEItEcvtEv), (6 bytes).
    Removing lib.o(.ARM.exidx), (8 bytes).
    Removing lib.o(.ARM.exidx), (8 bytes).
    Removing lib.o(.ARM.exidx), (8 bytes).
    Removing lib.o(.ARM.exidx), (8 bytes).
    Removing lib.o(.ARM.exidx), (8 bytes).
    Removing lib.o(i._ZN14cHwI2Cmaster_N11waitForAcknEj), (2 bytes).
    Removing lib.o(.ARM.exidx), (8 bytes).
    Removing lib.o(.ARM.exidx), (8 bytes).
    Removing lib.o(.ARM.exidx), (8 bytes).
    Removing lib.o(.ARM.exidx), (8 bytes).
    Removing lib.o(.ARM.exidx), (8 bytes).
    Removing lib.o(.ARM.exidx), (8 bytes).
    Removing lib.o(.ARM.exidx), (8 bytes).
    Removing lib.o(i._ZN9cHwMemory5writeEjh), (14 bytes).
    Removing lib.o(.ARM.exidx), (8 bytes).
    Removing lib.o(i._ZN9cHwMemory4readEj), (16 bytes).
    Removing lib.o(.ARM.exidx), (8 bytes).
    Removing lib.o(i._ZN9cHwMemory7getSizeEv), (4 bytes).
    Removing lib.o(.ARM.exidx), (8 bytes).
    Removing lib.o(i._ZN9cHwMemory7isFlashEv), (4 bytes).
    Removing lib.o(.ARM.exidx), (8 bytes).
    Removing lib.o(.ARM.exidx), (8 bytes).
    Removing lib.o(i._ZN9cHwPort_N3setEjj), (20 bytes).
    Removing lib.o(.ARM.exidx), (8 bytes).
    Removing lib.o(.ARM.exidx), (8 bytes).
    Removing lib.o(.ARM.exidx), (8 bytes).
    Removing lib.o(t._ZN5cFifoIhEC1Eh), (30 bytes).
    Removing lib.o(.ARM.exidx), (8 bytes).
    Removing lib.o(t._ZN5cFifoIhE6isFullEv), (30 bytes).
    Removing lib.o(.ARM.exidx), (8 bytes).
    Removing lib.o(i._ZN7cHwUART14isTxBufferFullEv), (18 bytes).
    Removing lib.o(.ARM.exidx), (8 bytes).
    Removing lib.o(i._ZN7cHwUART5isrRxEv), (24 bytes).
    Removing lib.o(.ARM.exidx), (8 bytes).
    Removing lib.o(i._ZN7cHwUART5isrTxEv), (60 bytes).
    Removing lib.o(.ARM.exidx), (8 bytes).
    Removing lib.o(i._ZN12cDataPointerC1Ev), (8 bytes).
    Removing lib.o(.ARM.exidx), (8 bytes).
    Removing lib.o(i._ZN12cDataPointer7isEmptyEv), (14 bytes).
    Removing lib.o(.ARM.exidx), (8 bytes).
    Removing lib.o(i._ZN12cDataPointer5shiftEt), (26 bytes).
    Removing lib.o(.ARM.exidx), (8 bytes).
    Removing lib.o(i._ZN10cHwUSBdesc5getIdEhhhh), (28 bytes).
    Removing lib.o(.ARM.exidx), (8 bytes).
    Removing lib.o(i._ZN10cHwUSBctrl11ReqEndpointEv), (168 bytes).
    Removing lib.o(.ARM.exidx), (8 bytes).
    Removing lib.o(i._ZN10cHwUSBctrl12ReqInterfaceEv), (190 bytes).
    Removing lib.o(.ARM.exidx), (8 bytes).
    Removing lib.o(i._ZN10cHwUSBctrl9ReqDeviceEv), (132 bytes).
    Removing lib.o(.ARM.exidx), (8 bytes).
    Removing lib.o(i._ZN10cHwUSBctrl5StallEv), (6 bytes).
    Removing lib.o(.ARM.exidx), (8 bytes).
    Removing lib.o(i._ZN8cHwUSB_06BufferC1Ev), (14 bytes).
    Removing lib.o(.ARM.exidx), (8 bytes).
    Removing lib.o(i._ZN15cNetApplication6updateEv), (38 bytes).
    Removing lib.o(.ARM.exidx), (8 bytes).
    Removing lib.o(i._ZN13cNetTransport6Socket11openDefaultEv), (28 bytes).
    Removing lib.o(.ARM.exidx), (8 bytes).
    Removing lib.o(i._ZN13cNetTransport6Socket8isServerEv), (6 bytes).
    Removing lib.o(.ARM.exidx), (8 bytes).
    Removing lib.o(i._ZN13cNetTransport6Socket6updateEv), (2 bytes).
    Removing lib.o(.ARM.exidx), (8 bytes).
    Removing lib.o(i._ZN13cNetTransport6Socket4fillEPKct), (36 bytes).
    Removing lib.o(.ARM.exidx), (8 bytes).
    Removing lib.o(i._ZN7cNetUDP7getAddrEv), (6 bytes).
    Removing lib.o(.ARM.exidx), (8 bytes).
    Removing lib.o(i._ZN7cNetUDP10getAddrPhyEv), (18 bytes).
    Removing lib.o(.ARM.exidx), (8 bytes).
    Removing lib.o(i._ZN8cNetDHCP8OnUpdateEv), (2 bytes).
    Removing lib.o(.ARM.exidx), (8 bytes).
    Removing lib.o(i._ZN7cNetTCP7getAddrEv), (6 bytes).
    Removing lib.o(.ARM.exidx), (8 bytes).
    Removing lib.o(i._ZN7cNetTCP10getAddrPhyEv), (18 bytes).
    Removing lib.o(.ARM.exidx), (8 bytes).
    Removing lib.o(i._ZN4cCRC9tabMethodEh), (38 bytes).
    Removing lib.o(.ARM.exidx), (8 bytes).
    Removing lib.o(.ARM.exidx), (8 bytes).
    Removing lib.o(i._ZN12cDevAnalogIncvfEv), (6 bytes).
    Removing lib.o(.ARM.exidx), (8 bytes).
    Removing lib.o(i._ZN13cDevAnalogOutaSEf), (30 bytes).
    Removing lib.o(.ARM.exidx), (8 bytes).
    Removing lib.o(i._ZN11cDevDigital3setEv), (8 bytes).
    Removing lib.o(.ARM.exidx), (8 bytes).
    Removing lib.o(i._ZN11cDevDigital3clrEv), (8 bytes).
    Removing lib.o(.ARM.exidx), (8 bytes).
    Removing lib.o(i._ZN11cDevDigital6toggleEv), (18 bytes).
    Removing lib.o(.ARM.exidx), (8 bytes).
    Removing lib.o(.ARM.exidx), (8 bytes).
    Removing lib.o(i._ZN11cDevDigitalaSEb), (16 bytes).
    Removing lib.o(.ARM.exidx), (8 bytes).
    Removing lib.o(i._ZN11cDevDigitalaSERS_), (26 bytes).
    Removing lib.o(.ARM.exidx), (8 bytes).
    Removing lib.o(i._ZN11cDevDigitalcvbEv), (6 bytes).
    Removing lib.o(.ARM.exidx), (8 bytes).
    Removing lib.o(i._ZN20cDevDigitalIndicator3setEv), (8 bytes).
    Removing lib.o(.ARM.exidx), (8 bytes).
    Removing lib.o(i._ZN20cDevDigitalIndicator7triggerEt), (36 bytes).
    Removing lib.o(.ARM.exidx), (8 bytes).
    Removing lib.o(i._ZN10cHwDisplay16getNumberOfLinesEv), (4 bytes).
    Removing lib.o(.ARM.exidx), (8 bytes).
    Removing lib.o(i._ZN10cHwDisplay18getNumberOfColumnsEv), (4 bytes).
    Removing lib.o(.ARM.exidx), (8 bytes).
    Removing lib.o(.ARM.exidx), (8 bytes).
    Removing lib.o(i._ZN17cHwDisplayGraphic14getDefaultFontEv), (14 bytes).
    Removing lib.o(.ARM.exidx), (8 bytes).
    Removing lib.o(i._ZN17cHwDisplayGraphic8getWidthEv), (6 bytes).
    Removing lib.o(.ARM.exidx), (8 bytes).
    Removing lib.o(i._ZN17cHwDisplayGraphic9getHeightEv), (6 bytes).
    Removing lib.o(.ARM.exidx), (8 bytes).
    Removing lib.o(.ARM.exidx), (8 bytes).
    Removing lib.o(i._ZN12cTaskHandler12getCycleTimeEv), (4 bytes).
    Removing lib.o(.ARM.exidx), (8 bytes).
    Removing lib.o(i._ZN12cTaskHandler7getTicsEv), (4 bytes).
    Removing lib.o(.ARM.exidx), (8 bytes).
    Removing lib.o(i._ZN12cTaskHandler3runEv), (40 bytes).
    Removing lib.o(.ARM.exidx), (8 bytes).
    Removing lib.o(.ARM.exidx), (8 bytes).
    Removing lib.o(i._ZN12cHwSPImaster6Device4readEv), (8 bytes).
    Removing lib.o(.ARM.exidx), (8 bytes).
    Removing lib.o(i._ZN12cHwSPImaster6Device4readEPht), (62 bytes).
    Removing lib.o(.ARM.exidx), (8 bytes).
    Removing lib.o(i._ZN12cHwSPImaster6Device5writeEh), (6 bytes).
    Removing lib.o(.ARM.exidx), (8 bytes).
    Removing lib.o(i._ZN12cHwSPImaster6Device5writeEt), (54 bytes).
    Removing lib.o(.ARM.exidx), (8 bytes).
    Removing lib.o(i._ZN12cHwSPImaster6Device5writeEPht), (60 bytes).
    Removing lib.o(.ARM.exidx), (8 bytes).
    Removing lib.o(i._ZN12cHwSPImaster6Device8writeExtEhh), (50 bytes).
    Removing lib.o(.ARM.exidx), (8 bytes).
    Removing lib.o(i._ZN12cHwSPImaster6Device8writeExtEht), (62 bytes).
    Removing lib.o(.ARM.exidx), (8 bytes).
    Removing lib.o(i._ZN10cHwUSBctrl17ReqInterfaceClassEv), (142 bytes).
    Removing lib.o(.ARM.exidx), (8 bytes).
    Removing lib.o(i._ZN10cHwUSBctrl26ReqDeviceStd_GetDescriptorEv), (164 bytes).
    Removing lib.o(.ARM.exidx), (8 bytes).
    Removing lib.o(i._ZN12cDataPointeraSERKS_), (26 bytes).
    Removing lib.o(.ARM.exidx), (8 bytes).
    Removing lib.o(.constdata__ZTV12cHwUSBinterf), (40 bytes).
    Removing lib.o(.constdata__ZTIN13cNetTransport6SocketE), (12 bytes).
    Removing lib.o(.constdata__ZTVN6cNetIP13cTimeOutTimerE), (12 bytes).
    Removing lib.o(.constdata__ZTI8cHwTimer), (8 bytes).
    Removing lib.o(.constdata__ZTI11cDevDigital), (8 bytes).
    Removing lib.o(.constdata__ZTV11cDevDisplay), (20 bytes).
    Removing lib.o(.constdata__ZTI17cHwDisplayGraphic), (12 bytes).
    Removing lib.o(.constdata__ZTV9cHwMemory), (44 bytes).
    Removing lib.o(.constdata__ZTI6cHwADC), (12 bytes).
    Removing lib.o(.constdata__ZTI9cHwPort_N), (12 bytes).
    Removing lib.o(.constdata__ZTV9cHwUART_N), (52 bytes).
    Removing lib.o(.constdata__ZTI7cHwUART), (8 bytes).
    Removing lib.o(.constdata__ZTI6cHwUSB), (8 bytes).
    Removing lib.o(.constdata__ZTI8cHwUSB_0), (12 bytes).
    Removing lib.o(.constdata__ZTI11cHwEthernet), (8 bytes).
    Removing lib.o(.constdata__ZTI12cHwI2Cmaster), (8 bytes).
    Removing lib.o(.constdata__ZTI17cHwI2Cmaster_Emul), (12 bytes).
    Removing lib.o(.constdata__ZTV12cHwSPImaster), (16 bytes).
    Removing lib.o(.constdata__ZTIN12cHwSPImaster6DeviceE), (8 bytes).
    Removing lib.o(.constdata__ZTI10cHwUSBdesc), (8 bytes).
    Removing lib.o(.constdata__ZTI10cHwUSBctrl), (8 bytes).
    Removing lib.o(.constdata__ZTI7cNetTCP), (12 bytes).
    Removing lib.o(.constdata__ZTI7cNetUDP), (12 bytes).
    Removing lib.o(.constdata__ZTI13cNetTransport), (8 bytes).
    Removing lib.o(.constdata__ZTIN7cNetTCP6SocketE), (12 bytes).
    Removing lib.o(.constdata__ZTIN7cNetUDP6SocketE), (12 bytes).
    Removing lib.o(.constdata__ZTI13cDevAnalogOut), (24 bytes).
    Removing lib.o(.constdata__ZTI20cDevDigitalIndicator), (12 bytes).
    Removing lib.o(.constdata__ZTI18cDevDisplayGraphic), (12 bytes).
    Removing lib.o(.constdata__ZTI10cDevTextIO), (8 bytes).
    Removing lib.o(.constdata__ZTV15cDevTextIO_UART), (20 bytes).
    Removing lib.o(.constdata__ZTI18cDevControlEncoder), (12 bytes).
    Removing lib.o(.constdata__ZTI12cTaskHandler), (12 bytes).
    Removing lib.o(.constdata__ZTI8cHwADC_0), (12 bytes).
    Removing lib.o(.constdata__ZTI15cHwEthernet_MCU), (12 bytes).
    Removing lib.o(.constdata__ZTIN12cHwI2Cmaster6DeviceE), (8 bytes).
    Removing lib.o(.constdata__ZTI14cHwI2Cmaster_N), (12 bytes).
    Removing lib.o(.constdata__ZTI15cHwMemory_Flash), (12 bytes).
    Removing lib.o(.constdata__ZTI8cHwRTC_0), (12 bytes).
    Removing lib.o(.constdata__ZTI10cHwTimer_N), (12 bytes).
    Removing lib.o(.constdata__ZTI8cNetDHCP), (12 bytes).
    Removing lib.o(.constdata__ZTI15cDevAnalogInADC), (12 bytes).
    Removing lib.o(.constdata__ZTI16cDevAnalogOutDAC), (12 bytes).
    Removing lib.o(.constdata__ZTI16cDevAnalogOutPWM), (12 bytes).
    Removing lib.o(.constdata__ZTI20cDevAnalogOutPWMemul), (32 bytes).
    Removing lib.o(.constdata__ZTI15cDevDisplayChar), (12 bytes).
    Removing lib.o(.constdata__ZTI26cDevControlEncoderJoystick), (12 bytes).
    Removing lib.o(.constdata__ZTI28cDevControlEncoderRotaryKnob), (12 bytes).
    Removing lib.o(.constdata__ZTI18cDevControlPointer), (8 bytes).
    Removing lib.o(.constdata__ZTIN12cTaskHandler5TimerE), (12 bytes).
    Removing lib.o(.constdata__ZTI7cHwPort), (8 bytes).
    Removing lib.o(.constdata__ZTI15cNetApplication), (12 bytes).
    Removing lib.o(.constdata__ZTI9cHwMemory), (8 bytes).
    Removing lib.o(.constdata__ZTIN7cHwPort3PinE), (8 bytes).
    Removing lib.o(.constdata__ZTI12cHwSPImaster), (8 bytes).
    Removing lib.o(.constdata__ZTI12cHwUSBinterf), (8 bytes).
    Removing lib.o(.constdata__ZTI12cDevAnalogIn), (24 bytes).
    Removing lib.o(.constdata__ZTI6cHwDAC), (8 bytes).
    Removing lib.o(.constdata__ZTI10cHwDisplay), (8 bytes).
    Removing lib.o(.constdata__ZTI8cHwTouch), (8 bytes).
    Removing lib.o(.constdata__ZTI6cTimer), (8 bytes).
    Removing lib.o(.constdata__ZTI8cHwDAC_0), (12 bytes).
    Removing lib.o(.constdata__ZTI6cHwRTC), (8 bytes).
    Removing lib.o(.constdata__ZTI9cHwUART_N), (12 bytes).
    Removing lib.o(.constdata__ZTIN6cNetIP13cTimeOutTimerE), (12 bytes).
    Removing lib.o(.constdata__ZTI11cDevDisplay), (8 bytes).
    Removing lib.o(.constdata__ZTI15cDevTextIO_UART), (12 bytes).
    Removing lib.o(.constdata__ZTS8cHwTimer), (10 bytes).
    Removing lib.o(.constdata__ZTS6cHwADC), (8 bytes).
    Removing lib.o(.constdata__ZTS8cHwADC_0), (10 bytes).
    Removing lib.o(.constdata__ZTS11cHwEthernet), (14 bytes).
    Removing lib.o(.constdata__ZTS15cHwEthernet_MCU), (18 bytes).
    Removing lib.o(.constdata__ZTS12cHwI2Cmaster), (15 bytes).
    Removing lib.o(.constdata__ZTSN12cHwI2Cmaster6DeviceE), (24 bytes).
    Removing lib.o(.constdata__ZTS17cHwI2Cmaster_Emul), (20 bytes).
    Removing lib.o(.constdata__ZTS14cHwI2Cmaster_N), (17 bytes).
    Removing lib.o(.constdata__ZTS15cHwMemory_Flash), (18 bytes).
    Removing lib.o(.constdata__ZTS9cHwPort_N), (11 bytes).
    Removing lib.o(.constdata__ZTS8cHwRTC_0), (10 bytes).
    Removing lib.o(.constdata__ZTS10cHwTimer_N), (13 bytes).
    Removing lib.o(.constdata__ZTS7cHwUART), (9 bytes).
    Removing lib.o(.constdata__ZTS10cHwUSBdesc), (13 bytes).
    Removing lib.o(.constdata__ZTS10cHwUSBctrl), (13 bytes).
    Removing lib.o(.constdata__ZTS6cHwUSB), (8 bytes).
    Removing lib.o(.constdata__ZTS8cHwUSB_0), (10 bytes).
    Removing lib.o(.constdata__ZTS13cNetTransport), (16 bytes).
    Removing lib.o(.constdata__ZTSN13cNetTransport6SocketE), (25 bytes).
    Removing lib.o(.constdata__ZTS7cNetUDP), (9 bytes).
    Removing lib.o(.constdata__ZTSN7cNetUDP6SocketE), (18 bytes).
    Removing lib.o(.constdata__ZTS8cNetDHCP), (10 bytes).
    Removing lib.o(.constdata__ZTS7cNetTCP), (9 bytes).
    Removing lib.o(.constdata__ZTSN7cNetTCP6SocketE), (18 bytes).
    Removing lib.o(.constdata__ZTI10cDevAnalog), (8 bytes).
    Removing lib.o(.constdata__ZTS15cDevAnalogInADC), (18 bytes).
    Removing lib.o(.constdata__ZTS13cDevAnalogOut), (16 bytes).
    Removing lib.o(.constdata__ZTS16cDevAnalogOutDAC), (19 bytes).
    Removing lib.o(.constdata__ZTS11cDevDigital), (14 bytes).
    Removing lib.o(.constdata__ZTS16cDevAnalogOutPWM), (19 bytes).
    Removing lib.o(.constdata__ZTS20cDevAnalogOutPWMemul), (23 bytes).
    Removing lib.o(.constdata__ZTS20cDevDigitalIndicator), (23 bytes).
    Removing lib.o(.constdata__ZTS15cDevDisplayChar), (18 bytes).
    Removing lib.o(.constdata__ZTS17cHwDisplayGraphic), (20 bytes).
    Removing lib.o(.constdata__ZTS18cDevDisplayGraphic), (21 bytes).
    Removing lib.o(.constdata__ZTS10cDevTextIO), (13 bytes).
    Removing lib.o(.constdata__ZTS18cDevControlEncoder), (21 bytes).
    Removing lib.o(.constdata__ZTS26cDevControlEncoderJoystick), (29 bytes).
    Removing lib.o(.constdata__ZTS28cDevControlEncoderRotaryKnob), (31 bytes).
    Removing lib.o(.constdata__ZTS18cDevControlPointer), (21 bytes).
    Removing lib.o(.constdata__ZTS12cTaskHandler), (15 bytes).
    Removing lib.o(.constdata__ZTSN12cTaskHandler5TimerE), (23 bytes).
    Removing lib.o(.constdata__ZTSN12cHwSPImaster6DeviceE), (24 bytes).
    Removing lib.o(.constdata__ZTS6cHwDAC), (8 bytes).
    Removing lib.o(.constdata__ZTS8cHwDAC_0), (10 bytes).
    Removing lib.o(.constdata__ZTS7cHwPort), (9 bytes).
    Removing lib.o(.constdata__ZTSN7cHwPort3PinE), (15 bytes).
    Removing lib.o(.constdata__ZTS9cHwMemory), (11 bytes).
    Removing lib.o(.constdata__ZTS6cHwRTC), (8 bytes).
    Removing lib.o(.constdata__ZTS9cHwUART_N), (11 bytes).
    Removing lib.o(.constdata__ZTS12cHwUSBinterf), (15 bytes).
    Removing lib.o(.constdata__ZTS15cNetApplication), (18 bytes).
    Removing lib.o(.constdata__ZTSN6cNetIP13cTimeOutTimerE), (25 bytes).
    Removing lib.o(.constdata__ZTS6cTimer), (8 bytes).
    Removing lib.o(.constdata__ZTS10cDevAnalog), (13 bytes).
    Removing lib.o(.constdata__ZTS12cDevAnalogIn), (15 bytes).
    Removing lib.o(.constdata__ZTS11cDevDisplay), (14 bytes).
    Removing lib.o(.constdata__ZTS10cHwDisplay), (13 bytes).
    Removing lib.o(.constdata__ZTS15cDevTextIO_UART), (18 bytes).
    Removing lib.o(.constdata__ZTS8cHwTouch), (10 bytes).
    Removing lib.o(.constdata__ZTS12cHwSPImaster), (15 bytes).
    Removing lib.o(.ARM.exidx), (8 bytes).
    Removing lib.o(i._ZN6cHwDAC19getNumberOfChannelsEv), (4 bytes).
    Removing lib.o(.ARM.exidx), (8 bytes).
    Removing lib.o(.ARM.exidx), (8 bytes).
    Removing lib.o(.ARM.exidx), (8 bytes).
    Removing lib.o(i._ZN9cHwMemory5clearEj), (30 bytes).
    Removing lib.o(.ARM.exidx), (8 bytes).
    Removing lib.o(i._ZN9cHwUART_N7getByteEv), (8 bytes).
    Removing lib.o(.ARM.exidx), (8 bytes).
    Removing lib.o(i._ZN9cHwUART_N7setByteEh), (6 bytes).
    Removing lib.o(.ARM.exidx), (8 bytes).
    Removing lib.o(i._ZN12cHwUSBinterf13GetDescriptorEt), (4 bytes).
    Removing lib.o(.ARM.exidx), (8 bytes).
    Removing lib.o(i._ZN12cHwUSBinterf10clrFeatureEv), (2 bytes).
    Removing lib.o(.ARM.exidx), (8 bytes).
    Removing lib.o(i._ZN12cHwUSBinterf10setFeatureEv), (2 bytes).
    Removing lib.o(.ARM.exidx), (8 bytes).
    Removing lib.o(i._ZN6cNetIP13cTimeOutTimer6updateEv), (18 bytes).
    Removing lib.o(.ARM.exidx), (8 bytes).
    Removing lib.o(i._ZN15cDevTextIO_UART3setEPhh), (8 bytes).
    Removing lib.o(.ARM.exidx), (8 bytes).
    Removing lib.o(i._ZN15cDevTextIO_UART3getEPh), (8 bytes).
    Removing lib.o(.ARM.exidx), (8 bytes).
    Removing lib.o(.ARM.exidx), (8 bytes).
    Removing lib.o(.ARM.exidx), (8 bytes).
    Removing lib.o(.ARM.exidx), (8 bytes).
    Removing rtos.o(.ARM.exidx), (8 bytes).
    Removing rtos.o(.ARM.exidx), (8 bytes).
    Removing rtos.o(.ARM.exidx), (8 bytes).
    Removing rtos.o(.ARM.exidx), (8 bytes).
    Removing rtos.o(.constdata__ZTIN5cRTOS4TaskE), (8 bytes).
    Removing rtos.o(.constdata__ZTIN5cRTOS5TimerE), (12 bytes).
    Removing rtos.o(.constdata__ZTSN5cRTOS4TaskE), (14 bytes).
    Removing rtos.o(.constdata__ZTSN5cRTOS5TimerE), (15 bytes).
    Removing disp_otm8009a.o(.constdata__ZTV19cHwDisp_OTM8009Acmd), (92 bytes).
    Removing disp_otm8009a.o(.ARM.exidx), (8 bytes).
    Removing disp_otm8009a.o(.ARM.exidx), (8 bytes).
    Removing disp_otm8009a.o(.ARM.exidx), (8 bytes).
    Removing disp_otm8009a.o(.constdata__ZTI19cHwDisp_OTM8009Acmd), (12 bytes).
    Removing disp_otm8009a.o(.constdata__ZTI19cHwDisp_OTM8009Aram), (12 bytes).
    Removing disp_otm8009a.o(.constdata__ZTI16cHwDisp_OTM8009A), (12 bytes).
    Removing disp_otm8009a.o(.constdata__ZTS19cHwDisp_OTM8009Acmd), (22 bytes).
    Removing disp_otm8009a.o(.constdata__ZTS19cHwDisp_OTM8009Aram), (22 bytes).
    Removing disp_otm8009a.o(.constdata__ZTS16cHwDisp_OTM8009A), (19 bytes).
    Removing touch_ft6206.o(.constdata__ZTI15cHwTouch_FT6206), (12 bytes).
    Removing touch_ft6206.o(.constdata__ZTS15cHwTouch_FT6206), (18 bytes).

1099 unused section(s) (total 26661 bytes) removed from the image.

==============================================================================

Image Symbol Table

    Local Symbols

    Symbol Name                              Value     Ov Type        Size  Object(Section)

    ../../../clib/unwind_pr.c                0x00000000   Number         0  unwind_pr0.o ABSOLUTE
    ../../../clib/unwind_pr.c                0x00000000   Number         0  unwind_prcommon.o ABSOLUTE
    ../../../clib/unwinder.c                 0x00000000   Number         0  unwind_activity.o ABSOLUTE
    ../../../clib/unwinder.c                 0x00000000   Number         0  unwinder.o ABSOLUTE
    ../../../clib/unwinder.c                 0x00000000   Number         0  unwinder.o ABSOLUTE
    ../../../clib/unwinder.c                 0x00000000   Number         0  unwind_activity.o ABSOLUTE
    ../../../edgfe/lib_src/arm_exceptions.c  0x00000000   Number         0  arm_exceptions_terminate.o ABSOLUTE
    ../../../edgfe/lib_src/arm_exceptions.c  0x00000000   Number         0  arm_exceptions_globs.o ABSOLUTE
    ../../../edgfe/lib_src/arm_exceptions.c  0x00000000   Number         0  arm_exceptions_support.o ABSOLUTE
    ../../../edgfe/lib_src/arm_exceptions.c  0x00000000   Number         0  arm_exceptions_callterm.o ABSOLUTE
    ../../../edgfe/lib_src/arm_exceptions.c  0x00000000   Number         0  arm_exceptions_mem.o ABSOLUTE
    ../../../edgfe/lib_src/arm_noexceptions.c 0x00000000   Number         0  arm_begincatch_noexceptions.o ABSOLUTE
    ../../../edgfe/lib_src/guard.c           0x00000000   Number         0  cxa_guard_release.o ABSOLUTE
    ../../../edgfe/lib_src/guard.c           0x00000000   Number         0  cxa_guard_acquire.o ABSOLUTE
    ../../../edgfe/lib_src/typeinfo.c        0x00000000   Number         0  lib_rtti_impl.o ABSOLUTE
    ../../../edgfe/lib_src/typeinfo.c        0x00000000   Number         0  type_info_dtor.o ABSOLUTE
    ../../array_helpers.cpp                  0x00000000   Number         0  aeabi_vec_ctor_nocookie_nodtor.o ABSOLUTE
    ../clib/angel/boardlib.s                 0x00000000   Number         0  boardshut.o ABSOLUTE
    ../clib/angel/boardlib.s                 0x00000000   Number         0  boardinit3.o ABSOLUTE
    ../clib/angel/boardlib.s                 0x00000000   Number         0  boardinit2.o ABSOLUTE
    ../clib/angel/boardlib.s                 0x00000000   Number         0  boardinit1.o ABSOLUTE
    ../clib/angel/dczerorl.s                 0x00000000   Number         0  __dczerorl.o ABSOLUTE
    ../clib/angel/handlers.s                 0x00000000   Number         0  __scatter_zi.o ABSOLUTE
    ../clib/angel/kernel.s                   0x00000000   Number         0  rtexit2.o ABSOLUTE
    ../clib/angel/kernel.s                   0x00000000   Number         0  __rtentry2.o ABSOLUTE
    ../clib/angel/kernel.s                   0x00000000   Number         0  __rtentry4.o ABSOLUTE
    ../clib/angel/kernel.s                   0x00000000   Number         0  __rtentry.o ABSOLUTE
    ../clib/angel/kernel.s                   0x00000000   Number         0  rtexit.o ABSOLUTE
    ../clib/angel/rt.s                       0x00000000   Number         0  rt_heap_descriptor.o ABSOLUTE
    ../clib/angel/rt.s                       0x00000000   Number         0  aeabi_ldiv0_sigfpe.o ABSOLUTE
    ../clib/angel/rt.s                       0x00000000   Number         0  rt_heap_descriptor_intlibspace.o ABSOLUTE
    ../clib/angel/rt.s                       0x00000000   Number         0  rt_raise.o ABSOLUTE
    ../clib/angel/rt.s                       0x00000000   Number         0  rt_errno_addr_intlibspace.o ABSOLUTE
    ../clib/angel/rt.s                       0x00000000   Number         0  rt_div0.o ABSOLUTE
    ../clib/angel/rt.s                       0x00000000   Number         0  rt_ctype_table.o ABSOLUTE
    ../clib/angel/rt.s                       0x00000000   Number         0  rt_eh_globals_addr_intlibspace.o ABSOLUTE
    ../clib/angel/rt.s                       0x00000000   Number         0  rt_locale.o ABSOLUTE
    ../clib/angel/rt.s                       0x00000000   Number         0  rt_eh_globals_addr.o ABSOLUTE
    ../clib/angel/rt.s                       0x00000000   Number         0  rt_locale_intlibspace.o ABSOLUTE
    ../clib/angel/rt.s                       0x00000000   Number         0  aeabi_ldiv0.o ABSOLUTE
    ../clib/angel/rt.s                       0x00000000   Number         0  rt_ddtor_pointer_addr_intlibspace.o ABSOLUTE
    ../clib/angel/rt.s                       0x00000000   Number         0  rt_ddtor_pointer_addr.o ABSOLUTE
    ../clib/angel/rt.s                       0x00000000   Number         0  rt_errno_addr.o ABSOLUTE
    ../clib/angel/scatter.s                  0x00000000   Number         0  __scatter.o ABSOLUTE
    ../clib/angel/startup.s                  0x00000000   Number         0  __main.o ABSOLUTE
    ../clib/angel/sys.s                      0x00000000   Number         0  indicate_semi.o ABSOLUTE
    ../clib/angel/sys.s                      0x00000000   Number         0  use_no_semi.o ABSOLUTE
    ../clib/angel/sys.s                      0x00000000   Number         0  mutex_dummy.o ABSOLUTE
    ../clib/angel/sys.s                      0x00000000   Number         0  sys_stackheap_outer.o ABSOLUTE
    ../clib/angel/sys.s                      0x00000000   Number         0  libspace.o ABSOLUTE
    ../clib/angel/sysapp.c                   0x00000000   Number         0  sys_wrch.o ABSOLUTE
    ../clib/angel/sysapp.c                   0x00000000   Number         0  sys_command.o ABSOLUTE
    ../clib/angel/sysapp.c                   0x00000000   Number         0  sys_exit.o ABSOLUTE
    ../clib/arm_runtime.c                    0x00000000   Number         0  init_aeabi.o ABSOLUTE
    ../clib/arm_runtime.c                    0x00000000   Number         0  init_aeabi.o ABSOLUTE
    ../clib/armsys.c                         0x00000000   Number         0  _get_argv_nomalloc.o ABSOLUTE
    ../clib/armsys.c                         0x00000000   Number         0  no_argv.o ABSOLUTE
    ../clib/armsys.c                         0x00000000   Number         0  _get_argv.o ABSOLUTE
    ../clib/armsys.c                         0x00000000   Number         0  argv_veneer.o ABSOLUTE
    ../clib/armsys.c                         0x00000000   Number         0  argv_veneer.o ABSOLUTE
    ../clib/bigflt.c                         0x00000000   Number         0  bigflt0.o ABSOLUTE
    ../clib/btod.s                           0x00000000   Number         0  btod.o ABSOLUTE
    ../clib/fenv.c                           0x00000000   Number         0  _rserrno.o ABSOLUTE
    ../clib/heap1.c                          0x00000000   Number         0  h1_free_mt.o ABSOLUTE
    ../clib/heap1.c                          0x00000000   Number         0  h1_free.o ABSOLUTE
    ../clib/heap1.c                          0x00000000   Number         0  h1_final.o ABSOLUTE
    ../clib/heap1.c                          0x00000000   Number         0  h1_alloc.o ABSOLUTE
    ../clib/heap1.c                          0x00000000   Number         0  h1_alloc_mt.o ABSOLUTE
    ../clib/heap1.c                          0x00000000   Number         0  h1_init.o ABSOLUTE
    ../clib/heap1.c                          0x00000000   Number         0  h1_init_mt.o ABSOLUTE
    ../clib/heap1.c                          0x00000000   Number         0  h1_extend_mt.o ABSOLUTE
    ../clib/heap1.c                          0x00000000   Number         0  h1_extend.o ABSOLUTE
    ../clib/heap1.c                          0x00000000   Number         0  h1_final_mt.o ABSOLUTE
    ../clib/heap2.c                          0x00000000   Number         0  heap2mt.o ABSOLUTE
    ../clib/heap2.c                          0x00000000   Number         0  heap2.o ABSOLUTE
    ../clib/heap2.c                          0x00000000   Number         0  fdtree.o ABSOLUTE
    ../clib/heapalloc.c                      0x00000000   Number         0  hrguard.o ABSOLUTE
    ../clib/heapalloc.c                      0x00000000   Number         0  free.o ABSOLUTE
    ../clib/heapalloc.c                      0x00000000   Number         0  malloc.o ABSOLUTE
    ../clib/heapalloc.c                      0x00000000   Number         0  hguard.o ABSOLUTE
    ../clib/heapalloc.c                      0x00000000   Number         0  init_alloc.o ABSOLUTE
    ../clib/heapalloc.c                      0x00000000   Number         0  heapstubs.o ABSOLUTE
    ../clib/heapalloc.c                      0x00000000   Number         0  maybetermalloc1.o ABSOLUTE
    ../clib/heapalloc.c                      0x00000000   Number         0  term_alloc.o ABSOLUTE
    ../clib/heapalloc.c                      0x00000000   Number         0  maybetermalloc1.o ABSOLUTE
    ../clib/heapalloc.c                      0x00000000   Number         0  maybetermalloc2.o ABSOLUTE
    ../clib/heapalloc.c                      0x00000000   Number         0  maybetermalloc2.o ABSOLUTE
    ../clib/heapaux.c                        0x00000000   Number         0  heapauxi.o ABSOLUTE
    ../clib/heapaux.c                        0x00000000   Number         0  heapauxa.o ABSOLUTE
    ../clib/libinit.s                        0x00000000   Number         0  libinit.o ABSOLUTE
    ../clib/libinit.s                        0x00000000   Number         0  libshutdown.o ABSOLUTE
    ../clib/libinit.s                        0x00000000   Number         0  libshutdown2.o ABSOLUTE
    ../clib/libinit.s                        0x00000000   Number         0  libinit2.o ABSOLUTE
    ../clib/locale.c                         0x00000000   Number         0  _wcrtomb.o ABSOLUTE
    ../clib/locale.s                         0x00000000   Number         0  lc_ctype_c.o ABSOLUTE
    ../clib/locale.s                         0x00000000   Number         0  lc_numeric_c.o ABSOLUTE
    ../clib/longlong.s                       0x00000000   Number         0  lludiv10.o ABSOLUTE
    ../clib/longlong.s                       0x00000000   Number         0  lludivv7m.o ABSOLUTE
    ../clib/memcpset.s                       0x00000000   Number         0  rt_memcpy_v6.o ABSOLUTE
    ../clib/memcpset.s                       0x00000000   Number         0  strcmpv7m_pel.o ABSOLUTE
    ../clib/memcpset.s                       0x00000000   Number         0  rt_memclr_w.o ABSOLUTE
    ../clib/memcpset.s                       0x00000000   Number         0  rt_memclr.o ABSOLUTE
    ../clib/memcpset.s                       0x00000000   Number         0  rt_memcpy_w.o ABSOLUTE
    ../clib/misc.s                           0x00000000   Number         0  printf_stubs.o ABSOLUTE
    ../clib/printf.c                         0x00000000   Number         0  c89vsprintf.o ABSOLUTE
    ../clib/printf.c                         0x00000000   Number         0  _printf_oct_int_ll.o ABSOLUTE
    ../clib/printf.c                         0x00000000   Number         0  __printf_ss.o ABSOLUTE
    ../clib/printf.c                         0x00000000   Number         0  _printf_hex_ll.o ABSOLUTE
    ../clib/printf.c                         0x00000000   Number         0  __printf_flags.o ABSOLUTE
    ../clib/printf.c                         0x00000000   Number         0  _printf_hex_int.o ABSOLUTE
    ../clib/printf.c                         0x00000000   Number         0  _printf_hex_int_ll_ptr.o ABSOLUTE
    ../clib/printf.c                         0x00000000   Number         0  _printf_fp_infnan.o ABSOLUTE
    ../clib/printf.c                         0x00000000   Number         0  _printf_hex_ll_ptr.o ABSOLUTE
    ../clib/printf.c                         0x00000000   Number         0  _printf_hex_int_ptr.o ABSOLUTE
    ../clib/printf.c                         0x00000000   Number         0  _printf_hex_ptr.o ABSOLUTE
    ../clib/printf.c                         0x00000000   Number         0  c89vsnprintf.o ABSOLUTE
    ../clib/printf.c                         0x00000000   Number         0  __printf.o ABSOLUTE
    ../clib/printf.c                         0x00000000   Number         0  _printf_hex_int_ll.o ABSOLUTE
    ../clib/printf.c                         0x00000000   Number         0  _printf_oct_int.o ABSOLUTE
    ../clib/printf.c                         0x00000000   Number         0  _printf_pad.o ABSOLUTE
    ../clib/printf.c                         0x00000000   Number         0  _printf_truncate.o ABSOLUTE
    ../clib/printf.c                         0x00000000   Number         0  _printf_dec.o ABSOLUTE
    ../clib/printf.c                         0x00000000   Number         0  _printf_charcount.o ABSOLUTE
    ../clib/printf.c                         0x00000000   Number         0  _sputc.o ABSOLUTE
    ../clib/printf.c                         0x00000000   Number         0  _snputc.o ABSOLUTE
    ../clib/printf.c                         0x00000000   Number         0  _printf_wctomb.o ABSOLUTE
    ../clib/printf.c                         0x00000000   Number         0  _printf_str.o ABSOLUTE
    ../clib/printf.c                         0x00000000   Number         0  _printf_longlong_dec.o ABSOLUTE
    ../clib/printf.c                         0x00000000   Number         0  _printf_intcommon.o ABSOLUTE
    ../clib/printf.c                         0x00000000   Number         0  __printf_flags_ss_wp.o ABSOLUTE
    ../clib/printf.c                         0x00000000   Number         0  __printf_ss_wp.o ABSOLUTE
    ../clib/printf.c                         0x00000000   Number         0  __printf_flags_wp.o ABSOLUTE
    ../clib/printf.c                         0x00000000   Number         0  _printf_oct_ll.o ABSOLUTE
    ../clib/printf.c                         0x00000000   Number         0  __printf_wp.o ABSOLUTE
    ../clib/printf.c                         0x00000000   Number         0  __printf_flags_ss.o ABSOLUTE
    ../clib/printf.c                         0x00000000   Number         0  _printf_fp_dec.o ABSOLUTE
    ../clib/printf.c                         0x00000000   Number         0  __printf_nopercent.o ABSOLUTE
    ../clib/printf.c                         0x00000000   Number         0  _printf_char.o ABSOLUTE
    ../clib/printf.c                         0x00000000   Number         0  _printf_wchar.o ABSOLUTE
    ../clib/printf.c                         0x00000000   Number         0  _printf_char_common.o ABSOLUTE
    ../clib/printf_percent.s                 0x00000000   Number         0  _printf_percent.o ABSOLUTE
    ../clib/printf_percent.s                 0x00000000   Number         0  _printf_a.o ABSOLUTE
    ../clib/printf_percent.s                 0x00000000   Number         0  _printf_g.o ABSOLUTE
    ../clib/printf_percent.s                 0x00000000   Number         0  _printf_e.o ABSOLUTE
    ../clib/printf_percent.s                 0x00000000   Number         0  _printf_llx.o ABSOLUTE
    ../clib/printf_percent.s                 0x00000000   Number         0  _printf_s.o ABSOLUTE
    ../clib/printf_percent.s                 0x00000000   Number         0  _printf_n.o ABSOLUTE
    ../clib/printf_percent.s                 0x00000000   Number         0  _printf_percent_end.o ABSOLUTE
    ../clib/printf_percent.s                 0x00000000   Number         0  _printf_f.o ABSOLUTE
    ../clib/printf_percent.s                 0x00000000   Number         0  _printf_c.o ABSOLUTE
    ../clib/printf_percent.s                 0x00000000   Number         0  _printf_o.o ABSOLUTE
    ../clib/printf_percent.s                 0x00000000   Number         0  _printf_i.o ABSOLUTE
    ../clib/printf_percent.s                 0x00000000   Number         0  _printf_x.o ABSOLUTE
    ../clib/printf_percent.s                 0x00000000   Number         0  _printf_llo.o ABSOLUTE
    ../clib/printf_percent.s                 0x00000000   Number         0  _printf_p.o ABSOLUTE
    ../clib/printf_percent.s                 0x00000000   Number         0  _printf_ls.o ABSOLUTE
    ../clib/printf_percent.s                 0x00000000   Number         0  _printf_lc.o ABSOLUTE
    ../clib/printf_percent.s                 0x00000000   Number         0  _printf_l.o ABSOLUTE
    ../clib/printf_percent.s                 0x00000000   Number         0  _printf_d.o ABSOLUTE
    ../clib/printf_percent.s                 0x00000000   Number         0  _printf_ll.o ABSOLUTE
    ../clib/printf_percent.s                 0x00000000   Number         0  _printf_llu.o ABSOLUTE
    ../clib/printf_percent.s                 0x00000000   Number         0  _printf_lld.o ABSOLUTE
    ../clib/printf_percent.s                 0x00000000   Number         0  _printf_u.o ABSOLUTE
    ../clib/printf_percent.s                 0x00000000   Number         0  _printf_lli.o ABSOLUTE
    ../clib/signal.c                         0x00000000   Number         0  defsig_general.o ABSOLUTE
    ../clib/signal.c                         0x00000000   Number         0  defsig_abrt_inner.o ABSOLUTE
    ../clib/signal.c                         0x00000000   Number         0  defsig_abrt_outer.o ABSOLUTE
    ../clib/signal.c                         0x00000000   Number         0  defsig_rtmem_outer.o ABSOLUTE
    ../clib/signal.c                         0x00000000   Number         0  __raise.o ABSOLUTE
    ../clib/signal.c                         0x00000000   Number         0  defsig_fpe_formal.o ABSOLUTE
    ../clib/signal.c                         0x00000000   Number         0  defsig_rtmem_inner.o ABSOLUTE
    ../clib/signal.c                         0x00000000   Number         0  defsig_fpe_outer.o ABSOLUTE
    ../clib/signal.c                         0x00000000   Number         0  defsig_fpe_inner.o ABSOLUTE
    ../clib/signal.c                         0x00000000   Number         0  defsig_rtmem_formal.o ABSOLUTE
    ../clib/signal.c                         0x00000000   Number         0  defsig_rtred_inner.o ABSOLUTE
    ../clib/signal.c                         0x00000000   Number         0  defsig_stak_inner.o ABSOLUTE
    ../clib/signal.c                         0x00000000   Number         0  defsig_pvfn_inner.o ABSOLUTE
    ../clib/signal.c                         0x00000000   Number         0  defsig_abrt_formal.o ABSOLUTE
    ../clib/signal.c                         0x00000000   Number         0  defsig_cppl_inner.o ABSOLUTE
    ../clib/signal.c                         0x00000000   Number         0  defsig_segv_inner.o ABSOLUTE
    ../clib/signal.c                         0x00000000   Number         0  defsig_other.o ABSOLUTE
    ../clib/signal.c                         0x00000000   Number         0  defsig_exit.o ABSOLUTE
    ../clib/signal.s                         0x00000000   Number         0  defsig.o ABSOLUTE
    ../clib/stdlib.c                         0x00000000   Number         0  atexit_aeabi.o ABSOLUTE
    ../clib/stdlib.c                         0x00000000   Number         0  aeabi_atexit.o ABSOLUTE
    ../clib/stdlib.c                         0x00000000   Number         0  cxa_finalize.o ABSOLUTE
    ../clib/stdlib.c                         0x00000000   Number         0  bsearchnoex.o ABSOLUTE
    ../clib/stdlib.c                         0x00000000   Number         0  exit.o ABSOLUTE
    ../clib/stdlib.c                         0x00000000   Number         0  abort.o ABSOLUTE
    ../clib/string.c                         0x00000000   Number         0  memcmp.o ABSOLUTE
    ../clib/string.c                         0x00000000   Number         0  strlen.o ABSOLUTE
    ../clib/string.c                         0x00000000   Number         0  strchr.o ABSOLUTE
    ../fplib/d2f.s                           0x00000000   Number         0  d2f.o ABSOLUTE
    ../fplib/daddsub.s                       0x00000000   Number         0  daddsub_clz.o ABSOLUTE
    ../fplib/ddiv.s                          0x00000000   Number         0  ddiv.o ABSOLUTE
    ../fplib/dfix.s                          0x00000000   Number         0  dfix.o ABSOLUTE
    ../fplib/dfixu.s                         0x00000000   Number         0  dfixu.o ABSOLUTE
    ../fplib/dflt.s                          0x00000000   Number         0  dflt_clz.o ABSOLUTE
    ../fplib/dmul.s                          0x00000000   Number         0  dmul.o ABSOLUTE
    ../fplib/dnaninf.s                       0x00000000   Number         0  dnaninf.o ABSOLUTE
    ../fplib/dretinf.s                       0x00000000   Number         0  dretinf.o ABSOLUTE
    ../fplib/f2d.s                           0x00000000   Number         0  f2d.o ABSOLUTE
    ../fplib/fnaninf.s                       0x00000000   Number         0  fnaninf.o ABSOLUTE
    ../fplib/fpinit.s                        0x00000000   Number         0  fpinit.o ABSOLUTE
    ../fplib/fretinf.s                       0x00000000   Number         0  fretinf.o ABSOLUTE
    ../fplib/istatus.s                       0x00000000   Number         0  istatus.o ABSOLUTE
    ../fplib/printf1.s                       0x00000000   Number         0  printf1.o ABSOLUTE
    ../fplib/usenofp.s                       0x00000000   Number         0  usenofp.o ABSOLUTE
    ../mathlib/fpclassify.c                  0x00000000   Number         0  fpclassify.o ABSOLUTE
    ../mathlib/sqrtf.c                       0x00000000   Number         0  sqrtf.o ABSOLUTE
    ../mathlib/sqrtf.c                       0x00000000   Number         0  sqrtf_x.o ABSOLUTE
    ..\EmbSysLib\Src\MCU\STM32F7xx\Sys\Keil\RTOScontext.s 0x00000000   Number         0  rtoscontext.o ABSOLUTE
    ..\EmbSysLib\Src\MCU\STM32F7xx\Sys\Keil\startup_stm32f769xx.s 0x00000000   Number         0  startup_stm32f769xx.o ABSOLUTE
    ..\EmbSysLib\Src\Module\RTOS.cpp         0x00000000   Number         0  rtos.o ABSOLUTE
    ..\EmbSysLib\Src\Peripheral\Disp_OTM8009A.cpp 0x00000000   Number         0  disp_otm8009a.o ABSOLUTE
    ..\EmbSysLib\Src\Peripheral\Touch_FT6206.cpp 0x00000000   Number         0  touch_ft6206.o ABSOLUTE
    ..\EmbSysLib\Src\lib.cpp                 0x00000000   Number         0  lib.o ABSOLUTE
    ..\\EmbSysLib\\Src\\Module\\RTOS.cpp     0x00000000   Number         0  rtos.o ABSOLUTE
    ..\\EmbSysLib\\Src\\Peripheral\\Disp_OTM8009A.cpp 0x00000000   Number         0  disp_otm8009a.o ABSOLUTE
    ..\\EmbSysLib\\Src\\Peripheral\\Touch_FT6206.cpp 0x00000000   Number         0  touch_ft6206.o ABSOLUTE
    ..\\EmbSysLib\\Src\\lib.cpp              0x00000000   Number         0  lib.o ABSOLUTE
    Src\\main.cpp                            0x00000000   Number         0  main.o ABSOLUTE
    Src\main.cpp                             0x00000000   Number         0  main.o ABSOLUTE
    dc.s                                     0x00000000   Number         0  dc.o ABSOLUTE
    RESET                                    0x08000000   Section      504  startup_stm32f769xx.o(RESET)
    !!!main                                  0x080001f8   Section        8  __main.o(!!!main)
    !!!scatter                               0x08000200   Section       52  __scatter.o(!!!scatter)
    !!dczerorl                               0x08000234   Section       58  __dczerorl.o(!!dczerorl)
    !!handler_zi                             0x08000270   Section       28  __scatter_zi.o(!!handler_zi)
    .ARM.Collect$$_printf_percent$$00000000  0x0800028c   Section        0  _printf_percent.o(.ARM.Collect$$_printf_percent$$00000000)
    .ARM.Collect$$_printf_percent$$00000001  0x0800028c   Section        6  _printf_n.o(.ARM.Collect$$_printf_percent$$00000001)
    .ARM.Collect$$_printf_percent$$00000002  0x08000292   Section        6  _printf_p.o(.ARM.Collect$$_printf_percent$$00000002)
    .ARM.Collect$$_printf_percent$$00000003  0x08000298   Section        6  _printf_f.o(.ARM.Collect$$_printf_percent$$00000003)
    .ARM.Collect$$_printf_percent$$00000004  0x0800029e   Section        6  _printf_e.o(.ARM.Collect$$_printf_percent$$00000004)
    .ARM.Collect$$_printf_percent$$00000005  0x080002a4   Section        6  _printf_g.o(.ARM.Collect$$_printf_percent$$00000005)
    .ARM.Collect$$_printf_percent$$00000006  0x080002aa   Section        6  _printf_a.o(.ARM.Collect$$_printf_percent$$00000006)
    .ARM.Collect$$_printf_percent$$00000007  0x080002b0   Section       10  _printf_ll.o(.ARM.Collect$$_printf_percent$$00000007)
    .ARM.Collect$$_printf_percent$$00000008  0x080002ba   Section        6  _printf_i.o(.ARM.Collect$$_printf_percent$$00000008)
    .ARM.Collect$$_printf_percent$$00000009  0x080002c0   Section        6  _printf_d.o(.ARM.Collect$$_printf_percent$$00000009)
    .ARM.Collect$$_printf_percent$$0000000A  0x080002c6   Section        6  _printf_u.o(.ARM.Collect$$_printf_percent$$0000000A)
    .ARM.Collect$$_printf_percent$$0000000B  0x080002cc   Section        6  _printf_o.o(.ARM.Collect$$_printf_percent$$0000000B)
    .ARM.Collect$$_printf_percent$$0000000C  0x080002d2   Section        6  _printf_x.o(.ARM.Collect$$_printf_percent$$0000000C)
    .ARM.Collect$$_printf_percent$$0000000D  0x080002d8   Section        6  _printf_lli.o(.ARM.Collect$$_printf_percent$$0000000D)
    .ARM.Collect$$_printf_percent$$0000000E  0x080002de   Section        6  _printf_lld.o(.ARM.Collect$$_printf_percent$$0000000E)
    .ARM.Collect$$_printf_percent$$0000000F  0x080002e4   Section        6  _printf_llu.o(.ARM.Collect$$_printf_percent$$0000000F)
    .ARM.Collect$$_printf_percent$$00000010  0x080002ea   Section        6  _printf_llo.o(.ARM.Collect$$_printf_percent$$00000010)
    .ARM.Collect$$_printf_percent$$00000011  0x080002f0   Section        6  _printf_llx.o(.ARM.Collect$$_printf_percent$$00000011)
    .ARM.Collect$$_printf_percent$$00000012  0x080002f6   Section       10  _printf_l.o(.ARM.Collect$$_printf_percent$$00000012)
    .ARM.Collect$$_printf_percent$$00000013  0x08000300   Section        6  _printf_c.o(.ARM.Collect$$_printf_percent$$00000013)
    .ARM.Collect$$_printf_percent$$00000014  0x08000306   Section        6  _printf_s.o(.ARM.Collect$$_printf_percent$$00000014)
    .ARM.Collect$$_printf_percent$$00000015  0x0800030c   Section        6  _printf_lc.o(.ARM.Collect$$_printf_percent$$00000015)
    .ARM.Collect$$_printf_percent$$00000016  0x08000312   Section        6  _printf_ls.o(.ARM.Collect$$_printf_percent$$00000016)
    .ARM.Collect$$_printf_percent$$00000017  0x08000318   Section        4  _printf_percent_end.o(.ARM.Collect$$_printf_percent$$00000017)
    .ARM.Collect$$libinit$$00000000          0x0800031c   Section        2  libinit.o(.ARM.Collect$$libinit$$00000000)
    .ARM.Collect$$libinit$$00000001          0x0800031e   Section        4  libinit2.o(.ARM.Collect$$libinit$$00000001)
    .ARM.Collect$$libinit$$00000004          0x08000322   Section        0  libinit2.o(.ARM.Collect$$libinit$$00000004)
    .ARM.Collect$$libinit$$00000005          0x08000322   Section        8  libinit2.o(.ARM.Collect$$libinit$$00000005)
    .ARM.Collect$$libinit$$0000000A          0x0800032a   Section        0  libinit2.o(.ARM.Collect$$libinit$$0000000A)
    .ARM.Collect$$libinit$$0000000C          0x0800032a   Section        0  libinit2.o(.ARM.Collect$$libinit$$0000000C)
    .ARM.Collect$$libinit$$0000000E          0x0800032a   Section        0  libinit2.o(.ARM.Collect$$libinit$$0000000E)
    .ARM.Collect$$libinit$$0000000F          0x0800032a   Section        6  libinit2.o(.ARM.Collect$$libinit$$0000000F)
    .ARM.Collect$$libinit$$00000011          0x08000330   Section        0  libinit2.o(.ARM.Collect$$libinit$$00000011)
    .ARM.Collect$$libinit$$00000012          0x08000330   Section       12  libinit2.o(.ARM.Collect$$libinit$$00000012)
    .ARM.Collect$$libinit$$00000013          0x0800033c   Section        0  libinit2.o(.ARM.Collect$$libinit$$00000013)
    .ARM.Collect$$libinit$$00000015          0x0800033c   Section        0  libinit2.o(.ARM.Collect$$libinit$$00000015)
    .ARM.Collect$$libinit$$00000016          0x0800033c   Section       10  libinit2.o(.ARM.Collect$$libinit$$00000016)
    .ARM.Collect$$libinit$$00000017          0x08000346   Section        0  libinit2.o(.ARM.Collect$$libinit$$00000017)
    .ARM.Collect$$libinit$$00000019          0x08000346   Section        0  libinit2.o(.ARM.Collect$$libinit$$00000019)
    .ARM.Collect$$libinit$$0000001B          0x08000346   Section        0  libinit2.o(.ARM.Collect$$libinit$$0000001B)
    .ARM.Collect$$libinit$$0000001D          0x08000346   Section        0  libinit2.o(.ARM.Collect$$libinit$$0000001D)
    .ARM.Collect$$libinit$$0000001F          0x08000346   Section        0  libinit2.o(.ARM.Collect$$libinit$$0000001F)
    .ARM.Collect$$libinit$$00000021          0x08000346   Section        0  libinit2.o(.ARM.Collect$$libinit$$00000021)
    .ARM.Collect$$libinit$$00000023          0x08000346   Section        0  libinit2.o(.ARM.Collect$$libinit$$00000023)
    .ARM.Collect$$libinit$$00000025          0x08000346   Section        0  libinit2.o(.ARM.Collect$$libinit$$00000025)
    .ARM.Collect$$libinit$$0000002C          0x08000346   Section        0  libinit2.o(.ARM.Collect$$libinit$$0000002C)
    .ARM.Collect$$libinit$$0000002E          0x08000346   Section        0  libinit2.o(.ARM.Collect$$libinit$$0000002E)
    .ARM.Collect$$libinit$$00000030          0x08000346   Section        0  libinit2.o(.ARM.Collect$$libinit$$00000030)
    .ARM.Collect$$libinit$$00000031          0x08000346   Section        4  libinit2.o(.ARM.Collect$$libinit$$00000031)
    .ARM.Collect$$libinit$$00000032          0x0800034a   Section        0  libinit2.o(.ARM.Collect$$libinit$$00000032)
    .ARM.Collect$$libinit$$00000033          0x0800034a   Section        2  libinit2.o(.ARM.Collect$$libinit$$00000033)
    .ARM.Collect$$libshutdown$$00000000      0x0800034c   Section        2  libshutdown.o(.ARM.Collect$$libshutdown$$00000000)
    .ARM.Collect$$libshutdown$$00000001      0x0800034e   Section        6  libshutdown2.o(.ARM.Collect$$libshutdown$$00000001)
    .ARM.Collect$$libshutdown$$00000002      0x08000354   Section        0  libshutdown2.o(.ARM.Collect$$libshutdown$$00000002)
    .ARM.Collect$$libshutdown$$00000004      0x08000354   Section        0  libshutdown2.o(.ARM.Collect$$libshutdown$$00000004)
    .ARM.Collect$$libshutdown$$00000007      0x08000354   Section        0  libshutdown2.o(.ARM.Collect$$libshutdown$$00000007)
    .ARM.Collect$$libshutdown$$0000000A      0x08000354   Section        0  libshutdown2.o(.ARM.Collect$$libshutdown$$0000000A)
    .ARM.Collect$$libshutdown$$0000000C      0x08000354   Section        0  libshutdown2.o(.ARM.Collect$$libshutdown$$0000000C)
    .ARM.Collect$$libshutdown$$0000000F      0x08000354   Section        0  libshutdown2.o(.ARM.Collect$$libshutdown$$0000000F)
    .ARM.Collect$$libshutdown$$00000010      0x08000354   Section        2  libshutdown2.o(.ARM.Collect$$libshutdown$$00000010)
    .ARM.Collect$$rtentry$$00000000          0x08000356   Section        0  __rtentry.o(.ARM.Collect$$rtentry$$00000000)
    .ARM.Collect$$rtentry$$00000002          0x08000356   Section        0  __rtentry2.o(.ARM.Collect$$rtentry$$00000002)
    .ARM.Collect$$rtentry$$00000004          0x08000356   Section        6  __rtentry4.o(.ARM.Collect$$rtentry$$00000004)
    .ARM.Collect$$rtentry$$00000009          0x0800035c   Section        0  __rtentry2.o(.ARM.Collect$$rtentry$$00000009)
    .ARM.Collect$$rtentry$$0000000A          0x0800035c   Section        4  __rtentry2.o(.ARM.Collect$$rtentry$$0000000A)
    .ARM.Collect$$rtentry$$0000000C          0x08000360   Section        0  __rtentry2.o(.ARM.Collect$$rtentry$$0000000C)
    .ARM.Collect$$rtentry$$0000000D          0x08000360   Section        8  __rtentry2.o(.ARM.Collect$$rtentry$$0000000D)
    .ARM.Collect$$rtexit$$00000000           0x08000368   Section        2  rtexit.o(.ARM.Collect$$rtexit$$00000000)
    .ARM.Collect$$rtexit$$00000002           0x0800036a   Section        0  rtexit2.o(.ARM.Collect$$rtexit$$00000002)
    .ARM.Collect$$rtexit$$00000003           0x0800036a   Section        4  rtexit2.o(.ARM.Collect$$rtexit$$00000003)
    .ARM.Collect$$rtexit$$00000004           0x0800036e   Section        6  rtexit2.o(.ARM.Collect$$rtexit$$00000004)
    .emb_text                                0x08000374   Section        0  maybetermalloc1.o(.emb_text)
    .text                                    0x08000374   Section       44  rtoscontext.o(.text)
    $v0                                      0x08000374   Number         0  rtoscontext.o(.text)
    .text                                    0x080003a0   Section       64  startup_stm32f769xx.o(.text)
    $v0                                      0x080003a0   Number         0  startup_stm32f769xx.o(.text)
    .text                                    0x080003e0   Section        0  h1_alloc.o(.text)
    .text                                    0x0800043e   Section        0  h1_free.o(.text)
    .text                                    0x0800048c   Section      238  lludivv7m.o(.text)
    .text                                    0x0800057c   Section        0  c89vsprintf.o(.text)
    .text                                    0x080005a0   Section        0  abort.o(.text)
    .text                                    0x080005b6   Section        0  aeabi_atexit.o(.text)
    .text                                    0x080005e4   Section      100  rt_memcpy_w.o(.text)
    .text                                    0x08000648   Section        0  heapauxi.o(.text)
    .text                                    0x08000650   Section        0  init_aeabi.o(.text)
    .text                                    0x08000674   Section        0  sys_exit.o(.text)
    .text                                    0x08000680   Section        8  rt_heap_descriptor_intlibspace.o(.text)
    .text                                    0x08000688   Section        8  rt_ddtor_pointer_addr_intlibspace.o(.text)
    .text                                    0x08000690   Section        0  hguard.o(.text)
    .text                                    0x08000694   Section        0  init_alloc.o(.text)
    .text                                    0x0800071e   Section        0  h1_init.o(.text)
    .text                                    0x0800072c   Section        0  _rserrno.o(.text)
    .text                                    0x08000742   Section        0  _printf_pad.o(.text)
    .text                                    0x08000790   Section        0  _printf_truncate.o(.text)
    .text                                    0x080007b4   Section        0  _printf_str.o(.text)
    .text                                    0x08000808   Section        0  _printf_dec.o(.text)
    .text                                    0x08000880   Section        0  _printf_charcount.o(.text)
    .text                                    0x080008a8   Section        0  _printf_char_common.o(.text)
    _printf_input_char                       0x080008a9   Thumb Code    10  _printf_char_common.o(.text)
    .text                                    0x080008d8   Section        0  _sputc.o(.text)
    .text                                    0x080008e4   Section        0  _printf_wctomb.o(.text)
    .text                                    0x080009a0   Section        0  _printf_longlong_dec.o(.text)
    .text                                    0x08000a1c   Section        0  _printf_oct_int_ll.o(.text)
    _printf_longlong_oct_internal            0x08000a1d   Thumb Code     0  _printf_oct_int_ll.o(.text)
    .text                                    0x08000a8c   Section        0  _printf_hex_int_ll_ptr.o(.text)
    _printf_hex_common                       0x08000a8d   Thumb Code     0  _printf_hex_int_ll_ptr.o(.text)
    .text                                    0x08000b20   Section        0  __printf_flags_ss_wp.o(.text)
    .text                                    0x08000ca8   Section        0  cxa_finalize.o(.text)
    .text                                    0x08000cea   Section        0  defsig_abrt_outer.o(.text)
    .text                                    0x08000cf8   Section        8  libspace.o(.text)
    .text                                    0x08000d00   Section        2  use_no_semi.o(.text)
    .text                                    0x08000d02   Section        0  indicate_semi.o(.text)
    .text                                    0x08000d04   Section        8  rt_errno_addr_intlibspace.o(.text)
    .text                                    0x08000d0c   Section        0  h1_extend.o(.text)
    .text                                    0x08000d40   Section      138  lludiv10.o(.text)
    .text                                    0x08000dca   Section        0  _printf_intcommon.o(.text)
    .text                                    0x08000e7c   Section        0  _printf_fp_dec.o(.text)
    _fp_digits                               0x08000e7f   Thumb Code   432  _printf_fp_dec.o(.text)
    .text                                    0x0800129a   Section        0  _printf_char.o(.text)
    .text                                    0x080012c6   Section        0  _printf_wchar.o(.text)
    .text                                    0x080012f2   Section        0  _wcrtomb.o(.text)
    .text                                    0x08001332   Section        0  defsig_exit.o(.text)
    .text                                    0x0800133c   Section        0  defsig_abrt_inner.o(.text)
    .text                                    0x0800136c   Section        0  defsig_rtmem_outer.o(.text)
    .text                                    0x0800137a   Section       74  sys_stackheap_outer.o(.text)
    .text                                    0x080013c4   Section       16  rt_ctype_table.o(.text)
    .text                                    0x080013d4   Section        8  rt_locale_intlibspace.o(.text)
    .text                                    0x080013dc   Section        0  _printf_fp_infnan.o(.text)
    .text                                    0x0800145c   Section        0  bigflt0.o(.text)
    .text                                    0x08001540   Section        0  exit.o(.text)
    .text                                    0x08001552   Section        0  defsig_general.o(.text)
    .text                                    0x08001584   Section        0  defsig_rtmem_inner.o(.text)
    .text                                    0x080015d4   Section        0  sys_wrch.o(.text)
    .text                                    0x080015e4   Section      104  strcmpv7m_pel.o(.text)
    CL$$btod_d2e                             0x0800164c   Section       62  btod.o(CL$$btod_d2e)
    CL$$btod_d2e_denorm_low                  0x0800168a   Section       70  btod.o(CL$$btod_d2e_denorm_low)
    CL$$btod_d2e_norm_op1                    0x080016d0   Section       96  btod.o(CL$$btod_d2e_norm_op1)
    CL$$btod_div_common                      0x08001730   Section      824  btod.o(CL$$btod_div_common)
    CL$$btod_e2e                             0x08001a68   Section      220  btod.o(CL$$btod_e2e)
    CL$$btod_ediv                            0x08001b44   Section       42  btod.o(CL$$btod_ediv)
    CL$$btod_emul                            0x08001b6e   Section       42  btod.o(CL$$btod_emul)
    CL$$btod_mult_common                     0x08001b98   Section      580  btod.o(CL$$btod_mult_common)
    i.ADC_IRQHandler                         0x08001ddc   Section        0  lib.o(i.ADC_IRQHandler)
    i.OTG_FS_IRQHandler                      0x08001df8   Section        0  lib.o(i.OTG_FS_IRQHandler)
    i.PendSV_Handler                         0x08001e14   Section        0  lib.o(i.PendSV_Handler)
    i.SysTick_Handler                        0x08001e40   Section        0  lib.o(i.SysTick_Handler)
    i.SystemInit                             0x08001e7c   Section        0  lib.o(i.SystemInit)
    i.TIM1_UP_TIM10_IRQHandler               0x08002018   Section        0  lib.o(i.TIM1_UP_TIM10_IRQHandler)
    i.TIM2_IRQHandler                        0x0800204c   Section        0  lib.o(i.TIM2_IRQHandler)
    i.TIM3_IRQHandler                        0x08002058   Section        0  lib.o(i.TIM3_IRQHandler)
    i.TIM4_IRQHandler                        0x08002064   Section        0  lib.o(i.TIM4_IRQHandler)
    i.TIM5_IRQHandler                        0x08002070   Section        0  lib.o(i.TIM5_IRQHandler)
    i.TIM7_IRQHandler                        0x0800207c   Section        0  lib.o(i.TIM7_IRQHandler)
    i.TIM8_CC_IRQHandler                     0x08002088   Section        0  lib.o(i.TIM8_CC_IRQHandler)
    i.UART4_IRQHandler                       0x08002094   Section        0  lib.o(i.UART4_IRQHandler)
    i.UART5_IRQHandler                       0x080020a0   Section        0  lib.o(i.UART5_IRQHandler)
    i.USART1_IRQHandler                      0x080020ac   Section        0  lib.o(i.USART1_IRQHandler)
    i.USART2_IRQHandler                      0x080020b8   Section        0  lib.o(i.USART2_IRQHandler)
    i.USART3_IRQHandler                      0x080020c4   Section        0  lib.o(i.USART3_IRQHandler)
    i.USART6_IRQHandler                      0x080020d0   Section        0  lib.o(i.USART6_IRQHandler)
    i._Z16__NVIC_EnableIRQ9IRQn_Type         0x080020dc   Section        0  lib.o(i._Z16__NVIC_EnableIRQ9IRQn_Type)
    __NVIC_EnableIRQ(IRQn_Type)              0x080020dd   Thumb Code    26  lib.o(i._Z16__NVIC_EnableIRQ9IRQn_Type)
    i._ZN10Controller10beforeGameEN18cDevControlPointer5cDataE 0x080020f6   Section        0  main.o(i._ZN10Controller10beforeGameEN18cDevControlPointer5cDataE)
    i._ZN10Controller10duringGameEN18cDevControlPointer5cDataE 0x0800217a   Section        0  main.o(i._ZN10Controller10duringGameEN18cDevControlPointer5cDataE)
    i._ZN10Controller10setupFieldEv          0x08002224   Section        0  main.o(i._ZN10Controller10setupFieldEv)
    i._ZN10cDevAnalogC1Ehff                  0x080022b2   Section        0  lib.o(i._ZN10cDevAnalogC1Ehff)
    i._ZN10cHwDisplayC2Ehh                   0x080022c0   Section        0  lib.o(i._ZN10cHwDisplayC2Ehh)
    i._ZN10cHwTimer_N5isr_NEv                0x080022d0   Section        0  lib.o(i._ZN10cHwTimer_N5isr_NEv)
    i._ZN10cHwTimer_NC1ENS_7TimerIdEj        0x080022dc   Section        0  lib.o(i._ZN10cHwTimer_NC1ENS_7TimerIdEj)
    i._ZN11cDevDigital3getEv                 0x080024ec   Section        0  lib.o(i._ZN11cDevDigital3getEv)
    i._ZN11cDevDigital3setEb                 0x08002506   Section        0  lib.o(i._ZN11cDevDigital3setEb)
    i._ZN11cDevDigital8getEventEv            0x0800251a   Section        0  lib.o(i._ZN11cDevDigital8getEventEv)
    i._ZN11cDevDigitalC1ER7cHwPorthNS_4ModeEb 0x08002540   Section        0  lib.o(i._ZN11cDevDigitalC1ER7cHwPorthNS_4ModeEb)
    i._ZN11cHwRTOS_MCU10deleteFuncEv         0x0800257c   Section        0  rtos.o(i._ZN11cHwRTOS_MCU10deleteFuncEv)
    i._ZN11cHwRTOS_MCU10getSysTimeEv         0x08002580   Section        0  rtos.o(i._ZN11cHwRTOS_MCU10getSysTimeEv)
    i._ZN12cDevAnalogIn3getEv                0x080025a4   Section        0  lib.o(i._ZN12cDevAnalogIn3getEv)
    i._ZN12cDevAnalogInC2Ehff                0x080025c8   Section        0  lib.o(i._ZN12cDevAnalogInC2Ehff)
    i._ZN12cHwI2Cmaster4readEhPhhS0_h        0x080025ec   Section        0  lib.o(i._ZN12cHwI2Cmaster4readEhPhhS0_h)
    i._ZN12cHwI2Cmaster6Device4readEhPhh     0x08002696   Section        0  lib.o(i._ZN12cHwI2Cmaster6Device4readEhPhh)
    i._ZN12cHwI2Cmaster6Device7isErrorEv     0x080026b8   Section        0  lib.o(i._ZN12cHwI2Cmaster6Device7isErrorEv)
    i._ZN12cHwI2CmasterC2Eh                  0x080026c4   Section        0  lib.o(i._ZN12cHwI2CmasterC2Eh)
    i._ZN12cHwPinConfig3setENS_8FunctionEj   0x080026d4   Section        0  lib.o(i._ZN12cHwPinConfig3setENS_8FunctionEj)
    i._ZN12cHwPinConfig3setEP12GPIO_TypeDefhjh 0x08002738   Section        0  lib.o(i._ZN12cHwPinConfig3setEP12GPIO_TypeDefhjh)
    i._ZN12cTaskHandler4TaskC2ERS_           0x080027c8   Section        0  lib.o(i._ZN12cTaskHandler4TaskC2ERS_)
    i._ZN12cTaskHandler6updateEv             0x080027ec   Section        0  lib.o(i._ZN12cTaskHandler6updateEv)
    i._ZN12cTaskHandler7addTaskEPNS_4TaskE   0x080027f4   Section        0  lib.o(i._ZN12cTaskHandler7addTaskEPNS_4TaskE)
    i._ZN12cTaskHandlerC1EP8cHwTimer         0x0800280c   Section        0  lib.o(i._ZN12cTaskHandlerC1EP8cHwTimer)
    i._ZN13cDevAnalogOut3setEf               0x08002850   Section        0  lib.o(i._ZN13cDevAnalogOut3setEf)
    i._ZN13cDevAnalogOutC2Ehff               0x080028a0   Section        0  lib.o(i._ZN13cDevAnalogOutC2Ehff)
    i._ZN13cTask_Example6updateEv            0x080028dc   Section        0  main.o(i._ZN13cTask_Example6updateEv)
    i._ZN14cHwDisplayFont7setCharEh          0x080028e4   Section        0  lib.o(i._ZN14cHwDisplayFont7setCharEh)
    i._ZN14cHwDisplayFont8getPixelEhh        0x08002906   Section        0  lib.o(i._ZN14cHwDisplayFont8getPixelEhh)
    i._ZN14cHwDisplayFontC1EPK24cHwDisplayFontPropertiesPKh 0x08002932   Section        0  lib.o(i._ZN14cHwDisplayFontC1EPK24cHwDisplayFontPropertiesPKh)
    i._ZN14cHwI2Cmaster_N11readByteAckEv     0x0800293a   Section        0  lib.o(i._ZN14cHwI2Cmaster_N11readByteAckEv)
    i._ZN14cHwI2Cmaster_N12readByteNackEv    0x0800293e   Section        0  lib.o(i._ZN14cHwI2Cmaster_N12readByteNackEv)
    i._ZN14cHwI2Cmaster_N4readEhPhhS0_h      0x08002942   Section        0  lib.o(i._ZN14cHwI2Cmaster_N4readEhPhhS0_h)
    i._ZN14cHwI2Cmaster_N4stopEv             0x080029e8   Section        0  lib.o(i._ZN14cHwI2Cmaster_N4stopEv)
    i._ZN14cHwI2Cmaster_N5startEv            0x080029ea   Section        0  lib.o(i._ZN14cHwI2Cmaster_N5startEv)
    i._ZN14cHwI2Cmaster_N8sendAddrEh         0x080029ec   Section        0  lib.o(i._ZN14cHwI2Cmaster_N8sendAddrEh)
    i._ZN14cHwI2Cmaster_N9writeByteEh        0x080029ee   Section        0  lib.o(i._ZN14cHwI2Cmaster_N9writeByteEh)
    i._ZN14cHwI2Cmaster_NC1ENS_6I2C_IDEN12cHwI2Cmaster4MODEEh 0x080029f0   Section        0  lib.o(i._ZN14cHwI2Cmaster_NC1ENS_6I2C_IDEN12cHwI2Cmaster4MODEEh)
    i._ZN15cDevAnalogInADC6getRawEv          0x08002b34   Section        0  lib.o(i._ZN15cDevAnalogInADC6getRawEv)
    i._ZN15cDevAnalogInADCC1ER6cHwADChffh    0x08002b40   Section        0  lib.o(i._ZN15cDevAnalogInADCC1ER6cHwADChffh)
    i._ZN15cHwTouch_FT62066updateEv          0x08002b68   Section        0  touch_ft6206.o(i._ZN15cHwTouch_FT62066updateEv)
    i._ZN15cHwTouch_FT6206C1ER12cHwI2Cmaster 0x08002bc4   Section        0  touch_ft6206.o(i._ZN15cHwTouch_FT6206C1ER12cHwI2Cmaster)
    i._ZN16cDevAnalogOutDAC6setRawEt         0x08002bf4   Section        0  lib.o(i._ZN16cDevAnalogOutDAC6setRawEt)
    i._ZN16cDevAnalogOutDACC1ER6cHwDAChff    0x08002c00   Section        0  lib.o(i._ZN16cDevAnalogOutDACC1ER6cHwDAChff)
    i._ZN16cHwDisp_OTM8009A4initEv           0x08002c24   Section        0  disp_otm8009a.o(i._ZN16cHwDisp_OTM8009A4initEv)
    i._ZN16cHwDisp_OTM8009AC2ER6cHwDSIRN7cHwPort3PinENS_11OrientationE14cHwDisplayFonth 0x08003484   Section        0  disp_otm8009a.o(i._ZN16cHwDisp_OTM8009AC2ER6cHwDSIRN7cHwPort3PinENS_11OrientationE14cHwDisplayFonth)
    i._ZN17cHwDisplayGraphic11gotoTextPosEhh 0x080034fc   Section        0  lib.o(i._ZN17cHwDisplayGraphic11gotoTextPosEhh)
    i._ZN17cHwDisplayGraphic12gotoPixelPosEtt 0x08003524   Section        0  lib.o(i._ZN17cHwDisplayGraphic12gotoPixelPosEtt)
    i._ZN17cHwDisplayGraphic12putRectangleEtttt 0x0800352a   Section        0  lib.o(i._ZN17cHwDisplayGraphic12putRectangleEtttt)
    i._ZN17cHwDisplayGraphic12setBackColorEt 0x0800356a   Section        0  lib.o(i._ZN17cHwDisplayGraphic12setBackColorEt)
    i._ZN17cHwDisplayGraphic13setPaintColorEt 0x0800356e   Section        0  lib.o(i._ZN17cHwDisplayGraphic13setPaintColorEt)
    i._ZN17cHwDisplayGraphic7putCharEc       0x08003572   Section        0  lib.o(i._ZN17cHwDisplayGraphic7putCharEc)
    i._ZN17cHwDisplayGraphic7refreshEv       0x08003630   Section        0  lib.o(i._ZN17cHwDisplayGraphic7refreshEv)
    i._ZN17cHwDisplayGraphic8putPixelEtt     0x08003632   Section        0  lib.o(i._ZN17cHwDisplayGraphic8putPixelEtt)
    i._ZN17cHwDisplayGraphicC2E14cHwDisplayFonth 0x08003648   Section        0  lib.o(i._ZN17cHwDisplayGraphicC2E14cHwDisplayFonth)
    i._ZN17cRtosTask_Example6OnStopEv        0x08003684   Section        0  main.o(i._ZN17cRtosTask_Example6OnStopEv)
    i._ZN17cRtosTask_Example6updateEv        0x08003688   Section        0  main.o(i._ZN17cRtosTask_Example6updateEv)
    i._ZN17cRtosTask_Example7OnStartEv       0x080036c0   Section        0  main.o(i._ZN17cRtosTask_Example7OnStartEv)
    i._ZN17cRtosTask_ExampleD1Ev             0x080036ca   Section        0  main.o(i._ZN17cRtosTask_ExampleD1Ev)
    i._ZN18cDevControlEncoder3getEv          0x080036ce   Section        0  lib.o(i._ZN18cDevControlEncoder3getEv)
    i._ZN18cDevControlEncoder6updateEv       0x08003720   Section        0  lib.o(i._ZN18cDevControlEncoder6updateEv)
    i._ZN18cDevControlEncoder7getCtrlEv      0x08003790   Section        0  lib.o(i._ZN18cDevControlEncoder7getCtrlEv)
    i._ZN18cDevControlEncoderC2EP11cDevDigitalP8cHwTimer 0x080037b4   Section        0  lib.o(i._ZN18cDevControlEncoderC2EP11cDevDigitalP8cHwTimer)
    i._ZN18cDevControlPointer3getEv          0x080037f4   Section        0  lib.o(i._ZN18cDevControlPointer3getEv)
    i._ZN18cDevControlPointerC1ER8cHwTouch   0x080038e0   Section        0  lib.o(i._ZN18cDevControlPointerC1ER8cHwTouch)
    i._ZN18cDevDisplayGraphic10drawCircleEtttt 0x080038f8   Section        0  lib.o(i._ZN18cDevDisplayGraphic10drawCircleEtttt)
    i._ZN18cDevDisplayGraphic12setBackColorEt 0x08003982   Section        0  lib.o(i._ZN18cDevDisplayGraphic12setBackColorEt)
    i._ZN18cDevDisplayGraphic13drawRectangleEttttt 0x0800398a   Section        0  lib.o(i._ZN18cDevDisplayGraphic13drawRectangleEttttt)
    i._ZN18cDevDisplayGraphic5clearEv        0x080039ba   Section        0  lib.o(i._ZN18cDevDisplayGraphic5clearEv)
    i._ZN18cDevDisplayGraphic6printfEhhhPKcz 0x080039c2   Section        0  lib.o(i._ZN18cDevDisplayGraphic6printfEhhhPKcz)
    i._ZN18cDevDisplayGraphic7refreshEv      0x08003a18   Section        0  lib.o(i._ZN18cDevDisplayGraphic7refreshEv)
    i._ZN18cDevDisplayGraphic8drawLineEtttttt 0x08003a20   Section        0  lib.o(i._ZN18cDevDisplayGraphic8drawLineEtttttt)
    i._ZN18cDevDisplayGraphic8drawTextEtthPKcz 0x08003b7e   Section        0  lib.o(i._ZN18cDevDisplayGraphic8drawTextEtthPKcz)
    i._ZN18cDevDisplayGraphic9drawFrameEtttttt 0x08003bd4   Section        0  lib.o(i._ZN18cDevDisplayGraphic9drawFrameEtttttt)
    i._ZN18cDevDisplayGraphic9drawPixelEttt  0x08003c44   Section        0  lib.o(i._ZN18cDevDisplayGraphic9drawPixelEttt)
    i._ZN18cDevDisplayGraphicC1ER17cHwDisplayGraphic 0x08003c68   Section        0  lib.o(i._ZN18cDevDisplayGraphicC1ER17cHwDisplayGraphic)
    i._ZN19cHwDisp_OTM8009Aram5clearEv       0x08003c80   Section        0  disp_otm8009a.o(i._ZN19cHwDisp_OTM8009Aram5clearEv)
    i._ZN19cHwDisp_OTM8009Aram7refreshEv     0x08003ca2   Section        0  disp_otm8009a.o(i._ZN19cHwDisp_OTM8009Aram7refreshEv)
    i._ZN19cHwDisp_OTM8009Aram7setAreaEtttt  0x08003ca8   Section        0  disp_otm8009a.o(i._ZN19cHwDisp_OTM8009Aram7setAreaEtttt)
    i._ZN19cHwDisp_OTM8009Aram8setPixelEt    0x08003cce   Section        0  disp_otm8009a.o(i._ZN19cHwDisp_OTM8009Aram8setPixelEt)
    i._ZN19cHwDisp_OTM8009Aram8setPixelEttt  0x08003d02   Section        0  disp_otm8009a.o(i._ZN19cHwDisp_OTM8009Aram8setPixelEttt)
    i._ZN19cHwDisp_OTM8009AramC1ER6cHwDSIRN7cHwPort3PinEN16cHwDisp_OTM8009A11OrientationE14cHwDisplayFonth 0x08003d18   Section        0  disp_otm8009a.o(i._ZN19cHwDisp_OTM8009AramC1ER6cHwDSIRN7cHwPort3PinEN16cHwDisp_OTM8009A11OrientationE14cHwDisplayFonth)
    i._ZN26cDevControlEncoderJoystick12getIncrementEv 0x08003df4   Section        0  lib.o(i._ZN26cDevControlEncoderJoystick12getIncrementEv)
    i._ZN26cDevControlEncoderJoystickC1EP11cDevDigitalS1_S1_P8cHwTimert 0x08003e58   Section        0  lib.o(i._ZN26cDevControlEncoderJoystickC1EP11cDevDigitalS1_S1_P8cHwTimert)
    i._ZN4View15createStartViewE6ButtonS0_   0x08003eac   Section        0  main.o(i._ZN4View15createStartViewE6ButtonS0_)
    i._ZN4View9drawCrossE10Coordinate        0x08003fe8   Section        0  main.o(i._ZN4View9drawCrossE10Coordinate)
    i._ZN5cList3addEPNS_4ItemE               0x08004046   Section        0  lib.o(i._ZN5cList3addEPNS_4ItemE)
    i._ZN5cList4Item6updateEv                0x08004068   Section        0  lib.o(i._ZN5cList4Item6updateEv)
    i._ZN5cList4ItemC1EPS_                   0x0800406c   Section        0  lib.o(i._ZN5cList4ItemC1EPS_)
    i._ZN5cList9updateAllEv                  0x0800408c   Section        0  lib.o(i._ZN5cList9updateAllEv)
    i._ZN5cListC1Ev                          0x080040a2   Section        0  lib.o(i._ZN5cListC1Ev)
    i._ZN5cRTOS4StopERNS_4TaskE              0x080040a8   Section        0  rtos.o(i._ZN5cRTOS4StopERNS_4TaskE)
    i._ZN5cRTOS4Task4StopEv                  0x080040d4   Section        0  rtos.o(i._ZN5cRTOS4Task4StopEv)
    i._ZN5cRTOS4Task5PauseEt                 0x080040f8   Section        0  rtos.o(i._ZN5cRTOS4Task5PauseEt)
    i._ZN5cRTOS4Task5StartEv                 0x08004116   Section        0  rtos.o(i._ZN5cRTOS4Task5StartEv)
    i._ZN5cRTOS4Task6FinishEv                0x0800413a   Section        0  rtos.o(i._ZN5cRTOS4Task6FinishEv)
    i._ZN5cRTOS4Task6OnStopEv                0x0800415c   Section        0  rtos.o(i._ZN5cRTOS4Task6OnStopEv)
    i._ZN5cRTOS4Task7OnStartEv               0x0800415e   Section        0  rtos.o(i._ZN5cRTOS4Task7OnStartEv)
    i._ZN5cRTOS4Task7starterEPv              0x08004160   Section        0  rtos.o(i._ZN5cRTOS4Task7starterEPv)
    i._ZN5cRTOS4TaskC2ERS_j                  0x08004178   Section        0  rtos.o(i._ZN5cRTOS4TaskC2ERS_j)
    i._ZN5cRTOS4TaskD2Ev                     0x08004198   Section        0  rtos.o(i._ZN5cRTOS4TaskD2Ev)
    i._ZN5cRTOS5PauseERNS_4TaskE             0x080041bc   Section        0  rtos.o(i._ZN5cRTOS5PauseERNS_4TaskE)
    i._ZN5cRTOS5StartERNS_4TaskE             0x080041cc   Section        0  rtos.o(i._ZN5cRTOS5StartERNS_4TaskE)
    i._ZN5cRTOS5Timer12getTimeOfTicEv        0x08004258   Section        0  rtos.o(i._ZN5cRTOS5Timer12getTimeOfTicEv)
    i._ZN5cRTOS5Timer7getTicsEv              0x0800425e   Section        0  rtos.o(i._ZN5cRTOS5Timer7getTicsEv)
    i._ZN5cRTOS5TimerC1Et                    0x08004264   Section        0  rtos.o(i._ZN5cRTOS5TimerC1Et)
    i._ZN5cRTOS8scheduleEjh                  0x08004284   Section        0  main.o(i._ZN5cRTOS8scheduleEjh)
    i._ZN5cRTOSC2Ev                          0x080042a4   Section        0  rtos.o(i._ZN5cRTOSC2Ev)
    i._ZN6Button8containsEii                 0x080042b8   Section        0  main.o(i._ZN6Button8containsEii)
    i._ZN6ButtonC1Eiiii                      0x080042de   Section        0  main.o(i._ZN6ButtonC1Eiiii)
    i._ZN6cHwADC3getEh                       0x080042ec   Section        0  lib.o(i._ZN6cHwADC3getEh)
    i._ZN6cHwADC3isrEv                       0x08004312   Section        0  lib.o(i._ZN6cHwADC3isrEv)
    i._ZN6cHwADC6enableEhh                   0x08004364   Section        0  lib.o(i._ZN6cHwADC6enableEhh)
    i._ZN6cHwADC6updateEv                    0x080043b2   Section        0  lib.o(i._ZN6cHwADC6updateEv)
    i._ZN6cHwADCC2EhP8cHwTimer               0x080043e0   Section        0  lib.o(i._ZN6cHwADCC2EhP8cHwTimer)
    i._ZN6cHwDACC2Eh                         0x08004434   Section        0  lib.o(i._ZN6cHwDACC2Eh)
    i._ZN6cHwDSI10writeShortEhh              0x08004440   Section        0  main.o(i._ZN6cHwDSI10writeShortEhh)
    i._ZN6cHwDSI14DisplayRefreshEv           0x08004460   Section        0  disp_otm8009a.o(i._ZN6cHwDSI14DisplayRefreshEv)
    i._ZN6cHwDSI4InitEttb                    0x08004470   Section        0  disp_otm8009a.o(i._ZN6cHwDSI4InitEttb)
    i._ZN6cHwDSI9writeLongEPhj               0x08004604   Section        0  main.o(i._ZN6cHwDSI9writeLongEPhj)
    i._ZN6cHwFMC10SDRAM_InitEv               0x08004648   Section        0  main.o(i._ZN6cHwFMC10SDRAM_InitEv)
    i._ZN6cHwFMC11SendCommandEjjj            0x080046ec   Section        0  main.o(i._ZN6cHwFMC11SendCommandEjjj)
    i._ZN6cHwFMCC1ENS_7FMCtypeEb             0x0800472c   Section        0  main.o(i._ZN6cHwFMCC1ENS_7FMCtypeEb)
    i._ZN6cHwRTCC2Ev                         0x08004930   Section        0  lib.o(i._ZN6cHwRTCC2Ev)
    i._ZN6cTimer3setEtt                      0x0800493c   Section        0  lib.o(i._ZN6cTimer3setEtt)
    i._ZN6cTimer5startEtt                    0x08004960   Section        0  lib.o(i._ZN6cTimer5startEtt)
    i._ZN6cTimer5startEv                     0x08004974   Section        0  lib.o(i._ZN6cTimer5startEv)
    i._ZN6cTimer7timeoutEv                   0x08004988   Section        0  lib.o(i._ZN6cTimer7timeoutEv)
    i._ZN6cTimerC2Ev                         0x080049c4   Section        0  lib.o(i._ZN6cTimerC2Ev)
    i._ZN7cHwPort3Pin3clrEv                  0x080049d4   Section        0  lib.o(i._ZN7cHwPort3Pin3clrEv)
    i._ZN7cHwPort3Pin3getEv                  0x080049de   Section        0  lib.o(i._ZN7cHwPort3Pin3getEv)
    i._ZN7cHwPort3Pin3setEb                  0x080049f8   Section        0  lib.o(i._ZN7cHwPort3Pin3setEb)
    i._ZN7cHwPort3Pin3setEv                  0x08004a12   Section        0  lib.o(i._ZN7cHwPort3Pin3setEv)
    i._ZN7cHwPort3Pin7setModeENS_4ModeE      0x08004a1c   Section        0  lib.o(i._ZN7cHwPort3Pin7setModeENS_4ModeE)
    i._ZN7cHwPort3PinC1ERS_h                 0x08004a28   Section        0  lib.o(i._ZN7cHwPort3PinC1ERS_h)
    i._ZN7cSystem13delayMicroSecEt           0x08004a3c   Section        0  lib.o(i._ZN7cSystem13delayMicroSecEt)
    i._ZN7cSystem13delayMilliSecEt           0x08004a52   Section        0  lib.o(i._ZN7cSystem13delayMilliSecEt)
    i._ZN7cSystem15disableWatchdogEv         0x08004a6c   Section        0  lib.o(i._ZN7cSystem15disableWatchdogEv)
    i._ZN7cSystem15enableInterruptEv         0x08004a70   Section        0  lib.o(i._ZN7cSystem15enableInterruptEv)
    i._ZN7cSystem16disableInterruptEv        0x08004a8c   Section        0  lib.o(i._ZN7cSystem16disableInterruptEv)
    i._ZN7cSystemC1Eh                        0x08004a9c   Section        0  lib.o(i._ZN7cSystemC1Eh)
    i._ZN8cHwADC_07startChEh                 0x08004ab0   Section        0  lib.o(i._ZN8cHwADC_07startChEh)
    i._ZN8cHwADC_08configChEhh               0x08004ac8   Section        0  lib.o(i._ZN8cHwADC_08configChEhh)
    i._ZN8cHwADC_09getResultEv               0x08004b08   Section        0  lib.o(i._ZN8cHwADC_09getResultEv)
    i._ZN8cHwADC_0C1EP8cHwTimer              0x08004b14   Section        0  lib.o(i._ZN8cHwADC_0C1EP8cHwTimer)
    i._ZN8cHwDAC_03setEth                    0x08004b64   Section        0  lib.o(i._ZN8cHwDAC_03setEth)
    i._ZN8cHwDAC_06enableEh                  0x08004b84   Section        0  lib.o(i._ZN8cHwDAC_06enableEh)
    i._ZN8cHwDAC_0C1Ev                       0x08004bb8   Section        0  lib.o(i._ZN8cHwDAC_0C1Ev)
    i._ZN8cHwRTC_03getERN6cHwRTC10PropertiesE 0x08004bd8   Section        0  lib.o(i._ZN8cHwRTC_03getERN6cHwRTC10PropertiesE)
    i._ZN8cHwRTC_0C1ENS_17RTC_ClockConfig_tE 0x08004c98   Section        0  lib.o(i._ZN8cHwRTC_0C1ENS_17RTC_ClockConfig_tE)
    i._ZN8cHwTimer10isrHandlerEv             0x08004d58   Section        0  lib.o(i._ZN8cHwTimer10isrHandlerEv)
    i._ZN8cHwTimer12getCycleTimeEv           0x08004d5e   Section        0  lib.o(i._ZN8cHwTimer12getCycleTimeEv)
    i._ZN8cHwTimer3addEPN5cList4ItemE        0x08004d62   Section        0  lib.o(i._ZN8cHwTimer3addEPN5cList4ItemE)
    i._ZN8cHwTouch7getPosXEv                 0x08004d68   Section        0  lib.o(i._ZN8cHwTouch7getPosXEv)
    i._ZN8cHwTouch7getPosYEv                 0x08004d6c   Section        0  lib.o(i._ZN8cHwTouch7getPosYEv)
    i._ZN8cHwTouch9isTouchedEv               0x08004d70   Section        0  lib.o(i._ZN8cHwTouch9isTouchedEv)
    i._ZN8cHwTouchC2Ett                      0x08004d74   Section        0  lib.o(i._ZN8cHwTouchC2Ett)
    i._ZN8cHwUSB_010EndpointIN11transmitZLPEv 0x08004d8c   Section        0  lib.o(i._ZN8cHwUSB_010EndpointIN11transmitZLPEv)
    i._ZN8cHwUSB_010EndpointIN11writeToFifoEv 0x08004db0   Section        0  lib.o(i._ZN8cHwUSB_010EndpointIN11writeToFifoEv)
    i._ZN8cHwUSB_010EndpointIN12clrInterruptEj 0x08004e08   Section        0  lib.o(i._ZN8cHwUSB_010EndpointIN12clrInterruptEj)
    i._ZN8cHwUSB_010EndpointIN12getInterruptEv 0x08004e10   Section        0  lib.o(i._ZN8cHwUSB_010EndpointIN12getInterruptEv)
    i._ZN8cHwUSB_010EndpointIN6configEth     0x08004e34   Section        0  lib.o(i._ZN8cHwUSB_010EndpointIN6configEth)
    i._ZN8cHwUSB_010EndpointIN8transmitEb    0x08004e7c   Section        0  lib.o(i._ZN8cHwUSB_010EndpointIN8transmitEb)
    i._ZN8cHwUSB_011EndpointOUT10receiveZLPEv 0x08004eec   Section        0  lib.o(i._ZN8cHwUSB_011EndpointOUT10receiveZLPEv)
    i._ZN8cHwUSB_011EndpointOUT12clrInterruptEj 0x08004f14   Section        0  lib.o(i._ZN8cHwUSB_011EndpointOUT12clrInterruptEj)
    i._ZN8cHwUSB_011EndpointOUT12getInterruptEv 0x08004f1c   Section        0  lib.o(i._ZN8cHwUSB_011EndpointOUT12getInterruptEv)
    i._ZN8cHwUSB_011EndpointOUT12readFromFifoEt 0x08004f30   Section        0  lib.o(i._ZN8cHwUSB_011EndpointOUT12readFromFifoEt)
    i._ZN8cHwUSB_011EndpointOUT6configEth    0x08004f5c   Section        0  lib.o(i._ZN8cHwUSB_011EndpointOUT6configEth)
    i._ZN8cHwUSB_011EndpointOUT7receiveEv    0x08004fac   Section        0  lib.o(i._ZN8cHwUSB_011EndpointOUT7receiveEv)
    i._ZN8cHwUSB_012clrInterruptEj           0x08004ffa   Section        0  lib.o(i._ZN8cHwUSB_012clrInterruptEj)
    i._ZN8cHwUSB_014getInInterruptEv         0x08005008   Section        0  lib.o(i._ZN8cHwUSB_014getInInterruptEv)
    i._ZN8cHwUSB_015getOutInterruptEv        0x0800501c   Section        0  lib.o(i._ZN8cHwUSB_015getOutInterruptEv)
    i._ZN8cHwUSB_018isInterruptPendingEj     0x08005030   Section        0  lib.o(i._ZN8cHwUSB_018isInterruptPendingEj)
    i._ZN8cHwUSB_03isrEv                     0x08005048   Section        0  lib.o(i._ZN8cHwUSB_03isrEv)
    i._ZN9cHwPort_N10setPinModeEhN7cHwPort4ModeE 0x08005320   Section        0  lib.o(i._ZN9cHwPort_N10setPinModeEhN7cHwPort4ModeE)
    i._ZN9cHwPort_N3clrEj                    0x0800539a   Section        0  lib.o(i._ZN9cHwPort_N3clrEj)
    i._ZN9cHwPort_N3getEv                    0x080053a2   Section        0  lib.o(i._ZN9cHwPort_N3getEv)
    i._ZN9cHwPort_N3setEj                    0x080053a8   Section        0  lib.o(i._ZN9cHwPort_N3setEj)
    i._ZN9cHwPort_NC1ENS_6PortIdE            0x080053b0   Section        0  lib.o(i._ZN9cHwPort_NC1ENS_6PortIdE)
    i._ZN9cHwUART_N3isrEv                    0x08005484   Section        0  lib.o(i._ZN9cHwUART_N3isrEv)
    i._ZNK14cHwDisplayFont12getCharWidthEv   0x080054b6   Section        0  lib.o(i._ZNK14cHwDisplayFont12getCharWidthEv)
    i._ZNK14cHwDisplayFont13getCharHeightEv  0x080054bc   Section        0  lib.o(i._ZNK14cHwDisplayFont13getCharHeightEv)
    i._Znaj                                  0x080054c2   Section        0  lib.o(i._Znaj)
    i._Znwj                                  0x080054c6   Section        0  main.o(i._Znwj)
    i.__ARM_fpclassify                       0x080054ca   Section        0  fpclassify.o(i.__ARM_fpclassify)
    i.__cxa_pure_virtual                     0x080054fa   Section        0  lib.o(i.__cxa_pure_virtual)
    i.__hardfp_sqrtf                         0x080054fe   Section        0  sqrtf.o(i.__hardfp_sqrtf)
    i.__sti___8_main_cpp_sys                 0x08005538   Section        0  main.o(i.__sti___8_main_cpp_sys)
    __sti___8_main_cpp_sys                   0x08005539   Thumb Code   708  main.o(i.__sti___8_main_cpp_sys)
    i._is_digit                              0x0800584c   Section        0  __printf_wp.o(i._is_digit)
    i.main                                   0x0800585c   Section        0  main.o(i.main)
    locale$$code                             0x080059f8   Section       44  lc_numeric_c.o(locale$$code)
    locale$$code                             0x08005a24   Section       44  lc_ctype_c.o(locale$$code)
    t._Z5RANGEIsET_S0_S0_S0_                 0x08005a50   Section        0  lib.o(t._Z5RANGEIsET_S0_S0_S0_)
    t._ZN5cFifoIN18cDevControlEncoder6tEventEE6isFullEv 0x08005a60   Section        0  lib.o(t._ZN5cFifoIN18cDevControlEncoder6tEventEE6isFullEv)
    t._ZN5cFifoIN18cDevControlEncoder6tEventEElsERKS1_ 0x08005a7e   Section        0  lib.o(t._ZN5cFifoIN18cDevControlEncoder6tEventEElsERKS1_)
    t._ZN8cRTOS_RRILh3EE3addEj               0x08005abc   Section        0  main.o(t._ZN8cRTOS_RRILh3EE3addEj)
    t._ZN8cRTOS_RRILh3EE3delEi               0x08005aea   Section        0  main.o(t._ZN8cRTOS_RRILh3EE3delEi)
    t._ZN8cRTOS_RRILh3EE3getEi               0x08005af8   Section        0  main.o(t._ZN8cRTOS_RRILh3EE3getEi)
    t._ZN8cRTOS_RRILh3EE9schedulerEjb        0x08005b00   Section        0  main.o(t._ZN8cRTOS_RRILh3EE9schedulerEjb)
    x$fpl$d2f                                0x08005b40   Section       98  d2f.o(x$fpl$d2f)
    $v0                                      0x08005b40   Number         0  d2f.o(x$fpl$d2f)
    x$fpl$dadd                               0x08005ba4   Section      336  daddsub_clz.o(x$fpl$dadd)
    $v0                                      0x08005ba4   Number         0  daddsub_clz.o(x$fpl$dadd)
    _dadd1                                   0x08005bb5   Thumb Code     0  daddsub_clz.o(x$fpl$dadd)
    x$fpl$ddiv                               0x08005cf4   Section      688  ddiv.o(x$fpl$ddiv)
    $v0                                      0x08005cf4   Number         0  ddiv.o(x$fpl$ddiv)
    ddiv_entry                               0x08005cfb   Thumb Code     0  ddiv.o(x$fpl$ddiv)
    x$fpl$dfixu                              0x08005fa4   Section       90  dfixu.o(x$fpl$dfixu)
    $v0                                      0x08005fa4   Number         0  dfixu.o(x$fpl$dfixu)
    x$fpl$dfltu                              0x08005ffe   Section       38  dflt_clz.o(x$fpl$dfltu)
    $v0                                      0x08005ffe   Number         0  dflt_clz.o(x$fpl$dfltu)
    x$fpl$dmul                               0x08006024   Section      340  dmul.o(x$fpl$dmul)
    $v0                                      0x08006024   Number         0  dmul.o(x$fpl$dmul)
    x$fpl$dnaninf                            0x08006178   Section      156  dnaninf.o(x$fpl$dnaninf)
    $v0                                      0x08006178   Number         0  dnaninf.o(x$fpl$dnaninf)
    x$fpl$dretinf                            0x08006214   Section       12  dretinf.o(x$fpl$dretinf)
    $v0                                      0x08006214   Number         0  dretinf.o(x$fpl$dretinf)
    x$fpl$dsub                               0x08006220   Section      468  daddsub_clz.o(x$fpl$dsub)
    $v0                                      0x08006220   Number         0  daddsub_clz.o(x$fpl$dsub)
    _dsub1                                   0x08006231   Thumb Code     0  daddsub_clz.o(x$fpl$dsub)
    x$fpl$f2d                                0x080063f4   Section       86  f2d.o(x$fpl$f2d)
    $v0                                      0x080063f4   Number         0  f2d.o(x$fpl$f2d)
    x$fpl$fnaninf                            0x0800644a   Section      140  fnaninf.o(x$fpl$fnaninf)
    $v0                                      0x0800644a   Number         0  fnaninf.o(x$fpl$fnaninf)
    x$fpl$fpinit                             0x080064d6   Section       10  fpinit.o(x$fpl$fpinit)
    $v0                                      0x080064d6   Number         0  fpinit.o(x$fpl$fpinit)
    x$fpl$fretinf                            0x080064e0   Section       10  fretinf.o(x$fpl$fretinf)
    $v0                                      0x080064e0   Number         0  fretinf.o(x$fpl$fretinf)
    x$fpl$printf1                            0x080064ea   Section        4  printf1.o(x$fpl$printf1)
    $v0                                      0x080064ea   Number         0  printf1.o(x$fpl$printf1)
    .constdata                               0x080064ee   Section     1157  main.o(.constdata)
    x$fpl$usenofp                            0x080064ee   Section        0  usenofp.o(x$fpl$usenofp)
    fontFont_8x12                            0x080064ee   Data        1157  main.o(.constdata)
    .constdata                               0x08006974   Section       60  lib.o(.constdata)
    zeroAddr                                 0x08006974   Data           4  lib.o(.constdata)
    broadcastAddr                            0x08006978   Data           4  lib.o(.constdata)
    zeroAddrPhy                              0x0800697c   Data           6  lib.o(.constdata)
    broadcastAddrPhy                         0x08006982   Data           6  lib.o(.constdata)
    .constdata                               0x080069b0   Section        8  _printf_wctomb.o(.constdata)
    initial_mbstate                          0x080069b0   Data           8  _printf_wctomb.o(.constdata)
    .constdata                               0x080069b8   Section       40  _printf_hex_int_ll_ptr.o(.constdata)
    uc_hextab                                0x080069b8   Data          20  _printf_hex_int_ll_ptr.o(.constdata)
    lc_hextab                                0x080069cc   Data          20  _printf_hex_int_ll_ptr.o(.constdata)
    .constdata                               0x080069e0   Section       17  __printf_flags_ss_wp.o(.constdata)
    maptable                                 0x080069e0   Data          17  __printf_flags_ss_wp.o(.constdata)
    .constdata                               0x080069f4   Section      148  bigflt0.o(.constdata)
    tenpwrs_x                                0x080069f4   Data          60  bigflt0.o(.constdata)
    tenpwrs_i                                0x08006a30   Data          64  bigflt0.o(.constdata)
    .constdata__ZTV10cHwDisplay              0x08006a88   Section       32  lib.o(.constdata__ZTV10cHwDisplay)
    .constdata__ZTV10cHwTimer_N              0x08006aa8   Section       28  lib.o(.constdata__ZTV10cHwTimer_N)
    .constdata__ZTV11cDevDigital             0x08006ac4   Section       48  lib.o(.constdata__ZTV11cDevDigital)
    .constdata__ZTV12cDevAnalogIn            0x08006af4   Section       24  lib.o(.constdata__ZTV12cDevAnalogIn)
    .constdata__ZTV12cHwI2Cmaster            0x08006b0c   Section       40  lib.o(.constdata__ZTV12cHwI2Cmaster)
    .constdata__ZTV12cTaskHandler            0x08006b34   Section       28  lib.o(.constdata__ZTV12cTaskHandler)
    .constdata__ZTV13cDevAnalogOut           0x08006b50   Section       20  lib.o(.constdata__ZTV13cDevAnalogOut)
    .constdata__ZTV13cTask_Example           0x08006b64   Section       12  main.o(.constdata__ZTV13cTask_Example)
    .constdata__ZTV14cHwI2Cmaster_N          0x08006b70   Section       44  lib.o(.constdata__ZTV14cHwI2Cmaster_N)
    .constdata__ZTV15cDevAnalogInADC         0x08006b9c   Section       24  lib.o(.constdata__ZTV15cDevAnalogInADC)
    .constdata__ZTV15cHwTouch_FT6206         0x08006bb4   Section       24  touch_ft6206.o(.constdata__ZTV15cHwTouch_FT6206)
    .constdata__ZTV16cDevAnalogOutDAC        0x08006bcc   Section       20  lib.o(.constdata__ZTV16cDevAnalogOutDAC)
    .constdata__ZTV16cHwDisp_OTM8009A        0x08006be0   Section       92  disp_otm8009a.o(.constdata__ZTV16cHwDisp_OTM8009A)
    .constdata__ZTV17cHwDisplayGraphic       0x08006c3c   Section       92  lib.o(.constdata__ZTV17cHwDisplayGraphic)
    .constdata__ZTV17cRtosTask_Example       0x08006c98   Section       48  main.o(.constdata__ZTV17cRtosTask_Example)
    .constdata__ZTV18cDevControlEncoder      0x08006cc8   Section       20  lib.o(.constdata__ZTV18cDevControlEncoder)
    .constdata__ZTV18cDevControlPointer      0x08006cdc   Section       12  lib.o(.constdata__ZTV18cDevControlPointer)
    .constdata__ZTV18cDevDisplayGraphic      0x08006ce8   Section       72  lib.o(.constdata__ZTV18cDevDisplayGraphic)
    .constdata__ZTV19cHwDisp_OTM8009Aram     0x08006d30   Section       92  disp_otm8009a.o(.constdata__ZTV19cHwDisp_OTM8009Aram)
    .constdata__ZTV26cDevControlEncoderJoystick 0x08006d8c   Section       20  lib.o(.constdata__ZTV26cDevControlEncoderJoystick)
    .constdata__ZTV5cRTOS                    0x08006da0   Section       24  rtos.o(.constdata__ZTV5cRTOS)
    .constdata__ZTV6cHwADC                   0x08006db8   Section       40  lib.o(.constdata__ZTV6cHwADC)
    .constdata__ZTV6cHwDAC                   0x08006de0   Section       20  lib.o(.constdata__ZTV6cHwDAC)
    .constdata__ZTV6cHwDSI                   0x08006df4   Section       16  main.o(.constdata__ZTV6cHwDSI)
    .constdata__ZTV6cHwRTC                   0x08006e04   Section       16  lib.o(.constdata__ZTV6cHwRTC)
    .constdata__ZTV6cTimer                   0x08006e14   Section       16  lib.o(.constdata__ZTV6cTimer)
    .constdata__ZTV8cHwADC_0                 0x08006e24   Section       40  lib.o(.constdata__ZTV8cHwADC_0)
    .constdata__ZTV8cHwDAC_0                 0x08006e4c   Section       20  lib.o(.constdata__ZTV8cHwDAC_0)
    .constdata__ZTV8cHwRTC_0                 0x08006e60   Section       16  lib.o(.constdata__ZTV8cHwRTC_0)
    .constdata__ZTV8cHwTimer                 0x08006e70   Section       28  lib.o(.constdata__ZTV8cHwTimer)
    .constdata__ZTV8cHwTouch                 0x08006e8c   Section       24  lib.o(.constdata__ZTV8cHwTouch)
    .constdata__ZTV8cRTOS_RRILh3EE           0x08006ea4   Section       24  main.o(.constdata__ZTV8cRTOS_RRILh3EE)
    .constdata__ZTV9cHwPort_N                0x08006ebc   Section       32  lib.o(.constdata__ZTV9cHwPort_N)
    .constdata__ZTVN12cHwI2Cmaster6DeviceE   0x08006edc   Section       60  lib.o(.constdata__ZTVN12cHwI2Cmaster6DeviceE)
    .constdata__ZTVN12cTaskHandler4TaskE     0x08006f18   Section       12  lib.o(.constdata__ZTVN12cTaskHandler4TaskE)
    .constdata__ZTVN5cList4ItemE             0x08006f24   Section       12  lib.o(.constdata__ZTVN5cList4ItemE)
    .constdata__ZTVN5cRTOS4TaskE             0x08006f30   Section       48  rtos.o(.constdata__ZTVN5cRTOS4TaskE)
    .constdata__ZTVN5cRTOS5TimerE            0x08006f60   Section       16  rtos.o(.constdata__ZTVN5cRTOS5TimerE)
    .constdata__ZTVN7cHwPort3PinE            0x08006f70   Section       28  lib.o(.constdata__ZTVN7cHwPort3PinE)
    .constdata__ZZN4View15createStartViewE6ButtonS0_Es 0x08006f8c   Section       21  main.o(.constdata__ZZN4View15createStartViewE6ButtonS0_Es)
    .constdata__ZZN4View15createStartViewE6ButtonS0_Es_0 0x08006fa1   Section       10  main.o(.constdata__ZZN4View15createStartViewE6ButtonS0_Es_0)
    .constdata__ZZN4View15createStartViewE6ButtonS0_Es_1 0x08006fab   Section       10  main.o(.constdata__ZZN4View15createStartViewE6ButtonS0_Es_1)
    locale$$data                             0x08006fd8   Section       28  lc_numeric_c.o(locale$$data)
    __lcnum_c_name                           0x08006fdc   Data           2  lc_numeric_c.o(locale$$data)
    __lcnum_c_start                          0x08006fe4   Data           0  lc_numeric_c.o(locale$$data)
    __lcnum_c_point                          0x08006ff0   Data           0  lc_numeric_c.o(locale$$data)
    __lcnum_c_thousands                      0x08006ff2   Data           0  lc_numeric_c.o(locale$$data)
    __lcnum_c_grouping                       0x08006ff3   Data           0  lc_numeric_c.o(locale$$data)
    locale$$data                             0x08006ff4   Section      272  lc_ctype_c.o(locale$$data)
    __lcnum_c_end                            0x08006ff4   Data           0  lc_numeric_c.o(locale$$data)
    __lcctype_c_name                         0x08006ff8   Data           2  lc_ctype_c.o(locale$$data)
    __lcctype_c_start                        0x08007000   Data           0  lc_ctype_c.o(locale$$data)
    .init_array                              0x08007104   Section        4  main.o(.init_array)
    __lcctype_c_end                          0x08007104   Data           0  lc_ctype_c.o(locale$$data)
    .init_array                              0x08007108   Section        0  init_aeabi.o(.init_array)
    .ARM.__AT_0x20000000                     0x20000000   Section      160  lib.o(.ARM.__AT_0x20000000)
    .ARM.__AT_0x20000100                     0x20000100   Section     7620  lib.o(.ARM.__AT_0x20000100)
    .ARM.__AT_0x20002000                     0x20002000   Section      160  lib.o(.ARM.__AT_0x20002000)
    .ARM.__AT_0x20002100                     0x20002100   Section     7620  lib.o(.ARM.__AT_0x20002100)
    .data                                    0x20020000   Section      276  main.o(.data)
    .data                                    0x20020114   Section       96  main.o(.data)
    .data                                    0x20020174   Section      116  lib.o(.data)
    _ZGVret                                  0x200201cc   Data           4  lib.o(.data)
    ret                                      0x200201d0   Data           4  lib.o(.data)
    stackPointer                             0x200201e0   Data           4  lib.o(.data)
    stackPointer                             0x200201e4   Data           4  lib.o(.data)
    .data                                    0x200201e8   Section        4  lib.o(.data)
    .data                                    0x200201ec   Section        4  rtos.o(.data)
    .bss                                     0x200201f0   Section      564  main.o(.bss)
    .bss                                     0x20020424   Section       96  libspace.o(.bss)
    HEAP                                     0x20020488   Section     4096  startup_stm32f769xx.o(HEAP)
    Heap_Mem                                 0x20020488   Data        4096  startup_stm32f769xx.o(HEAP)
    STACK                                    0x20021488   Section     4096  startup_stm32f769xx.o(STACK)
    Stack_Mem                                0x20021488   Data        4096  startup_stm32f769xx.o(STACK)
    __initial_sp                             0x20022488   Data           0  startup_stm32f769xx.o(STACK)

    Global Symbols

    Symbol Name                              Value     Ov Type        Size  Object(Section)

    BuildAttributes$$THM_ISAv4$E$P$D$K$B$S$7EM$VFPi5$EXTD16$VFPS$VFMA$PE$PLD8$A:L22UL41UL21$X:L11$S22US41US21$IEEE1$IW$USESV6$~STKCKD$USESV7$~SHL$OTIME$ROPI$IEEEJ$EBA8$UX$STANDARDLIB$REQ8$PRES8$EABIv2 0x00000000   Number         0  anon$$obj.o ABSOLUTE
    __ARM_use_no_argv                        0x00000000   Number         0  main.o ABSOLUTE
    _printf_flags                            0x00000000   Number         0  printf_stubs.o ABSOLUTE
    _printf_return_value                     0x00000000   Number         0  printf_stubs.o ABSOLUTE
    _printf_sizespec                         0x00000000   Number         0  printf_stubs.o ABSOLUTE
    _printf_widthprec                        0x00000000   Number         0  printf_stubs.o ABSOLUTE
    SHT$$ARM_EXIDX$$Base                      - Undefined Reference
    SHT$$ARM_EXIDX$$Limit                     - Undefined Reference
    __ARM::default_unexpected_handler()       - Undefined Weak Reference
    __ARM_exceptions_buffer_required          - Undefined Weak Reference
    __ARM_exceptions_init                     - Undefined Weak Reference
    __aeabi_unwind_cpp_pr1                    - Undefined Weak Reference
    __aeabi_unwind_cpp_pr2                    - Undefined Weak Reference
    __alloca_initialize                       - Undefined Weak Reference
    __arm_preinit_                            - Undefined Weak Reference
    __cxa_begin_cleanup                       - Undefined Weak Reference
    __cxa_call_unexpected                     - Undefined Weak Reference
    __cxa_type_match                          - Undefined Weak Reference
    __sigvec_lookup                           - Undefined Weak Reference
    __user_heap_extent                        - Undefined Weak Reference
    _atexit_init                              - Undefined Weak Reference
    _call_atexit_fns                          - Undefined Weak Reference
    _clock_init                               - Undefined Weak Reference
    _fp_trap_init                             - Undefined Weak Reference
    _fp_trap_shutdown                         - Undefined Weak Reference
    _get_lc_collate                           - Undefined Weak Reference
    _get_lc_monetary                          - Undefined Weak Reference
    _get_lc_time                              - Undefined Weak Reference
    _getenv_init                              - Undefined Weak Reference
    _handle_redirection                       - Undefined Weak Reference
    _initio                                   - Undefined Weak Reference
    _mutex_acquire                            - Undefined Weak Reference
    _mutex_free                               - Undefined Weak Reference
    _mutex_release                            - Undefined Weak Reference
    _printf_fp_hex                            - Undefined Weak Reference
    _printf_mbtowc                            - Undefined Weak Reference
    _printf_wc                                - Undefined Weak Reference
    _rand_init                                - Undefined Weak Reference
    _signal_finish                            - Undefined Weak Reference
    _signal_init                              - Undefined Weak Reference
    _terminateio                              - Undefined Weak Reference
    __Vectors_Size                           0x000001f8   Number         0  startup_stm32f769xx.o ABSOLUTE
    __Vectors                                0x08000000   Data           4  startup_stm32f769xx.o(RESET)
    __dso_handle                             0x08000000   Number         0  startup_stm32f769xx.o(RESET)
    __Vectors_End                            0x080001f8   Data           0  startup_stm32f769xx.o(RESET)
    __main                                   0x080001f9   Thumb Code     8  __main.o(!!!main)
    __scatterload                            0x08000201   Thumb Code     0  __scatter.o(!!!scatter)
    __scatterload_rt2                        0x08000201   Thumb Code    44  __scatter.o(!!!scatter)
    __scatterload_rt2_thumb_only             0x08000201   Thumb Code     0  __scatter.o(!!!scatter)
    __scatterload_null                       0x0800020f   Thumb Code     0  __scatter.o(!!!scatter)
    __decompress                             0x08000235   Thumb Code    58  __dczerorl.o(!!dczerorl)
    __decompress0                            0x08000235   Thumb Code     0  __dczerorl.o(!!dczerorl)
    __scatterload_zeroinit                   0x08000271   Thumb Code    28  __scatter_zi.o(!!handler_zi)
    _printf_n                                0x0800028d   Thumb Code     0  _printf_n.o(.ARM.Collect$$_printf_percent$$00000001)
    _printf_percent                          0x0800028d   Thumb Code     0  _printf_percent.o(.ARM.Collect$$_printf_percent$$00000000)
    _printf_p                                0x08000293   Thumb Code     0  _printf_p.o(.ARM.Collect$$_printf_percent$$00000002)
    _printf_f                                0x08000299   Thumb Code     0  _printf_f.o(.ARM.Collect$$_printf_percent$$00000003)
    _printf_e                                0x0800029f   Thumb Code     0  _printf_e.o(.ARM.Collect$$_printf_percent$$00000004)
    _printf_g                                0x080002a5   Thumb Code     0  _printf_g.o(.ARM.Collect$$_printf_percent$$00000005)
    _printf_a                                0x080002ab   Thumb Code     0  _printf_a.o(.ARM.Collect$$_printf_percent$$00000006)
    _printf_ll                               0x080002b1   Thumb Code     0  _printf_ll.o(.ARM.Collect$$_printf_percent$$00000007)
    _printf_i                                0x080002bb   Thumb Code     0  _printf_i.o(.ARM.Collect$$_printf_percent$$00000008)
    _printf_d                                0x080002c1   Thumb Code     0  _printf_d.o(.ARM.Collect$$_printf_percent$$00000009)
    _printf_u                                0x080002c7   Thumb Code     0  _printf_u.o(.ARM.Collect$$_printf_percent$$0000000A)
    _printf_o                                0x080002cd   Thumb Code     0  _printf_o.o(.ARM.Collect$$_printf_percent$$0000000B)
    _printf_x                                0x080002d3   Thumb Code     0  _printf_x.o(.ARM.Collect$$_printf_percent$$0000000C)
    _printf_lli                              0x080002d9   Thumb Code     0  _printf_lli.o(.ARM.Collect$$_printf_percent$$0000000D)
    _printf_lld                              0x080002df   Thumb Code     0  _printf_lld.o(.ARM.Collect$$_printf_percent$$0000000E)
    _printf_llu                              0x080002e5   Thumb Code     0  _printf_llu.o(.ARM.Collect$$_printf_percent$$0000000F)
    _printf_llo                              0x080002eb   Thumb Code     0  _printf_llo.o(.ARM.Collect$$_printf_percent$$00000010)
    _printf_llx                              0x080002f1   Thumb Code     0  _printf_llx.o(.ARM.Collect$$_printf_percent$$00000011)
    _printf_l                                0x080002f7   Thumb Code     0  _printf_l.o(.ARM.Collect$$_printf_percent$$00000012)
    _printf_c                                0x08000301   Thumb Code     0  _printf_c.o(.ARM.Collect$$_printf_percent$$00000013)
    _printf_s                                0x08000307   Thumb Code     0  _printf_s.o(.ARM.Collect$$_printf_percent$$00000014)
    _printf_lc                               0x0800030d   Thumb Code     0  _printf_lc.o(.ARM.Collect$$_printf_percent$$00000015)
    _printf_ls                               0x08000313   Thumb Code     0  _printf_ls.o(.ARM.Collect$$_printf_percent$$00000016)
    _printf_percent_end                      0x08000319   Thumb Code     0  _printf_percent_end.o(.ARM.Collect$$_printf_percent$$00000017)
    __rt_lib_init                            0x0800031d   Thumb Code     0  libinit.o(.ARM.Collect$$libinit$$00000000)
    __rt_lib_init_fp_1                       0x0800031f   Thumb Code     0  libinit2.o(.ARM.Collect$$libinit$$00000001)
    __rt_lib_init_heap_2                     0x08000323   Thumb Code     0  libinit2.o(.ARM.Collect$$libinit$$00000005)
    __rt_lib_init_preinit_1                  0x08000323   Thumb Code     0  libinit2.o(.ARM.Collect$$libinit$$00000004)
    __rt_lib_init_heap_1                     0x0800032b   Thumb Code     0  libinit2.o(.ARM.Collect$$libinit$$0000000A)
    __rt_lib_init_lc_common                  0x0800032b   Thumb Code     0  libinit2.o(.ARM.Collect$$libinit$$0000000F)
    __rt_lib_init_rand_1                     0x0800032b   Thumb Code     0  libinit2.o(.ARM.Collect$$libinit$$0000000E)
    __rt_lib_init_user_alloc_1               0x0800032b   Thumb Code     0  libinit2.o(.ARM.Collect$$libinit$$0000000C)
    __rt_lib_init_lc_collate_1               0x08000331   Thumb Code     0  libinit2.o(.ARM.Collect$$libinit$$00000011)
    __rt_lib_init_lc_ctype_2                 0x08000331   Thumb Code     0  libinit2.o(.ARM.Collect$$libinit$$00000012)
    __rt_lib_init_lc_ctype_1                 0x0800033d   Thumb Code     0  libinit2.o(.ARM.Collect$$libinit$$00000013)
    __rt_lib_init_lc_monetary_1              0x0800033d   Thumb Code     0  libinit2.o(.ARM.Collect$$libinit$$00000015)
    __rt_lib_init_lc_numeric_2               0x0800033d   Thumb Code     0  libinit2.o(.ARM.Collect$$libinit$$00000016)
    __rt_lib_init_alloca_1                   0x08000347   Thumb Code     0  libinit2.o(.ARM.Collect$$libinit$$0000002E)
    __rt_lib_init_argv_1                     0x08000347   Thumb Code     0  libinit2.o(.ARM.Collect$$libinit$$0000002C)
    __rt_lib_init_atexit_1                   0x08000347   Thumb Code     0  libinit2.o(.ARM.Collect$$libinit$$0000001B)
    __rt_lib_init_clock_1                    0x08000347   Thumb Code     0  libinit2.o(.ARM.Collect$$libinit$$00000021)
    __rt_lib_init_cpp_2                      0x08000347   Thumb Code     0  libinit2.o(.ARM.Collect$$libinit$$00000031)
    __rt_lib_init_exceptions_1               0x08000347   Thumb Code     0  libinit2.o(.ARM.Collect$$libinit$$00000030)
    __rt_lib_init_fp_trap_1                  0x08000347   Thumb Code     0  libinit2.o(.ARM.Collect$$libinit$$0000001F)
    __rt_lib_init_getenv_1                   0x08000347   Thumb Code     0  libinit2.o(.ARM.Collect$$libinit$$00000023)
    __rt_lib_init_lc_numeric_1               0x08000347   Thumb Code     0  libinit2.o(.ARM.Collect$$libinit$$00000017)
    __rt_lib_init_lc_time_1                  0x08000347   Thumb Code     0  libinit2.o(.ARM.Collect$$libinit$$00000019)
    __rt_lib_init_signal_1                   0x08000347   Thumb Code     0  libinit2.o(.ARM.Collect$$libinit$$0000001D)
    __rt_lib_init_stdio_1                    0x08000347   Thumb Code     0  libinit2.o(.ARM.Collect$$libinit$$00000025)
    __rt_lib_init_cpp_1                      0x0800034b   Thumb Code     0  libinit2.o(.ARM.Collect$$libinit$$00000032)
    __rt_lib_init_return                     0x0800034b   Thumb Code     0  libinit2.o(.ARM.Collect$$libinit$$00000033)
    __rt_lib_shutdown                        0x0800034d   Thumb Code     0  libshutdown.o(.ARM.Collect$$libshutdown$$00000000)
    __rt_lib_shutdown_cpp_2                  0x0800034f   Thumb Code     0  libshutdown2.o(.ARM.Collect$$libshutdown$$00000001)
    __rt_lib_shutdown_cpp_1                  0x08000355   Thumb Code     0  libshutdown2.o(.ARM.Collect$$libshutdown$$00000002)
    __rt_lib_shutdown_fp_trap_1              0x08000355   Thumb Code     0  libshutdown2.o(.ARM.Collect$$libshutdown$$00000007)
    __rt_lib_shutdown_heap_1                 0x08000355   Thumb Code     0  libshutdown2.o(.ARM.Collect$$libshutdown$$0000000F)
    __rt_lib_shutdown_return                 0x08000355   Thumb Code     0  libshutdown2.o(.ARM.Collect$$libshutdown$$00000010)
    __rt_lib_shutdown_signal_1               0x08000355   Thumb Code     0  libshutdown2.o(.ARM.Collect$$libshutdown$$0000000A)
    __rt_lib_shutdown_stdio_1                0x08000355   Thumb Code     0  libshutdown2.o(.ARM.Collect$$libshutdown$$00000004)
    __rt_lib_shutdown_user_alloc_1           0x08000355   Thumb Code     0  libshutdown2.o(.ARM.Collect$$libshutdown$$0000000C)
    __rt_entry                               0x08000357   Thumb Code     0  __rtentry.o(.ARM.Collect$$rtentry$$00000000)
    __rt_entry_presh_1                       0x08000357   Thumb Code     0  __rtentry2.o(.ARM.Collect$$rtentry$$00000002)
    __rt_entry_sh                            0x08000357   Thumb Code     0  __rtentry4.o(.ARM.Collect$$rtentry$$00000004)
    __rt_entry_li                            0x0800035d   Thumb Code     0  __rtentry2.o(.ARM.Collect$$rtentry$$0000000A)
    __rt_entry_postsh_1                      0x0800035d   Thumb Code     0  __rtentry2.o(.ARM.Collect$$rtentry$$00000009)
    __rt_entry_main                          0x08000361   Thumb Code     0  __rtentry2.o(.ARM.Collect$$rtentry$$0000000D)
    __rt_entry_postli_1                      0x08000361   Thumb Code     0  __rtentry2.o(.ARM.Collect$$rtentry$$0000000C)
    __rt_exit                                0x08000369   Thumb Code     0  rtexit.o(.ARM.Collect$$rtexit$$00000000)
    __rt_exit_ls                             0x0800036b   Thumb Code     0  rtexit2.o(.ARM.Collect$$rtexit$$00000003)
    __rt_exit_prels_1                        0x0800036b   Thumb Code     0  rtexit2.o(.ARM.Collect$$rtexit$$00000002)
    __rt_exit_exit                           0x0800036f   Thumb Code     0  rtexit2.o(.ARM.Collect$$rtexit$$00000004)
    _maybe_terminate_alloc                   0x08000375   Thumb Code     0  maybetermalloc1.o(.emb_text)
    save_context                             0x08000375   Thumb Code    22  rtoscontext.o(.text)
    load_context                             0x0800038b   Thumb Code    22  rtoscontext.o(.text)
    Reset_Handler                            0x080003a1   Thumb Code     8  startup_stm32f769xx.o(.text)
    NMI_Handler                              0x080003a9   Thumb Code     2  startup_stm32f769xx.o(.text)
    HardFault_Handler                        0x080003ab   Thumb Code     2  startup_stm32f769xx.o(.text)
    MemManage_Handler                        0x080003ad   Thumb Code     2  startup_stm32f769xx.o(.text)
    BusFault_Handler                         0x080003af   Thumb Code     2  startup_stm32f769xx.o(.text)
    UsageFault_Handler                       0x080003b1   Thumb Code     2  startup_stm32f769xx.o(.text)
    SVC_Handler                              0x080003b3   Thumb Code     2  startup_stm32f769xx.o(.text)
    DebugMon_Handler                         0x080003b5   Thumb Code     2  startup_stm32f769xx.o(.text)
    CAN1_RX0_IRQHandler                      0x080003bb   Thumb Code     0  startup_stm32f769xx.o(.text)
    CAN1_RX1_IRQHandler                      0x080003bb   Thumb Code     0  startup_stm32f769xx.o(.text)
    CAN1_SCE_IRQHandler                      0x080003bb   Thumb Code     0  startup_stm32f769xx.o(.text)
    CAN1_TX_IRQHandler                       0x080003bb   Thumb Code     0  startup_stm32f769xx.o(.text)
    CAN2_RX0_IRQHandler                      0x080003bb   Thumb Code     0  startup_stm32f769xx.o(.text)
    CAN2_RX1_IRQHandler                      0x080003bb   Thumb Code     0  startup_stm32f769xx.o(.text)
    CAN2_SCE_IRQHandler                      0x080003bb   Thumb Code     0  startup_stm32f769xx.o(.text)
    CAN2_TX_IRQHandler                       0x080003bb   Thumb Code     0  startup_stm32f769xx.o(.text)
    CAN3_RX0_IRQHandler                      0x080003bb   Thumb Code     0  startup_stm32f769xx.o(.text)
    CAN3_RX1_IRQHandler                      0x080003bb   Thumb Code     0  startup_stm32f769xx.o(.text)
    CAN3_SCE_IRQHandler                      0x080003bb   Thumb Code     0  startup_stm32f769xx.o(.text)
    CAN3_TX_IRQHandler                       0x080003bb   Thumb Code     0  startup_stm32f769xx.o(.text)
    CEC_IRQHandler                           0x080003bb   Thumb Code     0  startup_stm32f769xx.o(.text)
    DCMI_IRQHandler                          0x080003bb   Thumb Code     0  startup_stm32f769xx.o(.text)
    DFSDM1_FLT0_IRQHandler                   0x080003bb   Thumb Code     0  startup_stm32f769xx.o(.text)
    DFSDM1_FLT1_IRQHandler                   0x080003bb   Thumb Code     0  startup_stm32f769xx.o(.text)
    DFSDM1_FLT2_IRQHandler                   0x080003bb   Thumb Code     0  startup_stm32f769xx.o(.text)
    DFSDM1_FLT3_IRQHandler                   0x080003bb   Thumb Code     0  startup_stm32f769xx.o(.text)
    DMA1_Stream0_IRQHandler                  0x080003bb   Thumb Code     0  startup_stm32f769xx.o(.text)
    DMA1_Stream1_IRQHandler                  0x080003bb   Thumb Code     0  startup_stm32f769xx.o(.text)
    DMA1_Stream2_IRQHandler                  0x080003bb   Thumb Code     0  startup_stm32f769xx.o(.text)
    DMA1_Stream3_IRQHandler                  0x080003bb   Thumb Code     0  startup_stm32f769xx.o(.text)
    DMA1_Stream4_IRQHandler                  0x080003bb   Thumb Code     0  startup_stm32f769xx.o(.text)
    DMA1_Stream5_IRQHandler                  0x080003bb   Thumb Code     0  startup_stm32f769xx.o(.text)
    DMA1_Stream6_IRQHandler                  0x080003bb   Thumb Code     0  startup_stm32f769xx.o(.text)
    DMA1_Stream7_IRQHandler                  0x080003bb   Thumb Code     0  startup_stm32f769xx.o(.text)
    DMA2D_IRQHandler                         0x080003bb   Thumb Code     0  startup_stm32f769xx.o(.text)
    DMA2_Stream0_IRQHandler                  0x080003bb   Thumb Code     0  startup_stm32f769xx.o(.text)
    DMA2_Stream1_IRQHandler                  0x080003bb   Thumb Code     0  startup_stm32f769xx.o(.text)
    DMA2_Stream2_IRQHandler                  0x080003bb   Thumb Code     0  startup_stm32f769xx.o(.text)
    DMA2_Stream3_IRQHandler                  0x080003bb   Thumb Code     0  startup_stm32f769xx.o(.text)
    DMA2_Stream4_IRQHandler                  0x080003bb   Thumb Code     0  startup_stm32f769xx.o(.text)
    DMA2_Stream5_IRQHandler                  0x080003bb   Thumb Code     0  startup_stm32f769xx.o(.text)
    DMA2_Stream6_IRQHandler                  0x080003bb   Thumb Code     0  startup_stm32f769xx.o(.text)
    DMA2_Stream7_IRQHandler                  0x080003bb   Thumb Code     0  startup_stm32f769xx.o(.text)
    DSI_IRQHandler                           0x080003bb   Thumb Code     0  startup_stm32f769xx.o(.text)
    ETH_IRQHandler                           0x080003bb   Thumb Code     0  startup_stm32f769xx.o(.text)
    ETH_WKUP_IRQHandler                      0x080003bb   Thumb Code     0  startup_stm32f769xx.o(.text)
    EXTI0_IRQHandler                         0x080003bb   Thumb Code     0  startup_stm32f769xx.o(.text)
    EXTI15_10_IRQHandler                     0x080003bb   Thumb Code     0  startup_stm32f769xx.o(.text)
    EXTI1_IRQHandler                         0x080003bb   Thumb Code     0  startup_stm32f769xx.o(.text)
    EXTI2_IRQHandler                         0x080003bb   Thumb Code     0  startup_stm32f769xx.o(.text)
    EXTI3_IRQHandler                         0x080003bb   Thumb Code     0  startup_stm32f769xx.o(.text)
    EXTI4_IRQHandler                         0x080003bb   Thumb Code     0  startup_stm32f769xx.o(.text)
    EXTI9_5_IRQHandler                       0x080003bb   Thumb Code     0  startup_stm32f769xx.o(.text)
    FLASH_IRQHandler                         0x080003bb   Thumb Code     0  startup_stm32f769xx.o(.text)
    FMC_IRQHandler                           0x080003bb   Thumb Code     0  startup_stm32f769xx.o(.text)
    FPU_IRQHandler                           0x080003bb   Thumb Code     0  startup_stm32f769xx.o(.text)
    I2C1_ER_IRQHandler                       0x080003bb   Thumb Code     0  startup_stm32f769xx.o(.text)
    I2C1_EV_IRQHandler                       0x080003bb   Thumb Code     0  startup_stm32f769xx.o(.text)
    I2C2_ER_IRQHandler                       0x080003bb   Thumb Code     0  startup_stm32f769xx.o(.text)
    I2C2_EV_IRQHandler                       0x080003bb   Thumb Code     0  startup_stm32f769xx.o(.text)
    I2C3_ER_IRQHandler                       0x080003bb   Thumb Code     0  startup_stm32f769xx.o(.text)
    I2C3_EV_IRQHandler                       0x080003bb   Thumb Code     0  startup_stm32f769xx.o(.text)
    I2C4_ER_IRQHandler                       0x080003bb   Thumb Code     0  startup_stm32f769xx.o(.text)
    I2C4_EV_IRQHandler                       0x080003bb   Thumb Code     0  startup_stm32f769xx.o(.text)
    JPEG_IRQHandler                          0x080003bb   Thumb Code     0  startup_stm32f769xx.o(.text)
    LPTIM1_IRQHandler                        0x080003bb   Thumb Code     0  startup_stm32f769xx.o(.text)
    LTDC_ER_IRQHandler                       0x080003bb   Thumb Code     0  startup_stm32f769xx.o(.text)
    LTDC_IRQHandler                          0x080003bb   Thumb Code     0  startup_stm32f769xx.o(.text)
    MDIOS_IRQHandler                         0x080003bb   Thumb Code     0  startup_stm32f769xx.o(.text)
    OTG_FS_WKUP_IRQHandler                   0x080003bb   Thumb Code     0  startup_stm32f769xx.o(.text)
    OTG_HS_EP1_IN_IRQHandler                 0x080003bb   Thumb Code     0  startup_stm32f769xx.o(.text)
    OTG_HS_EP1_OUT_IRQHandler                0x080003bb   Thumb Code     0  startup_stm32f769xx.o(.text)
    OTG_HS_IRQHandler                        0x080003bb   Thumb Code     0  startup_stm32f769xx.o(.text)
    OTG_HS_WKUP_IRQHandler                   0x080003bb   Thumb Code     0  startup_stm32f769xx.o(.text)
    PVD_IRQHandler                           0x080003bb   Thumb Code     0  startup_stm32f769xx.o(.text)
    QUADSPI_IRQHandler                       0x080003bb   Thumb Code     0  startup_stm32f769xx.o(.text)
    RCC_IRQHandler                           0x080003bb   Thumb Code     0  startup_stm32f769xx.o(.text)
    RNG_IRQHandler                           0x080003bb   Thumb Code     0  startup_stm32f769xx.o(.text)
    RTC_Alarm_IRQHandler                     0x080003bb   Thumb Code     0  startup_stm32f769xx.o(.text)
    RTC_WKUP_IRQHandler                      0x080003bb   Thumb Code     0  startup_stm32f769xx.o(.text)
    SAI1_IRQHandler                          0x080003bb   Thumb Code     0  startup_stm32f769xx.o(.text)
    SAI2_IRQHandler                          0x080003bb   Thumb Code     0  startup_stm32f769xx.o(.text)
    SDMMC1_IRQHandler                        0x080003bb   Thumb Code     0  startup_stm32f769xx.o(.text)
    SDMMC2_IRQHandler                        0x080003bb   Thumb Code     0  startup_stm32f769xx.o(.text)
    SPDIF_RX_IRQHandler                      0x080003bb   Thumb Code     0  startup_stm32f769xx.o(.text)
    SPI1_IRQHandler                          0x080003bb   Thumb Code     0  startup_stm32f769xx.o(.text)
    SPI2_IRQHandler                          0x080003bb   Thumb Code     0  startup_stm32f769xx.o(.text)
    SPI3_IRQHandler                          0x080003bb   Thumb Code     0  startup_stm32f769xx.o(.text)
    SPI4_IRQHandler                          0x080003bb   Thumb Code     0  startup_stm32f769xx.o(.text)
    SPI5_IRQHandler                          0x080003bb   Thumb Code     0  startup_stm32f769xx.o(.text)
    SPI6_IRQHandler                          0x080003bb   Thumb Code     0  startup_stm32f769xx.o(.text)
    TAMP_STAMP_IRQHandler                    0x080003bb   Thumb Code     0  startup_stm32f769xx.o(.text)
    TIM1_BRK_TIM9_IRQHandler                 0x080003bb   Thumb Code     0  startup_stm32f769xx.o(.text)
    TIM1_CC_IRQHandler                       0x080003bb   Thumb Code     0  startup_stm32f769xx.o(.text)
    TIM1_TRG_COM_TIM11_IRQHandler            0x080003bb   Thumb Code     0  startup_stm32f769xx.o(.text)
    TIM6_DAC_IRQHandler                      0x080003bb   Thumb Code     0  startup_stm32f769xx.o(.text)
    TIM8_BRK_TIM12_IRQHandler                0x080003bb   Thumb Code     0  startup_stm32f769xx.o(.text)
    TIM8_TRG_COM_TIM14_IRQHandler            0x080003bb   Thumb Code     0  startup_stm32f769xx.o(.text)
    TIM8_UP_TIM13_IRQHandler                 0x080003bb   Thumb Code     0  startup_stm32f769xx.o(.text)
    UART7_IRQHandler                         0x080003bb   Thumb Code     0  startup_stm32f769xx.o(.text)
    UART8_IRQHandler                         0x080003bb   Thumb Code     0  startup_stm32f769xx.o(.text)
    WWDG_IRQHandler                          0x080003bb   Thumb Code     0  startup_stm32f769xx.o(.text)
    __user_initial_stackheap                 0x080003bd   Thumb Code     0  startup_stm32f769xx.o(.text)
    malloc                                   0x080003e1   Thumb Code    94  h1_alloc.o(.text)
    free                                     0x0800043f   Thumb Code    78  h1_free.o(.text)
    __aeabi_uldivmod                         0x0800048d   Thumb Code     0  lludivv7m.o(.text)
    _ll_udiv                                 0x0800048d   Thumb Code   238  lludivv7m.o(.text)
    __c89vsprintf                            0x0800057d   Thumb Code    32  c89vsprintf.o(.text)
    abort                                    0x080005a1   Thumb Code    22  abort.o(.text)
    __aeabi_atexit                           0x080005b7   Thumb Code    46  aeabi_atexit.o(.text)
    __aeabi_memcpy4                          0x080005e5   Thumb Code     0  rt_memcpy_w.o(.text)
    __aeabi_memcpy8                          0x080005e5   Thumb Code     0  rt_memcpy_w.o(.text)
    __rt_memcpy_w                            0x080005e5   Thumb Code   100  rt_memcpy_w.o(.text)
    _memcpy_lastbytes_aligned                0x0800062d   Thumb Code     0  rt_memcpy_w.o(.text)
    __use_two_region_memory                  0x08000649   Thumb Code     2  heapauxi.o(.text)
    __rt_heap_escrow                         0x0800064b   Thumb Code     2  heapauxi.o(.text)
    __rt_heap_expand                         0x0800064d   Thumb Code     2  heapauxi.o(.text)
    __cpp_initialize__aeabi_                 0x08000651   Thumb Code    26  init_aeabi.o(.text)
    _sys_exit                                0x08000675   Thumb Code     8  sys_exit.o(.text)
    __rt_heap_descriptor                     0x08000681   Thumb Code     8  rt_heap_descriptor_intlibspace.o(.text)
    __rt_ddtor_pointer_addr                  0x08000689   Thumb Code     8  rt_ddtor_pointer_addr_intlibspace.o(.text)
    __use_no_heap                            0x08000691   Thumb Code     2  hguard.o(.text)
    __heap$guard                             0x08000693   Thumb Code     2  hguard.o(.text)
    _terminate_user_alloc                    0x08000695   Thumb Code     2  init_alloc.o(.text)
    _init_user_alloc                         0x08000697   Thumb Code     2  init_alloc.o(.text)
    __Heap_Full                              0x08000699   Thumb Code    34  init_alloc.o(.text)
    __Heap_Broken                            0x080006bb   Thumb Code     6  init_alloc.o(.text)
    _init_alloc                              0x080006c1   Thumb Code    94  init_alloc.o(.text)
    __Heap_Initialize                        0x0800071f   Thumb Code    10  h1_init.o(.text)
    __Heap_DescSize                          0x08000729   Thumb Code     4  h1_init.o(.text)
    __read_errno                             0x0800072d   Thumb Code    10  _rserrno.o(.text)
    __set_errno                              0x08000737   Thumb Code    12  _rserrno.o(.text)
    _printf_pre_padding                      0x08000743   Thumb Code    44  _printf_pad.o(.text)
    _printf_post_padding                     0x0800076f   Thumb Code    34  _printf_pad.o(.text)
    _printf_truncate_signed                  0x08000791   Thumb Code    18  _printf_truncate.o(.text)
    _printf_truncate_unsigned                0x080007a3   Thumb Code    18  _printf_truncate.o(.text)
    _printf_str                              0x080007b5   Thumb Code    82  _printf_str.o(.text)
    _printf_int_dec                          0x08000809   Thumb Code   104  _printf_dec.o(.text)
    _printf_charcount                        0x08000881   Thumb Code    40  _printf_charcount.o(.text)
    _printf_char_common                      0x080008b3   Thumb Code    32  _printf_char_common.o(.text)
    _sputc                                   0x080008d9   Thumb Code    10  _sputc.o(.text)
    _printf_wctomb                           0x080008e5   Thumb Code   182  _printf_wctomb.o(.text)
    _printf_longlong_dec                     0x080009a1   Thumb Code   108  _printf_longlong_dec.o(.text)
    _printf_longlong_oct                     0x08000a1d   Thumb Code    66  _printf_oct_int_ll.o(.text)
    _printf_int_oct                          0x08000a5f   Thumb Code    24  _printf_oct_int_ll.o(.text)
    _printf_ll_oct                           0x08000a77   Thumb Code    12  _printf_oct_int_ll.o(.text)
    _printf_longlong_hex                     0x08000a8d   Thumb Code    86  _printf_hex_int_ll_ptr.o(.text)
    _printf_int_hex                          0x08000ae3   Thumb Code    28  _printf_hex_int_ll_ptr.o(.text)
    _printf_ll_hex                           0x08000aff   Thumb Code    12  _printf_hex_int_ll_ptr.o(.text)
    _printf_hex_ptr                          0x08000b0b   Thumb Code    18  _printf_hex_int_ll_ptr.o(.text)
    __printf                                 0x08000b21   Thumb Code   388  __printf_flags_ss_wp.o(.text)
    __cxa_finalize                           0x08000ca9   Thumb Code    66  cxa_finalize.o(.text)
    __rt_SIGABRT                             0x08000ceb   Thumb Code    14  defsig_abrt_outer.o(.text)
    __user_libspace                          0x08000cf9   Thumb Code     8  libspace.o(.text)
    __user_perproc_libspace                  0x08000cf9   Thumb Code     0  libspace.o(.text)
    __user_perthread_libspace                0x08000cf9   Thumb Code     0  libspace.o(.text)
    __I$use$semihosting                      0x08000d01   Thumb Code     0  use_no_semi.o(.text)
    __use_no_semihosting_swi                 0x08000d01   Thumb Code     2  use_no_semi.o(.text)
    __semihosting_library_function           0x08000d03   Thumb Code     0  indicate_semi.o(.text)
    __aeabi_errno_addr                       0x08000d05   Thumb Code     8  rt_errno_addr_intlibspace.o(.text)
    __errno$intlibspace                      0x08000d05   Thumb Code     0  rt_errno_addr_intlibspace.o(.text)
    __rt_errno_addr$intlibspace              0x08000d05   Thumb Code     0  rt_errno_addr_intlibspace.o(.text)
    __Heap_ProvideMemory                     0x08000d0d   Thumb Code    52  h1_extend.o(.text)
    _ll_udiv10                               0x08000d41   Thumb Code   138  lludiv10.o(.text)
    _printf_int_common                       0x08000dcb   Thumb Code   178  _printf_intcommon.o(.text)
    __lib_sel_fp_printf                      0x08000e7d   Thumb Code     2  _printf_fp_dec.o(.text)
    _printf_fp_dec_real                      0x0800102f   Thumb Code   620  _printf_fp_dec.o(.text)
    _printf_cs_common                        0x0800129b   Thumb Code    20  _printf_char.o(.text)
    _printf_char                             0x080012af   Thumb Code    16  _printf_char.o(.text)
    _printf_string                           0x080012bf   Thumb Code     8  _printf_char.o(.text)
    _printf_lcs_common                       0x080012c7   Thumb Code    20  _printf_wchar.o(.text)
    _printf_wchar                            0x080012db   Thumb Code    16  _printf_wchar.o(.text)
    _printf_wstring                          0x080012eb   Thumb Code     8  _printf_wchar.o(.text)
    _wcrtomb                                 0x080012f3   Thumb Code    64  _wcrtomb.o(.text)
    __sig_exit                               0x08001333   Thumb Code    10  defsig_exit.o(.text)
    __rt_SIGABRT_inner                       0x0800133d   Thumb Code    14  defsig_abrt_inner.o(.text)
    __rt_SIGRTMEM                            0x0800136d   Thumb Code    14  defsig_rtmem_outer.o(.text)
    __user_setup_stackheap                   0x0800137b   Thumb Code    74  sys_stackheap_outer.o(.text)
    __rt_ctype_table                         0x080013c5   Thumb Code    16  rt_ctype_table.o(.text)
    __rt_locale                              0x080013d5   Thumb Code     8  rt_locale_intlibspace.o(.text)
    _printf_fp_infnan                        0x080013dd   Thumb Code   112  _printf_fp_infnan.o(.text)
    _btod_etento                             0x0800145d   Thumb Code   224  bigflt0.o(.text)
    exit                                     0x08001541   Thumb Code    18  exit.o(.text)
    __default_signal_display                 0x08001553   Thumb Code    50  defsig_general.o(.text)
    __rt_SIGRTMEM_inner                      0x08001585   Thumb Code    22  defsig_rtmem_inner.o(.text)
    _ttywrch                                 0x080015d5   Thumb Code    14  sys_wrch.o(.text)
    strcmp                                   0x080015e5   Thumb Code   104  strcmpv7m_pel.o(.text)
    _btod_d2e                                0x0800164d   Thumb Code    62  btod.o(CL$$btod_d2e)
    _d2e_denorm_low                          0x0800168b   Thumb Code    70  btod.o(CL$$btod_d2e_denorm_low)
    _d2e_norm_op1                            0x080016d1   Thumb Code    96  btod.o(CL$$btod_d2e_norm_op1)
    __btod_div_common                        0x08001731   Thumb Code   696  btod.o(CL$$btod_div_common)
    _e2e                                     0x08001a69   Thumb Code   220  btod.o(CL$$btod_e2e)
    _btod_ediv                               0x08001b45   Thumb Code    42  btod.o(CL$$btod_ediv)
    _btod_emul                               0x08001b6f   Thumb Code    42  btod.o(CL$$btod_emul)
    __btod_mult_common                       0x08001b99   Thumb Code   580  btod.o(CL$$btod_mult_common)
    ADC_IRQHandler                           0x08001ddd   Thumb Code    20  lib.o(i.ADC_IRQHandler)
    OTG_FS_IRQHandler                        0x08001df9   Thumb Code    22  lib.o(i.OTG_FS_IRQHandler)
    PendSV_Handler                           0x08001e15   Thumb Code    36  lib.o(i.PendSV_Handler)
    SysTick_Handler                          0x08001e41   Thumb Code    46  lib.o(i.SysTick_Handler)
    SystemInit                               0x08001e7d   Thumb Code   384  lib.o(i.SystemInit)
    TIM1_UP_TIM10_IRQHandler                 0x08002019   Thumb Code    38  lib.o(i.TIM1_UP_TIM10_IRQHandler)
    TIM2_IRQHandler                          0x0800204d   Thumb Code     8  lib.o(i.TIM2_IRQHandler)
    TIM3_IRQHandler                          0x08002059   Thumb Code     8  lib.o(i.TIM3_IRQHandler)
    TIM4_IRQHandler                          0x08002065   Thumb Code     8  lib.o(i.TIM4_IRQHandler)
    TIM5_IRQHandler                          0x08002071   Thumb Code     8  lib.o(i.TIM5_IRQHandler)
    TIM7_IRQHandler                          0x0800207d   Thumb Code     8  lib.o(i.TIM7_IRQHandler)
    TIM8_CC_IRQHandler                       0x08002089   Thumb Code     8  lib.o(i.TIM8_CC_IRQHandler)
    UART4_IRQHandler                         0x08002095   Thumb Code     8  lib.o(i.UART4_IRQHandler)
    UART5_IRQHandler                         0x080020a1   Thumb Code     8  lib.o(i.UART5_IRQHandler)
    USART1_IRQHandler                        0x080020ad   Thumb Code     8  lib.o(i.USART1_IRQHandler)
    USART2_IRQHandler                        0x080020b9   Thumb Code     8  lib.o(i.USART2_IRQHandler)
    USART3_IRQHandler                        0x080020c5   Thumb Code     8  lib.o(i.USART3_IRQHandler)
    USART6_IRQHandler                        0x080020d1   Thumb Code     8  lib.o(i.USART6_IRQHandler)
    Controller::beforeGame(cDevControlPointer::cData) 0x080020f7   Thumb Code   132  main.o(i._ZN10Controller10beforeGameEN18cDevControlPointer5cDataE)
    Controller::duringGame(cDevControlPointer::cData) 0x0800217b   Thumb Code   170  main.o(i._ZN10Controller10duringGameEN18cDevControlPointer5cDataE)
    Controller::setupField()                 0x08002225   Thumb Code   142  main.o(i._ZN10Controller10setupFieldEv)
    cDevAnalog::cDevAnalog(unsigned char, float, float) 0x080022b3   Thumb Code    12  lib.o(i._ZN10cDevAnalogC1Ehff)
    cDevAnalog::cDevAnalog__sub_object(unsigned char, float, float) 0x080022b3   Thumb Code     0  lib.o(i._ZN10cDevAnalogC1Ehff)
    cHwDisplay::cHwDisplay__sub_object(unsigned char, unsigned char) 0x080022c1   Thumb Code    10  lib.o(i._ZN10cHwDisplayC2Ehh)
    cHwTimer_N::isr_N()                      0x080022d1   Thumb Code    12  lib.o(i._ZN10cHwTimer_N5isr_NEv)
    cHwTimer_N::cHwTimer_N(cHwTimer_N::TimerId, unsigned) 0x080022dd   Thumb Code   442  lib.o(i._ZN10cHwTimer_NC1ENS_7TimerIdEj)
    cHwTimer_N::cHwTimer_N__sub_object(cHwTimer_N::TimerId, unsigned) 0x080022dd   Thumb Code     0  lib.o(i._ZN10cHwTimer_NC1ENS_7TimerIdEj)
    cDevDigital::get()                       0x080024ed   Thumb Code    26  lib.o(i._ZN11cDevDigital3getEv)
    cDevDigital::set(bool)                   0x08002507   Thumb Code    20  lib.o(i._ZN11cDevDigital3setEb)
    cDevDigital::getEvent()                  0x0800251b   Thumb Code    38  lib.o(i._ZN11cDevDigital8getEventEv)
    cDevDigital::cDevDigital(cHwPort&, unsigned char, cDevDigital::Mode, bool) 0x08002541   Thumb Code    56  lib.o(i._ZN11cDevDigitalC1ER7cHwPorthNS_4ModeEb)
    cDevDigital::cDevDigital__sub_object(cHwPort&, unsigned char, cDevDigital::Mode, bool) 0x08002541   Thumb Code     0  lib.o(i._ZN11cDevDigitalC1ER7cHwPorthNS_4ModeEb)
    cHwRTOS_MCU::deleteFunc()                0x0800257d   Thumb Code     2  rtos.o(i._ZN11cHwRTOS_MCU10deleteFuncEv)
    cHwRTOS_MCU::getSysTime()                0x08002581   Thumb Code    26  rtos.o(i._ZN11cHwRTOS_MCU10getSysTimeEv)
    cDevAnalogIn::get()                      0x080025a5   Thumb Code    34  lib.o(i._ZN12cDevAnalogIn3getEv)
    cDevAnalogIn::cDevAnalogIn__sub_object(unsigned char, float, float) 0x080025c9   Thumb Code    28  lib.o(i._ZN12cDevAnalogInC2Ehff)
    cHwI2Cmaster::read(unsigned char, unsigned char*, unsigned char, unsigned char*, unsigned char) 0x080025ed   Thumb Code   170  lib.o(i._ZN12cHwI2Cmaster4readEhPhhS0_h)
    cHwI2Cmaster::Device::read(unsigned char, unsigned char*, unsigned char) 0x08002697   Thumb Code    34  lib.o(i._ZN12cHwI2Cmaster6Device4readEhPhh)
    cHwI2Cmaster::Device::isError()          0x080026b9   Thumb Code    10  lib.o(i._ZN12cHwI2Cmaster6Device7isErrorEv)
    cHwI2Cmaster::cHwI2Cmaster__sub_object(unsigned char) 0x080026c5   Thumb Code    12  lib.o(i._ZN12cHwI2CmasterC2Eh)
    cHwPinConfig::set(cHwPinConfig::Function, unsigned) 0x080026d5   Thumb Code    88  lib.o(i._ZN12cHwPinConfig3setENS_8FunctionEj)
    cHwPinConfig::set(GPIO_TypeDef*, unsigned char, unsigned, unsigned char) 0x08002739   Thumb Code   142  lib.o(i._ZN12cHwPinConfig3setEP12GPIO_TypeDefhjh)
    cTaskHandler::Task::Task__sub_object(cTaskHandler&) 0x080027c9   Thumb Code    30  lib.o(i._ZN12cTaskHandler4TaskC2ERS_)
    cTaskHandler::update()                   0x080027ed   Thumb Code     8  lib.o(i._ZN12cTaskHandler6updateEv)
    cTaskHandler::addTask(cTaskHandler::Task*) 0x080027f5   Thumb Code    22  lib.o(i._ZN12cTaskHandler7addTaskEPNS_4TaskE)
    cTaskHandler::cTaskHandler(cHwTimer*)    0x0800280d   Thumb Code    64  lib.o(i._ZN12cTaskHandlerC1EP8cHwTimer)
    cTaskHandler::cTaskHandler__sub_object(cHwTimer*) 0x0800280d   Thumb Code     0  lib.o(i._ZN12cTaskHandlerC1EP8cHwTimer)
    cDevAnalogOut::set(float)                0x08002851   Thumb Code    70  lib.o(i._ZN13cDevAnalogOut3setEf)
    cDevAnalogOut::cDevAnalogOut__sub_object(unsigned char, float, float) 0x080028a1   Thumb Code    52  lib.o(i._ZN13cDevAnalogOutC2Ehff)
    cTask_Example::update()                  0x080028dd   Thumb Code     8  main.o(i._ZN13cTask_Example6updateEv)
    cHwDisplayFont::setChar(unsigned char)   0x080028e5   Thumb Code    34  lib.o(i._ZN14cHwDisplayFont7setCharEh)
    cHwDisplayFont::getPixel(unsigned char, unsigned char) 0x08002907   Thumb Code    44  lib.o(i._ZN14cHwDisplayFont8getPixelEhh)
    cHwDisplayFont::cHwDisplayFont(const cHwDisplayFontProperties*, const unsigned char*) 0x08002933   Thumb Code     8  lib.o(i._ZN14cHwDisplayFontC1EPK24cHwDisplayFontPropertiesPKh)
    cHwDisplayFont::cHwDisplayFont__sub_object(const cHwDisplayFontProperties*, const unsigned char*) 0x08002933   Thumb Code     0  lib.o(i._ZN14cHwDisplayFontC1EPK24cHwDisplayFontPropertiesPKh)
    cHwI2Cmaster_N::readByteAck()            0x0800293b   Thumb Code     4  lib.o(i._ZN14cHwI2Cmaster_N11readByteAckEv)
    cHwI2Cmaster_N::readByteNack()           0x0800293f   Thumb Code     4  lib.o(i._ZN14cHwI2Cmaster_N12readByteNackEv)
    cHwI2Cmaster_N::read(unsigned char, unsigned char*, unsigned char, unsigned char*, unsigned char) 0x08002943   Thumb Code   166  lib.o(i._ZN14cHwI2Cmaster_N4readEhPhhS0_h)
    cHwI2Cmaster_N::stop()                   0x080029e9   Thumb Code     2  lib.o(i._ZN14cHwI2Cmaster_N4stopEv)
    cHwI2Cmaster_N::start()                  0x080029eb   Thumb Code     2  lib.o(i._ZN14cHwI2Cmaster_N5startEv)
    cHwI2Cmaster_N::sendAddr(unsigned char)  0x080029ed   Thumb Code     2  lib.o(i._ZN14cHwI2Cmaster_N8sendAddrEh)
    cHwI2Cmaster_N::writeByte(unsigned char) 0x080029ef   Thumb Code     2  lib.o(i._ZN14cHwI2Cmaster_N9writeByteEh)
    cHwI2Cmaster_N::cHwI2Cmaster_N(cHwI2Cmaster_N::I2C_ID, cHwI2Cmaster::MODE, unsigned char) 0x080029f1   Thumb Code   294  lib.o(i._ZN14cHwI2Cmaster_NC1ENS_6I2C_IDEN12cHwI2Cmaster4MODEEh)
    cHwI2Cmaster_N::cHwI2Cmaster_N__sub_object(cHwI2Cmaster_N::I2C_ID, cHwI2Cmaster::MODE, unsigned char) 0x080029f1   Thumb Code     0  lib.o(i._ZN14cHwI2Cmaster_NC1ENS_6I2C_IDEN12cHwI2Cmaster4MODEEh)
    cDevAnalogInADC::getRaw()                0x08002b35   Thumb Code    10  lib.o(i._ZN15cDevAnalogInADC6getRawEv)
    cDevAnalogInADC::cDevAnalogInADC(cHwADC&, unsigned char, float, float, unsigned char) 0x08002b41   Thumb Code    36  lib.o(i._ZN15cDevAnalogInADCC1ER6cHwADChffh)
    cDevAnalogInADC::cDevAnalogInADC__sub_object(cHwADC&, unsigned char, float, float, unsigned char) 0x08002b41   Thumb Code     0  lib.o(i._ZN15cDevAnalogInADCC1ER6cHwADChffh)
    cHwTouch_FT6206::update()                0x08002b69   Thumb Code    90  touch_ft6206.o(i._ZN15cHwTouch_FT62066updateEv)
    cHwTouch_FT6206::cHwTouch_FT6206(cHwI2Cmaster&) 0x08002bc5   Thumb Code    40  touch_ft6206.o(i._ZN15cHwTouch_FT6206C1ER12cHwI2Cmaster)
    cHwTouch_FT6206::cHwTouch_FT6206__sub_object(cHwI2Cmaster&) 0x08002bc5   Thumb Code     0  touch_ft6206.o(i._ZN15cHwTouch_FT6206C1ER12cHwI2Cmaster)
    cDevAnalogOutDAC::setRaw(unsigned short) 0x08002bf5   Thumb Code    10  lib.o(i._ZN16cDevAnalogOutDAC6setRawEt)
    cDevAnalogOutDAC::cDevAnalogOutDAC(cHwDAC&, unsigned char, float, float) 0x08002c01   Thumb Code    32  lib.o(i._ZN16cDevAnalogOutDACC1ER6cHwDAChff)
    cDevAnalogOutDAC::cDevAnalogOutDAC__sub_object(cHwDAC&, unsigned char, float, float) 0x08002c01   Thumb Code     0  lib.o(i._ZN16cDevAnalogOutDACC1ER6cHwDAChff)
    cHwDisp_OTM8009A::init()                 0x08002c25   Thumb Code  1976  disp_otm8009a.o(i._ZN16cHwDisp_OTM8009A4initEv)
    cHwDisp_OTM8009A::cHwDisp_OTM8009A__sub_object(cHwDSI&, cHwPort::Pin&, cHwDisp_OTM8009A::Orientation, cHwDisplayFont, unsigned char) 0x08003485   Thumb Code   114  disp_otm8009a.o(i._ZN16cHwDisp_OTM8009AC2ER6cHwDSIRN7cHwPort3PinENS_11OrientationE14cHwDisplayFonth)
    cHwDisplayGraphic::gotoTextPos(unsigned char, unsigned char) 0x080034fd   Thumb Code    40  lib.o(i._ZN17cHwDisplayGraphic11gotoTextPosEhh)
    cHwDisplayGraphic::gotoPixelPos(unsigned short, unsigned short) 0x08003525   Thumb Code     6  lib.o(i._ZN17cHwDisplayGraphic12gotoPixelPosEtt)
    cHwDisplayGraphic::putRectangle(unsigned short, unsigned short, unsigned short, unsigned short) 0x0800352b   Thumb Code    64  lib.o(i._ZN17cHwDisplayGraphic12putRectangleEtttt)
    cHwDisplayGraphic::setBackColor(unsigned short) 0x0800356b   Thumb Code     4  lib.o(i._ZN17cHwDisplayGraphic12setBackColorEt)
    cHwDisplayGraphic::setPaintColor(unsigned short) 0x0800356f   Thumb Code     4  lib.o(i._ZN17cHwDisplayGraphic13setPaintColorEt)
    cHwDisplayGraphic::putChar(char)         0x08003573   Thumb Code   190  lib.o(i._ZN17cHwDisplayGraphic7putCharEc)
    cHwDisplayGraphic::refresh()             0x08003631   Thumb Code     2  lib.o(i._ZN17cHwDisplayGraphic7refreshEv)
    cHwDisplayGraphic::putPixel(unsigned short, unsigned short) 0x08003633   Thumb Code    20  lib.o(i._ZN17cHwDisplayGraphic8putPixelEtt)
    cHwDisplayGraphic::cHwDisplayGraphic__sub_object(cHwDisplayFont, unsigned char) 0x08003649   Thumb Code    56  lib.o(i._ZN17cHwDisplayGraphicC2E14cHwDisplayFonth)
    cRtosTask_Example::OnStop()              0x08003685   Thumb Code     2  main.o(i._ZN17cRtosTask_Example6OnStopEv)
    cRtosTask_Example::update()              0x08003689   Thumb Code    50  main.o(i._ZN17cRtosTask_Example6updateEv)
    cRtosTask_Example::OnStart()             0x080036c1   Thumb Code    10  main.o(i._ZN17cRtosTask_Example7OnStartEv)
    cRtosTask_Example::~cRtosTask_Example()  0x080036cb   Thumb Code     4  main.o(i._ZN17cRtosTask_ExampleD1Ev)
    cRtosTask_Example::~cRtosTask_Example__sub_object() 0x080036cb   Thumb Code     0  main.o(i._ZN17cRtosTask_ExampleD1Ev)
    cDevControlEncoder::get()                0x080036cf   Thumb Code    82  lib.o(i._ZN18cDevControlEncoder3getEv)
    cDevControlEncoder::update()             0x08003721   Thumb Code   112  lib.o(i._ZN18cDevControlEncoder6updateEv)
    cDevControlEncoder::getCtrl()            0x08003791   Thumb Code    34  lib.o(i._ZN18cDevControlEncoder7getCtrlEv)
    cDevControlEncoder::cDevControlEncoder__sub_object(cDevDigital*, cHwTimer*) 0x080037b5   Thumb Code    60  lib.o(i._ZN18cDevControlEncoderC2EP11cDevDigitalP8cHwTimer)
    cDevControlPointer::get()                0x080037f5   Thumb Code   236  lib.o(i._ZN18cDevControlPointer3getEv)
    cDevControlPointer::cDevControlPointer(cHwTouch&) 0x080038e1   Thumb Code    18  lib.o(i._ZN18cDevControlPointerC1ER8cHwTouch)
    cDevControlPointer::cDevControlPointer__sub_object(cHwTouch&) 0x080038e1   Thumb Code     0  lib.o(i._ZN18cDevControlPointerC1ER8cHwTouch)
    cDevDisplayGraphic::drawCircle(unsigned short, unsigned short, unsigned short, unsigned short) 0x080038f9   Thumb Code   138  lib.o(i._ZN18cDevDisplayGraphic10drawCircleEtttt)
    cDevDisplayGraphic::setBackColor(unsigned short) 0x08003983   Thumb Code     8  lib.o(i._ZN18cDevDisplayGraphic12setBackColorEt)
    cDevDisplayGraphic::drawRectangle(unsigned short, unsigned short, unsigned short, unsigned short, unsigned short) 0x0800398b   Thumb Code    48  lib.o(i._ZN18cDevDisplayGraphic13drawRectangleEttttt)
    cDevDisplayGraphic::clear()              0x080039bb   Thumb Code     8  lib.o(i._ZN18cDevDisplayGraphic5clearEv)
    cDevDisplayGraphic::printf(unsigned char, unsigned char, unsigned char, const char*, ...) 0x080039c3   Thumb Code    86  lib.o(i._ZN18cDevDisplayGraphic6printfEhhhPKcz)
    cDevDisplayGraphic::refresh()            0x08003a19   Thumb Code     8  lib.o(i._ZN18cDevDisplayGraphic7refreshEv)
    cDevDisplayGraphic::drawLine(unsigned short, unsigned short, unsigned short, unsigned short, unsigned short, unsigned short) 0x08003a21   Thumb Code   350  lib.o(i._ZN18cDevDisplayGraphic8drawLineEtttttt)
