Component: ARM Compiler 5.06 update 5 (build 528) Tool: armlink [4d35e2]

==============================================================================

Section Cross References

    main.o(i.__sti___8_main_cpp_sys) refers to lib.o(i._ZN7cSystemC1Eh) for cSystem::cSystem(unsigned char)
    main.o(i.__sti___8_main_cpp_sys) refers to lib.o(i._ZN10cHwTimer_NC1ENS_7TimerIdEj) for cHwTimer_N::cHwTimer_N(cHwTimer_N::TimerId, unsigned)
    main.o(i.__sti___8_main_cpp_sys) refers to lib.o(i._ZN9cHwPort_NC1ENS_6PortIdE) for cHwPort_N::cHwPort_N(cHwPort_N::PortId)
    main.o(i.__sti___8_main_cpp_sys) refers to lib.o(i._ZN8cHwADC_0C1EP8cHwTimer) for cHwADC_0::cHwADC_0(cHwTimer*)
    main.o(i.__sti___8_main_cpp_sys) refers to lib.o(i._ZN8cHwDAC_0C1Ev) for cHwDAC_0::cHwDAC_0()
    main.o(i.__sti___8_main_cpp_sys) refers to lib.o(i._ZN14cHwSPImaster_NC1ENS_6SPI_IDEN12cHwSPImaster4MODEENS1_11ClockPolPhaE) for cHwSPImaster_N::cHwSPImaster_N(cHwSPImaster_N::SPI_ID, cHwSPImaster::MODE, cHwSPImaster::ClockPolPha)
    main.o(i.__sti___8_main_cpp_sys) refers to main.o(i._ZN12cHwSPImaster6DeviceC1ERS_R7cHwPorth) for cHwSPImaster::Device::Device(cHwSPImaster&, cHwPort&, unsigned char)
    main.o(i.__sti___8_main_cpp_sys) refers to disp_dip204spi.o(i._ZN17cHwDisp_DIP204spiC1ERN12cHwSPImaster6DeviceE) for cHwDisp_DIP204spi::cHwDisp_DIP204spi(cHwSPImaster::Device&)
    main.o(i.__sti___8_main_cpp_sys) refers to lib.o(i._ZN15cDevDisplayCharC1ER10cHwDisplay) for cDevDisplayChar::cDevDisplayChar(cHwDisplay&)
    main.o(i.__sti___8_main_cpp_sys) refers to lib.o(i._ZN11cDevDigitalC1ER7cHwPorthNS_4ModeEb) for cDevDigital::cDevDigital(cHwPort&, unsigned char, cDevDigital::Mode, bool)
    main.o(i.__sti___8_main_cpp_sys) refers to lib.o(i._ZN28cDevControlEncoderRotaryKnobC1EP11cDevDigitalS1_S1_P8cHwTimer) for cDevControlEncoderRotaryKnob::cDevControlEncoderRotaryKnob(cDevDigital*, cDevDigital*, cDevDigital*, cHwTimer*)
    main.o(i.__sti___8_main_cpp_sys) refers to main.o(.data) for sys
    main.o(i.__sti___8_main_cpp_sys) refers to main.o(.bss) for timerFast
    main.o(i.main) refers to lib.o(i._ZN15cDevDisplayChar6printfEhhhPKcz) for cDevDisplayChar::printf(unsigned char, unsigned char, unsigned char, const char*, ...)
    main.o(i.main) refers to lib.o(i._ZN11cDevDigital3getEv) for cDevDigital::get()
    main.o(i.main) refers to lib.o(i._ZN18cDevControlEncoder3getEv) for cDevControlEncoder::get()
    main.o(i.main) refers to lib.o(i._ZN11cDevDigital3setEb) for cDevDigital::set(bool)
    main.o(i.main) refers to lib.o(i._ZN15cDevDisplayChar7refreshEv) for cDevDisplayChar::refresh()
    main.o(i.main) refers to main.o(.data) for adc
    main.o(i.main) refers to main.o(.bss) for btnPlus
    main.o(.ARM.exidx) refers to main.o(i.main) for i.main
    main.o(.ARM.exidx) refers to main.o(i.__sti___8_main_cpp_sys) for i.__sti___8_main_cpp_sys
    main.o(.data) refers to main.o(.bss) for adc0
    main.o(.init_array) refers to main.o(i.__sti___8_main_cpp_sys) for __sti___8_main_cpp_sys
    main.o(.init_array) refers to init_aeabi.o(.text) for __cpp_initialize__aeabi_
    lib.o(i.ADC1_IRQHandler) refers to lib.o(.data) for cHwADC_0::adcPtr
    lib.o(i.PendSV_Handler) refers to rtoscontext.o(.text) for save_context
    lib.o(i.PendSV_Handler) refers to lib.o(.data) for stackPointer
    lib.o(i.SysTick_Handler) refers to rtoscontext.o(.text) for save_context
    lib.o(i.SysTick_Handler) refers to lib.o(.data) for stackPointer
    lib.o(i.TIM2_IRQHandler) refers to lib.o(i._ZN10cHwTimer_N3isrEv) for cHwTimer_N::isr()
    lib.o(i.TIM2_IRQHandler) refers to lib.o(.data) for cHwTimer_N::timerPtr_2
    lib.o(i.TIM3_IRQHandler) refers to lib.o(i._ZN10cHwTimer_N3isrEv) for cHwTimer_N::isr()
    lib.o(i.TIM3_IRQHandler) refers to lib.o(.data) for cHwTimer_N::timerPtr_3
    lib.o(i.TIM4_IRQHandler) refers to lib.o(i._ZN10cHwTimer_N3isrEv) for cHwTimer_N::isr()
    lib.o(i.TIM4_IRQHandler) refers to lib.o(.data) for cHwTimer_N::timerPtr_4
    lib.o(i.TIM5_IRQHandler) refers to lib.o(i._ZN10cHwTimer_N3isrEv) for cHwTimer_N::isr()
    lib.o(i.TIM5_IRQHandler) refers to lib.o(.data) for cHwTimer_N::timerPtr_5
    lib.o(i.TIM6_IRQHandler) refers to lib.o(i._ZN10cHwTimer_N3isrEv) for cHwTimer_N::isr()
    lib.o(i.TIM6_IRQHandler) refers to lib.o(.data) for cHwTimer_N::timerPtr_6
    lib.o(i.TIM7_IRQHandler) refers to lib.o(i._ZN10cHwTimer_N3isrEv) for cHwTimer_N::isr()
    lib.o(i.TIM7_IRQHandler) refers to lib.o(.data) for cHwTimer_N::timerPtr_7
    lib.o(i.USART1_IRQHandler) refers to lib.o(i._ZN9cHwUART_N3isrEv) for cHwUART_N::isr()
    lib.o(i.USART1_IRQHandler) refers to lib.o(.data) for cHwUART_N::uartPtr_1
    lib.o(i.USART2_IRQHandler) refers to lib.o(i._ZN9cHwUART_N3isrEv) for cHwUART_N::isr()
    lib.o(i.USART2_IRQHandler) refers to lib.o(.data) for cHwUART_N::uartPtr_2
    lib.o(i.USART3_IRQHandler) refers to lib.o(i._ZN9cHwUART_N3isrEv) for cHwUART_N::isr()
    lib.o(i.USART3_IRQHandler) refers to lib.o(.data) for cHwUART_N::uartPtr_3
    lib.o(i.USB_LP_IRQHandler) refers to lib.o(i._ZN8cHwUSB_03isrEv) for cHwUSB_0::isr()
    lib.o(i.USB_LP_IRQHandler) refers to lib.o(.data) for cHwUSB_0::usbPtr
    lib.o(i._Z4ntohj) refers to lib.o(i._Z4htonj) for hton(unsigned)
    lib.o(i._Z4ntoht) refers to lib.o(i._Z4htont) for hton(unsigned short)
    lib.o(i._ZN10cDevTextIO6printfEPKcz) refers to c89vsnprintf.o(.text) for __c89vsnprintf
    lib.o(i._ZN10cDevTextIO6printfEPKcz) refers to strlen.o(.text) for strlen
    lib.o(i._ZN10cDevTextIO9getStringEv) refers to strchr.o(.text) for strchr
    lib.o(i._ZN10cDevTextIOC2EhhPKcS1_) refers to lib.o(i._Znaj) for operator new[] (unsigned)
    lib.o(i._ZN10cDevTextIOC2EhhPKcS1_) refers to lib.o(.constdata__ZTV10cDevTextIO) for vtable for cDevTextIO
    lib.o(i._ZN10cHwDisplayC2Ehh) refers to lib.o(.constdata__ZTV10cHwDisplay) for vtable for cHwDisplay
    lib.o(i._ZN10cHwTimer_N9enablePWMEhN8cHwTimer4ModeE) refers to lib.o(i._ZN12cHwPinConfig3setENS_8FunctionEj) for cHwPinConfig::set(cHwPinConfig::Function, unsigned)
    lib.o(i._ZN10cHwTimer_NC1ENS_7TimerIdEj) refers to lib.o(i._ZN5cListC1Ev) for cList::cList()
    lib.o(i._ZN10cHwTimer_NC1ENS_7TimerIdEj) refers to lib.o(i._Z16__NVIC_EnableIRQ4IRQn) for __NVIC_EnableIRQ(IRQn)
    lib.o(i._ZN10cHwTimer_NC1ENS_7TimerIdEj) refers to fflt_clz.o(x$fpl$ffltu) for __aeabi_ui2f
    lib.o(i._ZN10cHwTimer_NC1ENS_7TimerIdEj) refers to fmul.o(x$fpl$fmul) for __aeabi_fmul
    lib.o(i._ZN10cHwTimer_NC1ENS_7TimerIdEj) refers to fdiv.o(x$fpl$fdiv) for __aeabi_fdiv
    lib.o(i._ZN10cHwTimer_NC1ENS_7TimerIdEj) refers to frleqf.o(x$fpl$frleqf) for __aeabi_cfrcmple
    lib.o(i._ZN10cHwTimer_NC1ENS_7TimerIdEj) refers to ffixu.o(x$fpl$ffixu) for __aeabi_f2uiz
    lib.o(i._ZN10cHwTimer_NC1ENS_7TimerIdEj) refers to dflt_clz.o(x$fpl$dfltu) for __aeabi_ui2d
    lib.o(i._ZN10cHwTimer_NC1ENS_7TimerIdEj) refers to dmul.o(x$fpl$dmul) for __aeabi_dmul
    lib.o(i._ZN10cHwTimer_NC1ENS_7TimerIdEj) refers to ddiv.o(x$fpl$ddiv) for __aeabi_ddiv
    lib.o(i._ZN10cHwTimer_NC1ENS_7TimerIdEj) refers to dfixu.o(x$fpl$dfixu) for __aeabi_d2uiz
    lib.o(i._ZN10cHwTimer_NC1ENS_7TimerIdEj) refers to lib.o(.constdata__ZTV8cHwTimer) for vtable for cHwTimer
    lib.o(i._ZN10cHwTimer_NC1ENS_7TimerIdEj) refers to lib.o(.constdata__ZTV10cHwTimer_N) for vtable for cHwTimer_N
    lib.o(i._ZN10cHwTimer_NC1ENS_7TimerIdEj) refers to lib.o(.data) for cHwTimer_N::timerPtr_2
    lib.o(i._ZN10cHwUSBctrl2inEv) refers to lib.o(i._ZN14cHwUSBendpoint9writeDataEv) for cHwUSBendpoint::writeData()
    lib.o(i._ZN10cHwUSBctrl2inEv) refers to lib.o(i._ZN14cHwUSBendpoint6inCtrlEv) for cHwUSBendpoint::inCtrl()
    lib.o(i._ZN10cHwUSBctrl3outEv) refers to lib.o(i._ZN14cHwUSBendpoint7outCtrlEv) for cHwUSBendpoint::outCtrl()
    lib.o(i._ZN10cHwUSBctrl5setupEv) refers to lib.o(i._ZN10cHwUSBctrl9ReqDeviceEv) for cHwUSBctrl::ReqDevice()
    lib.o(i._ZN10cHwUSBctrl5setupEv) refers to lib.o(i._ZN10cHwUSBctrl12ReqInterfaceEv) for cHwUSBctrl::ReqInterface()
    lib.o(i._ZN10cHwUSBctrl5setupEv) refers to lib.o(i._ZN10cHwUSBctrl11ReqEndpointEv) for cHwUSBctrl::ReqEndpoint()
    lib.o(i._ZN10cHwUSBctrlC1ER6cHwUSB) refers to lib.o(i._ZN14cHwUSBendpointC1ER6cHwUSBht) for cHwUSBendpoint::cHwUSBendpoint(cHwUSB&, unsigned char, unsigned short)
    lib.o(i._ZN10cHwUSBctrlC1ER6cHwUSB) refers to lib.o(.constdata__ZTV10cHwUSBctrl) for vtable for cHwUSBctrl
    lib.o(i._ZN10cHwUSBdesc16getDescriptorHIDEhhh) refers to lib.o(i._ZN10cHwUSBdesc5getIdEhhhh) for cHwUSBdesc::getId(unsigned char, unsigned char, unsigned char, unsigned char)
    lib.o(i._ZN10cHwUSBdesc16getDescriptorHIDEhhh) refers to lib.o(i._ZN12cDataPointerC1EPht) for cDataPointer::cDataPointer(unsigned char*, unsigned short)
    lib.o(i._ZN10cHwUSBdesc16getDescriptorHIDEhhh) refers to lib.o(i._ZN12cDataPointerC1Ev) for cDataPointer::cDataPointer()
    lib.o(i._ZN10cHwUSBdesc17getMaxPacketSize0Ev) refers to lib.o(i._ZN10cHwUSBdesc19getDescriptorDeviceEv) for cHwUSBdesc::getDescriptorDevice()
    lib.o(i._ZN10cHwUSBdesc17getMaxPacketSize0Ev) refers to lib.o(i._ZNK12cDataPointer6getPtrEv) for cDataPointer::getPtr() const
    lib.o(i._ZN10cHwUSBdesc19getDescriptorConfigEh) refers to lib.o(i._ZN10cHwUSBdesc5getIdEhhhh) for cHwUSBdesc::getId(unsigned char, unsigned char, unsigned char, unsigned char)
    lib.o(i._ZN10cHwUSBdesc19getDescriptorConfigEh) refers to lib.o(i._ZN12cDataPointerC1EPht) for cDataPointer::cDataPointer(unsigned char*, unsigned short)
    lib.o(i._ZN10cHwUSBdesc19getDescriptorConfigEh) refers to lib.o(i._ZN12cDataPointerC1Ev) for cDataPointer::cDataPointer()
    lib.o(i._ZN10cHwUSBdesc19getDescriptorDeviceEv) refers to lib.o(i._ZN10cHwUSBdesc5getIdEhhhh) for cHwUSBdesc::getId(unsigned char, unsigned char, unsigned char, unsigned char)
    lib.o(i._ZN10cHwUSBdesc19getDescriptorDeviceEv) refers to lib.o(i._ZN12cDataPointerC1EPht) for cDataPointer::cDataPointer(unsigned char*, unsigned short)
    lib.o(i._ZN10cHwUSBdesc19getDescriptorDeviceEv) refers to lib.o(i._ZN12cDataPointerC1Ev) for cDataPointer::cDataPointer()
    lib.o(i._ZN10cHwUSBdesc19getDescriptorStringEh) refers to lib.o(i._ZN10cHwUSBdesc5getIdEhhhh) for cHwUSBdesc::getId(unsigned char, unsigned char, unsigned char, unsigned char)
    lib.o(i._ZN10cHwUSBdesc19getDescriptorStringEh) refers to lib.o(i._ZN12cDataPointerC1EPht) for cDataPointer::cDataPointer(unsigned char*, unsigned short)
    lib.o(i._ZN10cHwUSBdesc19getDescriptorStringEh) refers to lib.o(i._ZN12cDataPointerC1Ev) for cDataPointer::cDataPointer()
    lib.o(i._ZN10cHwUSBdesc21getConfigDeviceStatusEh) refers to lib.o(i._ZN10cHwUSBdesc19getDescriptorConfigEh) for cHwUSBdesc::getDescriptorConfig(unsigned char)
    lib.o(i._ZN10cHwUSBdesc21getConfigDeviceStatusEh) refers to lib.o(i._ZNK12cDataPointer6getPtrEv) for cDataPointer::getPtr() const
    lib.o(i._ZN10cHwUSBdesc21getDescriptorEndpointEhhh) refers to lib.o(i._ZN10cHwUSBdesc5getIdEhhhh) for cHwUSBdesc::getId(unsigned char, unsigned char, unsigned char, unsigned char)
    lib.o(i._ZN10cHwUSBdesc21getDescriptorEndpointEhhh) refers to lib.o(i._ZN12cDataPointerC1EPht) for cDataPointer::cDataPointer(unsigned char*, unsigned short)
    lib.o(i._ZN10cHwUSBdesc21getDescriptorEndpointEhhh) refers to lib.o(i._ZN12cDataPointerC1Ev) for cDataPointer::cDataPointer()
    lib.o(i._ZN10cHwUSBdesc22getDescriptorHIDreportEhhh) refers to lib.o(i._ZN10cHwUSBdesc5getIdEhhhh) for cHwUSBdesc::getId(unsigned char, unsigned char, unsigned char, unsigned char)
    lib.o(i._ZN10cHwUSBdesc22getDescriptorHIDreportEhhh) refers to lib.o(i._ZN12cDataPointerC1EPht) for cDataPointer::cDataPointer(unsigned char*, unsigned short)
    lib.o(i._ZN10cHwUSBdesc22getDescriptorHIDreportEhhh) refers to lib.o(i._ZN12cDataPointerC1Ev) for cDataPointer::cDataPointer()
    lib.o(i._ZN10cHwUSBdesc22getDescriptorInterfaceEhh) refers to lib.o(i._ZN10cHwUSBdesc5getIdEhhhh) for cHwUSBdesc::getId(unsigned char, unsigned char, unsigned char, unsigned char)
    lib.o(i._ZN10cHwUSBdesc22getDescriptorInterfaceEhh) refers to lib.o(i._ZN12cDataPointerC1EPht) for cDataPointer::cDataPointer(unsigned char*, unsigned short)
    lib.o(i._ZN10cHwUSBdesc22getDescriptorInterfaceEhh) refers to lib.o(i._ZN12cDataPointerC1Ev) for cDataPointer::cDataPointer()
    lib.o(i._ZN11cDevDigital3getEv) refers to lib.o(i._ZN7cHwPort3Pin3getEv) for cHwPort::Pin::get()
    lib.o(i._ZN11cDevDigital3setEb) refers to lib.o(i._ZN7cHwPort3Pin3setEb) for cHwPort::Pin::set(bool)
    lib.o(i._ZN11cDevDigital7setModeENS_4ModeE) refers to lib.o(i._ZN7cHwPort3Pin7setModeENS_4ModeE) for cHwPort::Pin::setMode(cHwPort::Mode)
    lib.o(i._ZN11cDevDigitalC1ER7cHwPorthNS_4ModeEb) refers to lib.o(i._ZN7cHwPort3PinC1ERS_h) for cHwPort::Pin::Pin(cHwPort&, unsigned char)
    lib.o(i._ZN11cDevDigitalC1ER7cHwPorthNS_4ModeEb) refers to lib.o(i._ZN7cHwPort3Pin3setEb) for cHwPort::Pin::set(bool)
    lib.o(i._ZN11cDevDigitalC1ER7cHwPorthNS_4ModeEb) refers to lib.o(i._ZN7cHwPort3Pin7setModeENS_4ModeE) for cHwPort::Pin::setMode(cHwPort::Mode)
    lib.o(i._ZN11cDevDigitalC1ER7cHwPorthNS_4ModeEb) refers to lib.o(.constdata__ZTV11cDevDigital) for vtable for cDevDigital
    lib.o(i._ZN11cDevDisplayC2Ev) refers to lib.o(.constdata__ZTV11cDevDisplay) for vtable for cDevDisplay
    lib.o(i._ZN11cHwEthernet5getIPEv) refers to cxa_guard_acquire.o(i.__cxa_guard_acquire) for __cxa_guard_acquire
    lib.o(i._ZN11cHwEthernet5getIPEv) refers to lib.o(.data) for _ZGVret
    lib.o(i._ZN11cHwEthernet5getIPEv) refers to lib.o(.constdata) for zeroAddr
    lib.o(i._ZN11cHwEthernet6updateEv) refers to lib.o(i._ZN7cNetARP7processEv) for cNetARP::process()
    lib.o(i._ZN11cHwEthernet6updateEv) refers to lib.o(i._ZN6cNetIP7processEv) for cNetIP::process()
    lib.o(i._ZN11cHwEthernet6updateEv) refers to lib.o(i._ZN6cNetIP6updateEv) for cNetIP::update()
    lib.o(i._ZN11cHwEthernetC2ERK8cNetAddrILh6EE) refers to lib.o(.constdata__ZTV11cHwEthernet) for vtable for cHwEthernet
    lib.o(i._ZN12cDevAnalogIn9calibrateEffff) refers to feqf.o(x$fpl$feqf) for __aeabi_cfcmpeq
    lib.o(i._ZN12cDevAnalogIn9calibrateEffff) refers to faddsub_clz.o(x$fpl$fsub) for __aeabi_fsub
    lib.o(i._ZN12cDevAnalogIn9calibrateEffff) refers to fdiv.o(x$fpl$fdiv) for __aeabi_fdiv
    lib.o(i._ZN12cDevAnalogIn9calibrateEffff) refers to fmul.o(x$fpl$fmul) for __aeabi_fmul
    lib.o(i._ZN12cDevAnalogIn9calibrateEffff) refers to faddsub_clz.o(x$fpl$frsb) for __aeabi_frsub
    lib.o(i._ZN12cDevAnalogInC2Ehff) refers to faddsub_clz.o(x$fpl$fsub) for __aeabi_fsub
    lib.o(i._ZN12cDevAnalogInC2Ehff) refers to fdiv.o(x$fpl$fdiv) for __aeabi_fdiv
    lib.o(i._ZN12cDevAnalogInC2Ehff) refers to lib.o(i._ZN10cDevAnalogC1Ehff) for cDevAnalog::cDevAnalog(unsigned char, float, float)
    lib.o(i._ZN12cDevAnalogInC2Ehff) refers to lib.o(.constdata__ZTV12cDevAnalogIn) for vtable for cDevAnalogIn
    lib.o(i._ZN12cHwEncoder_NC1ENS_7TimerIdEN10cHwEncoder4ModeE) refers to lib.o(i._ZN12cHwPinConfig3setENS_8FunctionEj) for cHwPinConfig::set(cHwPinConfig::Function, unsigned)
    lib.o(i._ZN12cHwEncoder_NC1ENS_7TimerIdEN10cHwEncoder4ModeE) refers to lib.o(.constdata__ZTV10cHwEncoder) for vtable for cHwEncoder
    lib.o(i._ZN12cHwEncoder_NC1ENS_7TimerIdEN10cHwEncoder4ModeE) refers to lib.o(.constdata__ZTV12cHwEncoder_N) for vtable for cHwEncoder_N
    lib.o(i._ZN12cHwI2Cmaster4readEhPhhS0_h) refers to lib.o(i._ZN7cSystem16disableInterruptEv) for cSystem::disableInterrupt()
    lib.o(i._ZN12cHwI2Cmaster4readEhPhhS0_h) refers to lib.o(i._ZN7cSystem15enableInterruptEv) for cSystem::enableInterrupt()
    lib.o(i._ZN12cHwI2Cmaster5writeEhPhhS0_h) refers to lib.o(i._ZN7cSystem16disableInterruptEv) for cSystem::disableInterrupt()
    lib.o(i._ZN12cHwI2Cmaster5writeEhPhhS0_h) refers to lib.o(i._ZN7cSystem15enableInterruptEv) for cSystem::enableInterrupt()
    lib.o(i._ZN12cHwI2CmasterC2Eh) refers to lib.o(.constdata__ZTV12cHwI2Cmaster) for vtable for cHwI2Cmaster
    lib.o(i._ZN12cHwPinConfig3setENS_8FunctionEj) refers to lib.o(i._ZN12cHwPinConfig3setEP12GPIO_TypeDefhjh) for cHwPinConfig::set(GPIO_TypeDef*, unsigned char, unsigned, unsigned char)
    lib.o(i._ZN12cHwPinConfig3setENS_8FunctionEj) refers to main.o(.data) for cHwPinConfig::table
    lib.o(i._ZN12cHwPinConfig3setEP12GPIO_TypeDefhjh) refers to lib.o(i._ZN7cSystem16disableInterruptEv) for cSystem::disableInterrupt()
    lib.o(i._ZN12cHwPinConfig3setEP12GPIO_TypeDefhjh) refers to lib.o(i._ZN7cSystem15enableInterruptEv) for cSystem::enableInterrupt()
    lib.o(i._ZN12cHwSPImaster6Device10transceiveEPht) refers to lib.o(i._ZN7cSystem16disableInterruptEv) for cSystem::disableInterrupt()
    lib.o(i._ZN12cHwSPImaster6Device10transceiveEPht) refers to lib.o(i._ZN12cHwSPImaster6Device5startEv) for cHwSPImaster::Device::start()
    lib.o(i._ZN12cHwSPImaster6Device10transceiveEPht) refers to lib.o(i._ZN12cHwSPImaster6Device4stopEv) for cHwSPImaster::Device::stop()
    lib.o(i._ZN12cHwSPImaster6Device10transceiveEPht) refers to lib.o(i._ZN7cSystem15enableInterruptEv) for cSystem::enableInterrupt()
    lib.o(i._ZN12cHwSPImaster6Device10transceiveEh) refers to lib.o(i._ZN7cSystem16disableInterruptEv) for cSystem::disableInterrupt()
    lib.o(i._ZN12cHwSPImaster6Device10transceiveEh) refers to lib.o(i._ZN12cHwSPImaster6Device5startEv) for cHwSPImaster::Device::start()
    lib.o(i._ZN12cHwSPImaster6Device10transceiveEh) refers to lib.o(i._ZN12cHwSPImaster6Device4stopEv) for cHwSPImaster::Device::stop()
    lib.o(i._ZN12cHwSPImaster6Device10transceiveEh) refers to lib.o(i._ZN7cSystem15enableInterruptEv) for cSystem::enableInterrupt()
    lib.o(i._ZN12cHwSPImasterC2Ev) refers to lib.o(.constdata__ZTV12cHwSPImaster) for vtable for cHwSPImaster
    lib.o(i._ZN12cHwUSBinterfC2ER6cHwUSBhh) refers to h1_alloc.o(.text) for malloc
    lib.o(i._ZN12cHwUSBinterfC2ER6cHwUSBhh) refers to lib.o(i._ZN14cHwUSBendpointC1ER6cHwUSBP12cHwUSBinterfhth) for cHwUSBendpoint::cHwUSBendpoint(cHwUSB&, cHwUSBinterf*, unsigned char, unsigned short, unsigned char)
    lib.o(i._ZN12cHwUSBinterfC2ER6cHwUSBhh) refers to lib.o(t._ZN12cDataPointercvPT_IN10cHwUSBdesc9cEndpointEEEv) for cDataPointer::operator T1*<cHwUSBdesc::cEndpoint>()
    lib.o(i._ZN12cHwUSBinterfC2ER6cHwUSBhh) refers to lib.o(.constdata__ZTV12cHwUSBinterf) for vtable for cHwUSBinterf
    lib.o(i._ZN12cTaskHandler4TaskC2ERS_) refers to lib.o(i._ZN5cList4ItemC1EPS_) for cList::Item::Item(cList*)
    lib.o(i._ZN12cTaskHandler4TaskC2ERS_) refers to lib.o(.constdata__ZTVN12cTaskHandler4TaskE) for vtable for cTaskHandler::Task
    lib.o(i._ZN12cTaskHandler5TimerC1ERS_tt) refers to lib.o(i._ZN6cTimerC2Ev) for cTimer::cTimer__sub_object()
    lib.o(i._ZN12cTaskHandler5TimerC1ERS_tt) refers to lib.o(i._ZN6cTimer3setEtt) for cTimer::set(unsigned short, unsigned short)
    lib.o(i._ZN12cTaskHandler5TimerC1ERS_tt) refers to lib.o(.constdata__ZTVN12cTaskHandler5TimerE) for vtable for cTaskHandler::Timer
    lib.o(i._ZN12cTaskHandler7addTaskEPNS_4TaskE) refers to lib.o(i._ZN5cList3addEPNS_4ItemE) for cList::add(cList::Item*)
    lib.o(i._ZN12cTaskHandlerC1EP8cHwTimer) refers to lib.o(i._ZN5cList4ItemC1EPS_) for cList::Item::Item(cList*)
    lib.o(i._ZN12cTaskHandlerC1EP8cHwTimer) refers to lib.o(i._ZN5cListC1Ev) for cList::cList()
    lib.o(i._ZN12cTaskHandlerC1EP8cHwTimer) refers to lib.o(.constdata__ZTV12cTaskHandler) for vtable for cTaskHandler
    lib.o(i._ZN12cTaskHandlerC1EPS_) refers to lib.o(i._ZN5cList4ItemC1EPS_) for cList::Item::Item(cList*)
    lib.o(i._ZN12cTaskHandlerC1EPS_) refers to lib.o(i._ZN5cListC1Ev) for cList::cList()
    lib.o(i._ZN12cTaskHandlerC1EPS_) refers to lib.o(.constdata__ZTV12cTaskHandler) for vtable for cTaskHandler
    lib.o(i._ZN13cDevAnalogOut3setEf) refers to faddsub_clz.o(x$fpl$fsub) for __aeabi_fsub
    lib.o(i._ZN13cDevAnalogOut3setEf) refers to fmul.o(x$fpl$fmul) for __aeabi_fmul
    lib.o(i._ZN13cDevAnalogOut3setEf) refers to frleqf.o(x$fpl$frleqf) for __aeabi_cfrcmple
    lib.o(i._ZN13cDevAnalogOut3setEf) refers to fleqf.o(x$fpl$fleqf) for __aeabi_cfcmple
    lib.o(i._ZN13cDevAnalogOut3setEf) refers to ffixu.o(x$fpl$ffixu) for __aeabi_f2uiz
    lib.o(i._ZN13cDevAnalogOutC2Ehff) refers to feqf.o(x$fpl$feqf) for __aeabi_cfcmpeq
    lib.o(i._ZN13cDevAnalogOutC2Ehff) refers to faddsub_clz.o(x$fpl$fsub) for __aeabi_fsub
    lib.o(i._ZN13cDevAnalogOutC2Ehff) refers to fdiv.o(x$fpl$fdiv) for __aeabi_fdiv
    lib.o(i._ZN13cDevAnalogOutC2Ehff) refers to fmul.o(x$fpl$fmul) for __aeabi_fmul
    lib.o(i._ZN13cDevAnalogOutC2Ehff) refers to lib.o(i._ZN10cDevAnalogC1Ehff) for cDevAnalog::cDevAnalog(unsigned char, float, float)
    lib.o(i._ZN13cDevAnalogOutC2Ehff) refers to lib.o(.constdata__ZTV13cDevAnalogOut) for vtable for cDevAnalogOut
    lib.o(i._ZN13cHwMemory_RAMC1Ev) refers to lib.o(i._ZN9cHwMemoryC2Ejh) for cHwMemory::cHwMemory__sub_object(unsigned, unsigned char)
    lib.o(i._ZN13cHwMemory_RAMC1Ev) refers to lib.o(.constdata__ZTV13cHwMemory_RAM) for vtable for cHwMemory_RAM
    lib.o(i._ZN13cNetTransport6SocketC2ERS_R15cNetApplication8cNetAddrILh4EEt) refers to lib.o(i._ZN5cList4ItemC1EPS_) for cList::Item::Item(cList*)
    lib.o(i._ZN13cNetTransport6SocketC2ERS_R15cNetApplication8cNetAddrILh4EEt) refers to lib.o(t._ZN8cNetTYPEItEaSEt) for cNetTYPE<unsigned short>::operator =(unsigned short)
    lib.o(i._ZN13cNetTransport6SocketC2ERS_R15cNetApplication8cNetAddrILh4EEt) refers to lib.o(i._ZN13cNetTransport6Socket10setTimeoutEtt) for cNetTransport::Socket::setTimeout(unsigned short, unsigned short)
    lib.o(i._ZN13cNetTransport6SocketC2ERS_R15cNetApplication8cNetAddrILh4EEt) refers to lib.o(t._ZNK8cNetAddrILh4EEeqERKS0_) for cNetAddr<(unsigned char)4>::operator ==(const cNetAddr<(unsigned char)4>&) const
    lib.o(i._ZN13cNetTransport6SocketC2ERS_R15cNetApplication8cNetAddrILh4EEt) refers to lib.o(i._ZN5cList3addEPNS_4ItemE) for cList::add(cList::Item*)
    lib.o(i._ZN13cNetTransport6SocketC2ERS_R15cNetApplication8cNetAddrILh4EEt) refers to lib.o(.constdata__ZTVN13cNetTransport6SocketE) for vtable for cNetTransport::Socket
    lib.o(i._ZN13cNetTransport6SocketC2ERS_R15cNetApplication8cNetAddrILh4EEt) refers to lib.o(.constdata) for zeroAddrPhy
    lib.o(i._ZN13cNetTransport6updateEv) refers to lib.o(i._ZN5cList8getFirstEv) for cList::getFirst()
    lib.o(i._ZN13cNetTransport6updateEv) refers to lib.o(i._ZN5cList4Item7getNextEv) for cList::Item::getNext()
    lib.o(i._ZN13cNetTransport7processEv) refers to lib.o(i._ZN5cList8getFirstEv) for cList::getFirst()
    lib.o(i._ZN13cNetTransport7processEv) refers to lib.o(i._ZN5cList4Item7getNextEv) for cList::Item::getNext()
    lib.o(i._ZN13cNetTransport7timeoutEv) refers to lib.o(i._ZN5cList8getFirstEv) for cList::getFirst()
    lib.o(i._ZN13cNetTransport7timeoutEv) refers to lib.o(i._ZN5cList4Item7getNextEv) for cList::Item::getNext()
    lib.o(i._ZN13cNetTransportC2Ev) refers to lib.o(i._ZN5cListC1Ev) for cList::cList()
    lib.o(i._ZN13cNetTransportC2Ev) refers to lib.o(.constdata__ZTV13cNetTransport) for vtable for cNetTransport
    lib.o(i._ZN14cHwDisplayFont8getPixelEhh) refers to lib.o(i._ZNK14cHwDisplayFont12getCharWidthEv) for cHwDisplayFont::getCharWidth() const
    lib.o(i._ZN14cHwI2Cmaster_NC1ENS_6I2C_IDEN12cHwI2Cmaster4MODEEh) refers to lib.o(i._ZN12cHwI2CmasterC2Eh) for cHwI2Cmaster::cHwI2Cmaster__sub_object(unsigned char)
    lib.o(i._ZN14cHwI2Cmaster_NC1ENS_6I2C_IDEN12cHwI2Cmaster4MODEEh) refers to lib.o(i._ZN12cHwPinConfig3setENS_8FunctionEj) for cHwPinConfig::set(cHwPinConfig::Function, unsigned)
    lib.o(i._ZN14cHwI2Cmaster_NC1ENS_6I2C_IDEN12cHwI2Cmaster4MODEEh) refers to lib.o(.constdata__ZTV14cHwI2Cmaster_N) for vtable for cHwI2Cmaster_N
    lib.o(i._ZN14cHwSPImaster_NC1ENS_6SPI_IDEN12cHwSPImaster4MODEENS1_11ClockPolPhaE) refers to lib.o(i._ZN12cHwSPImasterC2Ev) for cHwSPImaster::cHwSPImaster__sub_object()
    lib.o(i._ZN14cHwSPImaster_NC1ENS_6SPI_IDEN12cHwSPImaster4MODEENS1_11ClockPolPhaE) refers to lib.o(i._ZN12cHwPinConfig3setENS_8FunctionEj) for cHwPinConfig::set(cHwPinConfig::Function, unsigned)
    lib.o(i._ZN14cHwSPImaster_NC1ENS_6SPI_IDEN12cHwSPImaster4MODEENS1_11ClockPolPhaE) refers to lib.o(i._ZN14cHwSPImaster_N14transceiveByteEh) for cHwSPImaster_N::transceiveByte(unsigned char)
    lib.o(i._ZN14cHwSPImaster_NC1ENS_6SPI_IDEN12cHwSPImaster4MODEENS1_11ClockPolPhaE) refers to lib.o(.constdata__ZTV14cHwSPImaster_N) for vtable for cHwSPImaster_N
    lib.o(i._ZN14cHwUSBendpoint12writeDataLenERK12cDataPointert) refers to lib.o(i._ZNK12cDataPointer6getPtrEv) for cDataPointer::getPtr() const
    lib.o(i._ZN14cHwUSBendpoint12writeDataLenERK12cDataPointert) refers to lib.o(i._ZN12cDataPointer7getSizeEv) for cDataPointer::getSize()
    lib.o(i._ZN14cHwUSBendpoint12writeDataLenERK12cDataPointert) refers to lib.o(t._Z3MINItET_S0_S0_) for T1 MIN<unsigned short>(T1, T1)
    lib.o(i._ZN14cHwUSBendpoint12writeDataLenERK12cDataPointert) refers to lib.o(i._ZN14cHwUSBendpoint9writeDataEv) for cHwUSBendpoint::writeData()
    lib.o(i._ZN14cHwUSBendpoint2inEv) refers to lib.o(i._ZN12cDataPointer7isEmptyEv) for cDataPointer::isEmpty()
    lib.o(i._ZN14cHwUSBendpoint2inEv) refers to lib.o(i._ZN14cHwUSBendpoint9writeDataEv) for cHwUSBendpoint::writeData()
    lib.o(i._ZN14cHwUSBendpoint3outEv) refers to lib.o(i._ZN14cHwUSBendpoint8readDataEv) for cHwUSBendpoint::readData()
    lib.o(i._ZN14cHwUSBendpoint3outEv) refers to lib.o(i._ZN14cHwUSBendpoint5stallEv) for cHwUSBendpoint::stall()
    lib.o(i._ZN14cHwUSBendpoint6inCtrlEv) refers to lib.o(i._ZN14cHwUSBendpoint9writeDataEv) for cHwUSBendpoint::writeData()
    lib.o(i._ZN14cHwUSBendpoint6inCtrlEv) refers to lib.o(i._ZN12cDataPointer7getSizeEv) for cDataPointer::getSize()
    lib.o(i._ZN14cHwUSBendpoint7outCtrlEv) refers to lib.o(i._ZN14cHwUSBendpoint8readDataEv) for cHwUSBendpoint::readData()
    lib.o(i._ZN14cHwUSBendpoint7outCtrlEv) refers to lib.o(i._ZN14cHwUSBendpoint16writeAcknowledgeEv) for cHwUSBendpoint::writeAcknowledge()
    lib.o(i._ZN14cHwUSBendpoint7outCtrlEv) refers to lib.o(i._ZN14cHwUSBendpoint5stallEv) for cHwUSBendpoint::stall()
    lib.o(i._ZN14cHwUSBendpoint8readDataEv) refers to lib.o(i._ZN12cDataPointer7getSizeEv) for cDataPointer::getSize()
    lib.o(i._ZN14cHwUSBendpoint8readDataEv) refers to lib.o(i._ZNK12cDataPointer6getPtrEv) for cDataPointer::getPtr() const
    lib.o(i._ZN14cHwUSBendpoint8readDataEv) refers to lib.o(i._ZN12cDataPointer5shiftEt) for cDataPointer::shift(unsigned short)
    lib.o(i._ZN14cHwUSBendpoint9writeDataERK12cDataPointer) refers to lib.o(i._ZN14cHwUSBendpoint9writeDataEv) for cHwUSBendpoint::writeData()
    lib.o(i._ZN14cHwUSBendpoint9writeDataEv) refers to lib.o(i._ZN12cDataPointer7getSizeEv) for cDataPointer::getSize()
    lib.o(i._ZN14cHwUSBendpoint9writeDataEv) refers to lib.o(t._Z3MINItET_S0_S0_) for T1 MIN<unsigned short>(T1, T1)
    lib.o(i._ZN14cHwUSBendpoint9writeDataEv) refers to lib.o(i._ZNK12cDataPointer6getPtrEv) for cDataPointer::getPtr() const
    lib.o(i._ZN14cHwUSBendpoint9writeDataEv) refers to lib.o(i._ZN12cDataPointer5shiftEt) for cDataPointer::shift(unsigned short)
    lib.o(i._ZN14cHwUSBendpointC1ER6cHwUSBP12cHwUSBinterfhth) refers to lib.o(i._ZN12cDataPointerC1Ev) for cDataPointer::cDataPointer()
    lib.o(i._ZN14cHwUSBendpointC1ER6cHwUSBht) refers to lib.o(i._ZN12cDataPointerC1Ev) for cDataPointer::cDataPointer()
    lib.o(i._ZN15cDevAnalogInADCC1ER6cHwADChffh) refers to lib.o(i._ZN12cDevAnalogInC2Ehff) for cDevAnalogIn::cDevAnalogIn__sub_object(unsigned char, float, float)
    lib.o(i._ZN15cDevAnalogInADCC1ER6cHwADChffh) refers to lib.o(.constdata__ZTV15cDevAnalogInADC) for vtable for cDevAnalogInADC
    lib.o(i._ZN15cDevDisplayChar6printfEhhhPKcz) refers to c89vsnprintf.o(.text) for __c89vsnprintf
    lib.o(i._ZN15cDevDisplayCharC1ER10cHwDisplay) refers to lib.o(i._ZN11cDevDisplayC2Ev) for cDevDisplay::cDevDisplay__sub_object()
    lib.o(i._ZN15cDevDisplayCharC1ER10cHwDisplay) refers to lib.o(.constdata__ZTV15cDevDisplayChar) for vtable for cDevDisplayChar
    lib.o(i._ZN15cDevTextIO_UARTC1ER7cHwUARThhPKcS3_) refers to lib.o(i._ZN10cDevTextIOC2EhhPKcS1_) for cDevTextIO::cDevTextIO__sub_object(unsigned char, unsigned char, const char*, const char*)
    lib.o(i._ZN15cDevTextIO_UARTC1ER7cHwUARThhPKcS3_) refers to lib.o(.constdata__ZTV15cDevTextIO_UART) for vtable for cDevTextIO_UART
    lib.o(i._ZN15cHwMemory_FlashC1EPjj) refers to lib.o(i._ZN9cHwMemoryC2Ejh) for cHwMemory::cHwMemory__sub_object(unsigned, unsigned char)
    lib.o(i._ZN15cHwMemory_FlashC1EPjj) refers to lib.o(.constdata__ZTV15cHwMemory_Flash) for vtable for cHwMemory_Flash
    lib.o(i._ZN16cDevAnalogOutDACC1ER6cHwDAChff) refers to lib.o(i._ZN13cDevAnalogOutC2Ehff) for cDevAnalogOut::cDevAnalogOut__sub_object(unsigned char, float, float)
    lib.o(i._ZN16cDevAnalogOutDACC1ER6cHwDAChff) refers to lib.o(.constdata__ZTV16cDevAnalogOutDAC) for vtable for cDevAnalogOutDAC
    lib.o(i._ZN16cDevAnalogOutPWMC1ER8cHwTimerNS0_4ModeEhff) refers to lib.o(i._ZN13cDevAnalogOutC2Ehff) for cDevAnalogOut::cDevAnalogOut__sub_object(unsigned char, float, float)
    lib.o(i._ZN16cDevAnalogOutPWMC1ER8cHwTimerNS0_4ModeEhff) refers to lib.o(.constdata__ZTV16cDevAnalogOutPWM) for vtable for cDevAnalogOutPWM
    lib.o(i._ZN16cHwMemory_EEPROMC1Ejj) refers to lib.o(i._ZN9cHwMemoryC2Ejh) for cHwMemory::cHwMemory__sub_object(unsigned, unsigned char)
    lib.o(i._ZN16cHwMemory_EEPROMC1Ejj) refers to lib.o(.constdata__ZTV16cHwMemory_EEPROM) for vtable for cHwMemory_EEPROM
    lib.o(i._ZN17cHwDisplayGraphic11gotoTextPosEhh) refers to lib.o(i._ZNK14cHwDisplayFont12getCharWidthEv) for cHwDisplayFont::getCharWidth() const
    lib.o(i._ZN17cHwDisplayGraphic11gotoTextPosEhh) refers to lib.o(i._ZNK14cHwDisplayFont13getCharHeightEv) for cHwDisplayFont::getCharHeight() const
    lib.o(i._ZN17cHwDisplayGraphic7putCharEc) refers to lib.o(i._ZN14cHwDisplayFont7setCharEh) for cHwDisplayFont::setChar(unsigned char)
    lib.o(i._ZN17cHwDisplayGraphic7putCharEc) refers to lib.o(i._ZNK14cHwDisplayFont13getCharHeightEv) for cHwDisplayFont::getCharHeight() const
    lib.o(i._ZN17cHwDisplayGraphic7putCharEc) refers to lib.o(i._ZNK14cHwDisplayFont12getCharWidthEv) for cHwDisplayFont::getCharWidth() const
    lib.o(i._ZN17cHwDisplayGraphic7putCharEc) refers to lib.o(i._ZN14cHwDisplayFont8getPixelEhh) for cHwDisplayFont::getPixel(unsigned char, unsigned char)
    lib.o(i._ZN17cHwDisplayGraphicC2E14cHwDisplayFonth) refers to lib.o(i._ZN10cHwDisplayC2Ehh) for cHwDisplay::cHwDisplay__sub_object(unsigned char, unsigned char)
    lib.o(i._ZN17cHwDisplayGraphicC2E14cHwDisplayFonth) refers to lib.o(.constdata__ZTV17cHwDisplayGraphic) for vtable for cHwDisplayGraphic
    lib.o(i._ZN17cHwI2Cmaster_Emul4waitEv) refers to lib.o(i._ZN7cSystem13delayMicroSecEt) for cSystem::delayMicroSec(unsigned short)
    lib.o(i._ZN17cHwI2Cmaster_EmulC1ERN7cHwPort3PinES2_N12cHwI2Cmaster4MODEE) refers to lib.o(i._ZN12cHwI2CmasterC2Eh) for cHwI2Cmaster::cHwI2Cmaster__sub_object(unsigned char)
    lib.o(i._ZN17cHwI2Cmaster_EmulC1ERN7cHwPort3PinES2_N12cHwI2Cmaster4MODEE) refers to lib.o(.constdata__ZTV17cHwI2Cmaster_Emul) for vtable for cHwI2Cmaster_Emul
    lib.o(i._ZN18cDevControlEncoder3getEv) refers to lib.o(i._ZN7cSystem16disableInterruptEv) for cSystem::disableInterrupt()
    lib.o(i._ZN18cDevControlEncoder3getEv) refers to lib.o(i._ZN7cSystem15enableInterruptEv) for cSystem::enableInterrupt()
    lib.o(i._ZN18cDevControlEncoder6updateEv) refers to lib.o(t._ZN5cFifoIN18cDevControlEncoder6tEventEE6isFullEv) for cFifo<cDevControlEncoder::tEvent>::isFull()
    lib.o(i._ZN18cDevControlEncoder6updateEv) refers to lib.o(t._ZN5cFifoIN18cDevControlEncoder6tEventEElsERKS1_) for cFifo<cDevControlEncoder::tEvent>::operator <<(const cDevControlEncoder::tEvent&)
    lib.o(i._ZN18cDevControlEncoderC2EP11cDevDigitalP8cHwTimer) refers to lib.o(i._ZN5cList4ItemC1EPS_) for cList::Item::Item(cList*)
    lib.o(i._ZN18cDevControlEncoderC2EP11cDevDigitalP8cHwTimer) refers to lib.o(i._Znaj) for operator new[] (unsigned)
    lib.o(i._ZN18cDevControlEncoderC2EP11cDevDigitalP8cHwTimer) refers to lib.o(.constdata__ZTV18cDevControlEncoder) for vtable for cDevControlEncoder
    lib.o(i._ZN18cDevControlPointer3getEv) refers to lib.o(t._Z5RANGEIsET_S0_S0_S0_) for T1 RANGE<short>(T1, T1, T1)
    lib.o(i._ZN18cDevControlPointerC1ER8cHwTouch) refers to lib.o(.constdata__ZTV18cDevControlPointer) for vtable for cDevControlPointer
    lib.o(i._ZN18cDevDisplayGraphic10drawCircleEtttt) refers to fflt_clz.o(x$fpl$ffltu) for __aeabi_ui2f
    lib.o(i._ZN18cDevDisplayGraphic10drawCircleEtttt) refers to fmul.o(x$fpl$fmul) for __aeabi_fmul
    lib.o(i._ZN18cDevDisplayGraphic10drawCircleEtttt) refers to faddsub_clz.o(x$fpl$fsub) for __aeabi_fsub
    lib.o(i._ZN18cDevDisplayGraphic10drawCircleEtttt) refers to sqrtf.o(i.sqrtf) for sqrtf
    lib.o(i._ZN18cDevDisplayGraphic10drawCircleEtttt) refers to ffix.o(x$fpl$ffix) for __aeabi_f2iz
    lib.o(i._ZN18cDevDisplayGraphic6printfEhhhPKcz) refers to c89vsprintf.o(.text) for __c89vsprintf
    lib.o(i._ZN18cDevDisplayGraphic8drawTextEtthPKcz) refers to c89vsprintf.o(.text) for __c89vsprintf
    lib.o(i._ZN18cDevDisplayGraphicC1ER17cHwDisplayGraphic) refers to lib.o(i._ZN11cDevDisplayC2Ev) for cDevDisplay::cDevDisplay__sub_object()
    lib.o(i._ZN18cDevDisplayGraphicC1ER17cHwDisplayGraphic) refers to lib.o(i._ZN18cDevDisplayGraphic5clearEv) for cDevDisplayGraphic::clear()
    lib.o(i._ZN18cDevDisplayGraphicC1ER17cHwDisplayGraphic) refers to lib.o(.constdata__ZTV18cDevDisplayGraphic) for vtable for cDevDisplayGraphic
    lib.o(i._ZN20cDevAnalogOutPWMemul6setRawEt) refers to lib.o(i._ZN7cSystem16disableInterruptEv) for cSystem::disableInterrupt()
    lib.o(i._ZN20cDevAnalogOutPWMemul6setRawEt) refers to lib.o(i._ZN7cSystem15enableInterruptEv) for cSystem::enableInterrupt()
    lib.o(i._ZN20cDevAnalogOutPWMemul6updateEv) refers to lib.o(i._ZN7cSystem16disableInterruptEv) for cSystem::disableInterrupt()
    lib.o(i._ZN20cDevAnalogOutPWMemul6updateEv) refers to lib.o(i._ZN7cSystem15enableInterruptEv) for cSystem::enableInterrupt()
    lib.o(i._ZN20cDevAnalogOutPWMemulC1ER8cHwTimerR11cDevDigitalhff) refers to lib.o(i._ZN13cDevAnalogOutC2Ehff) for cDevAnalogOut::cDevAnalogOut__sub_object(unsigned char, float, float)
    lib.o(i._ZN20cDevAnalogOutPWMemulC1ER8cHwTimerR11cDevDigitalhff) refers to lib.o(i._ZN5cList4ItemC1EPS_) for cList::Item::Item(cList*)
    lib.o(i._ZN20cDevAnalogOutPWMemulC1ER8cHwTimerR11cDevDigitalhff) refers to lib.o(.constdata__ZTV20cDevAnalogOutPWMemul) for vtable for cDevAnalogOutPWMemul
    lib.o(i._ZN20cDevDigitalIndicatorC1ER11cDevDigitalR8cHwTimer) refers to lib.o(i._ZN5cList4ItemC1EPS_) for cList::Item::Item(cList*)
    lib.o(i._ZN20cDevDigitalIndicatorC1ER11cDevDigitalR8cHwTimer) refers to lib.o(i._ZN20cDevDigitalIndicator3clrEv) for cDevDigitalIndicator::clr()
    lib.o(i._ZN20cDevDigitalIndicatorC1ER11cDevDigitalR8cHwTimer) refers to dflt_clz.o(x$fpl$dfltu) for __aeabi_ui2d
    lib.o(i._ZN20cDevDigitalIndicatorC1ER11cDevDigitalR8cHwTimer) refers to ddiv.o(x$fpl$ddiv) for __aeabi_ddiv
    lib.o(i._ZN20cDevDigitalIndicatorC1ER11cDevDigitalR8cHwTimer) refers to dfix.o(x$fpl$dfix) for __aeabi_d2iz
    lib.o(i._ZN20cDevDigitalIndicatorC1ER11cDevDigitalR8cHwTimer) refers to lib.o(.constdata__ZTV20cDevDigitalIndicator) for vtable for cDevDigitalIndicator
    lib.o(i._ZN26cDevControlEncoderJoystickC1EP11cDevDigitalS1_S1_P8cHwTimert) refers to lib.o(i._ZN18cDevControlEncoderC2EP11cDevDigitalP8cHwTimer) for cDevControlEncoder::cDevControlEncoder__sub_object(cDevDigital*, cHwTimer*)
    lib.o(i._ZN26cDevControlEncoderJoystickC1EP11cDevDigitalS1_S1_P8cHwTimert) refers to lib.o(.constdata__ZTV26cDevControlEncoderJoystick) for vtable for cDevControlEncoderJoystick
    lib.o(i._ZN28cDevControlEncoderRotaryKnobC1EP11cDevDigitalS1_S1_P8cHwTimer) refers to lib.o(i._ZN18cDevControlEncoderC2EP11cDevDigitalP8cHwTimer) for cDevControlEncoder::cDevControlEncoder__sub_object(cDevDigital*, cHwTimer*)
    lib.o(i._ZN28cDevControlEncoderRotaryKnobC1EP11cDevDigitalS1_S1_P8cHwTimer) refers to lib.o(.constdata__ZTV28cDevControlEncoderRotaryKnob) for vtable for cDevControlEncoderRotaryKnob
    lib.o(i._ZN4cCRCC1ENS_4MODEEtt) refers to lib.o(i._Znaj) for operator new[] (unsigned)
    lib.o(i._ZN4cCRCC1ENS_4MODEEtt) refers to lib.o(i._ZN4cCRC9tabMethodEh) for cCRC::tabMethod(unsigned char)
    lib.o(i._ZN4cCRCD1Ev) refers to h1_free.o(.text) for free
    lib.o(i._ZN4cCRCclEPKhj) refers to lib.o(i._ZN4cCRC9tabMethodEh) for cCRC::tabMethod(unsigned char)
    lib.o(i._ZN4cCRCclEh) refers to lib.o(i._ZN4cCRC9tabMethodEh) for cCRC::tabMethod(unsigned char)
    lib.o(i._ZN5cList4Item7getPrevERS_) refers to lib.o(i._ZN5cList8getFirstEv) for cList::getFirst()
    lib.o(i._ZN5cList4Item7getPrevERS_) refers to lib.o(i._ZN5cList4Item7getNextEv) for cList::Item::getNext()
    lib.o(i._ZN5cList4ItemC1EPS_) refers to lib.o(i._ZN5cList3addEPNS_4ItemE) for cList::add(cList::Item*)
    lib.o(i._ZN5cList4ItemC1EPS_) refers to lib.o(.constdata__ZTVN5cList4ItemE) for vtable for cList::Item
    lib.o(i._ZN6cHwADCC2EhP8cHwTimer) refers to lib.o(i._ZN5cList4ItemC1EPS_) for cList::Item::Item(cList*)
    lib.o(i._ZN6cHwADCC2EhP8cHwTimer) refers to lib.o(i._Znaj) for operator new[] (unsigned)
    lib.o(i._ZN6cHwADCC2EhP8cHwTimer) refers to lib.o(.constdata__ZTV6cHwADC) for vtable for cHwADC
    lib.o(i._ZN6cHwDACC2Eh) refers to lib.o(.constdata__ZTV6cHwDAC) for vtable for cHwDAC
    lib.o(i._ZN6cHwRTCC2Ev) refers to lib.o(.constdata__ZTV6cHwRTC) for vtable for cHwRTC
    lib.o(i._ZN6cHwUSB12eventHandlerEhh) refers to lib.o(i._ZN10cHwUSBctrl5setupEv) for cHwUSBctrl::setup()
    lib.o(i._ZN6cHwUSB12eventHandlerEhh) refers to lib.o(i._ZN10cHwUSBctrl3outEv) for cHwUSBctrl::out()
    lib.o(i._ZN6cHwUSB12eventHandlerEhh) refers to lib.o(i._ZN10cHwUSBctrl2inEv) for cHwUSBctrl::in()
    lib.o(i._ZN6cHwUSB12eventHandlerEhh) refers to lib.o(i._ZN14cHwUSBendpoint2inEv) for cHwUSBendpoint::in()
    lib.o(i._ZN6cHwUSB12eventHandlerEhh) refers to lib.o(i._ZN14cHwUSBendpoint3outEv) for cHwUSBendpoint::out()
    lib.o(i._ZN6cHwUSBC2ER10cHwUSBdesc) refers to lib.o(i._ZN10cHwUSBctrlC1ER6cHwUSB) for cHwUSBctrl::cHwUSBctrl(cHwUSB&)
    lib.o(i._ZN6cHwUSBC2ER10cHwUSBdesc) refers to lib.o(.constdata__ZTV6cHwUSB) for vtable for cHwUSB
    lib.o(i._ZN6cNetIP6createE8cNetAddrILh6EES0_ILh4EEtt) refers to lib.o(t._ZN8cNetTYPEItEaSEt) for cNetTYPE<unsigned short>::operator =(unsigned short)
    lib.o(i._ZN6cNetIP6createE8cNetAddrILh6EES0_ILh4EEtt) refers to lib.o(i._Z8ChecksumPhtj) for Checksum(unsigned char*, unsigned short, unsigned)
    lib.o(i._ZN6cNetIP7processEv) refers to lib.o(t._ZNK8cNetAddrILh4EEeqERKS0_) for cNetAddr<(unsigned char)4>::operator ==(const cNetAddr<(unsigned char)4>&) const
    lib.o(i._ZN6cNetIP7processEv) refers to lib.o(i._ZN8cNetICMP7processEv) for cNetICMP::process()
    lib.o(i._ZN6cNetIPC1ER11cHwEthernetRK8cNetAddrILh4EER8cHwTimer) refers to lib.o(i._ZN7cNetARPC1ER11cHwEthernetR8cNetAddrILh4EE) for cNetARP::cNetARP(cHwEthernet&, cNetAddr<(unsigned char)4>&)
    lib.o(i._ZN6cNetIPC1ER11cHwEthernetRK8cNetAddrILh4EER8cHwTimer) refers to lib.o(i._ZN5cList4ItemC1EPS_) for cList::Item::Item(cList*)
    lib.o(i._ZN6cNetIPC1ER11cHwEthernetRK8cNetAddrILh4EER8cHwTimer) refers to lib.o(i._ZN11cHwEthernet5setIPEP6cNetIP) for cHwEthernet::setIP(cNetIP*)
    lib.o(i._ZN6cNetIPC1ER11cHwEthernetRK8cNetAddrILh4EER8cHwTimer) refers to lib.o(.constdata__ZTVN6cNetIP13cTimeOutTimerE) for vtable for cNetIP::cTimeOutTimer
    lib.o(i._ZN6cTimer5startEtt) refers to lib.o(i._ZN6cTimer3setEtt) for cTimer::set(unsigned short, unsigned short)
    lib.o(i._ZN6cTimer5startEtt) refers to lib.o(i._ZN6cTimer5startEv) for cTimer::start()
    lib.o(i._ZN6cTimer7timeoutEtt) refers to lib.o(i._ZN6cTimer3setEtt) for cTimer::set(unsigned short, unsigned short)
    lib.o(i._ZN6cTimer7timeoutEtt) refers to lib.o(i._ZN6cTimer7timeoutEv) for cTimer::timeout()
    lib.o(i._ZN6cTimer7timeoutEv) refers to lib.o(i._ZN6cTimer5startEv) for cTimer::start()
    lib.o(i._ZN6cTimer9isRunningEv) refers to lib.o(i._ZN6cTimer7timeoutEv) for cTimer::timeout()
    lib.o(i._ZN6cTimer9isRunningEv) refers to lib.o(i._ZN6cTimer4stopEv) for cTimer::stop()
    lib.o(i._ZN6cTimerC2Ev) refers to lib.o(.constdata__ZTV6cTimer) for vtable for cTimer
    lib.o(i._ZN7cHwPort3PinC1ERS_h) refers to lib.o(.constdata__ZTVN7cHwPort3PinE) for vtable for cHwPort::Pin
    lib.o(i._ZN7cHwPort3PinC1ERS_hNS_4ModeE) refers to lib.o(.constdata__ZTVN7cHwPort3PinE) for vtable for cHwPort::Pin
    lib.o(i._ZN7cHwUART12transmitByteEh) refers to lib.o(t._ZN5cFifoIhE6isFullEv) for cFifo<unsigned char>::isFull()
    lib.o(i._ZN7cHwUART12transmitByteEh) refers to lib.o(t._ZN5cFifoIhElsERKh) for cFifo<unsigned char>::operator <<(const unsigned char&)
    lib.o(i._ZN7cHwUART3getEPh) refers to lib.o(t._ZN5cFifoIhErsERh) for cFifo<unsigned char>::operator >>(unsigned char&)
    lib.o(i._ZN7cHwUARTC2Ehh) refers to lib.o(t._ZN5cFifoIhEC1Eh) for cFifo<unsigned char>::cFifo(unsigned char)
    lib.o(i._ZN7cHwUARTC2Ehh) refers to lib.o(.constdata__ZTV7cHwUART) for vtable for cHwUART
    lib.o(i._ZN7cNetARP7processEv) refers to lib.o(t._ZN8cNetTYPEItEcvtEv) for cNetTYPE<unsigned short>::operator unsigned short()
    lib.o(i._ZN7cNetARP7processEv) refers to lib.o(t._ZNK8cNetAddrILh4EEeqERKS0_) for cNetAddr<(unsigned char)4>::operator ==(const cNetAddr<(unsigned char)4>&) const
    lib.o(i._ZN7cNetARP7processEv) refers to lib.o(t._ZN8cNetTYPEItEaSEt) for cNetTYPE<unsigned short>::operator =(unsigned short)
    lib.o(i._ZN7cNetARP7requestER8cNetAddrILh4EE) refers to lib.o(t._ZN8cNetTYPEItEaSEt) for cNetTYPE<unsigned short>::operator =(unsigned short)
    lib.o(i._ZN7cNetARP7requestER8cNetAddrILh4EE) refers to lib.o(.constdata) for broadcastAddrPhy
    lib.o(i._ZN7cNetARPC1ER11cHwEthernetR8cNetAddrILh4EE) refers to lib.o(i._ZN11cHwEthernet6setARPEP7cNetARP) for cHwEthernet::setARP(cNetARP*)
    lib.o(i._ZN7cNetTCP6Socket4openE8cNetAddrILh4EEt) refers to lib.o(t._ZN8cNetTYPEItEaSEt) for cNetTYPE<unsigned short>::operator =(unsigned short)
    lib.o(i._ZN7cNetTCP6Socket4openE8cNetAddrILh4EEt) refers to lib.o(t._ZNK8cNetAddrILh4EEeqERKS0_) for cNetAddr<(unsigned char)4>::operator ==(const cNetAddr<(unsigned char)4>&) const
    lib.o(i._ZN7cNetTCP6Socket4openE8cNetAddrILh4EEt) refers to lib.o(t._ZNK8cNetAddrILh6EEeqERKS0_) for cNetAddr<(unsigned char)6>::operator ==(const cNetAddr<(unsigned char)6>&) const
    lib.o(i._ZN7cNetTCP6Socket4openE8cNetAddrILh4EEt) refers to lib.o(i._ZN7cNetTCP6createERNS_6SocketEt) for cNetTCP::create(cNetTCP::Socket&, unsigned short)
    lib.o(i._ZN7cNetTCP6Socket4openE8cNetAddrILh4EEt) refers to lib.o(i._ZN7cNetARP7requestER8cNetAddrILh4EE) for cNetARP::request(cNetAddr<(unsigned char)4>&)
    lib.o(i._ZN7cNetTCP6Socket4openE8cNetAddrILh4EEt) refers to lib.o(.constdata) for zeroAddrPhy
    lib.o(i._ZN7cNetTCP6Socket4sendEv) refers to lib.o(i._ZN7cNetTCP6createERNS_6SocketEt) for cNetTCP::create(cNetTCP::Socket&, unsigned short)
    lib.o(i._ZN7cNetTCP6Socket5closeEv) refers to lib.o(i._ZN7cNetTCP6createERNS_6SocketEt) for cNetTCP::create(cNetTCP::Socket&, unsigned short)
    lib.o(i._ZN7cNetTCP6Socket6updateEv) refers to lib.o(t._ZNK8cNetAddrILh6EEeqERKS0_) for cNetAddr<(unsigned char)6>::operator ==(const cNetAddr<(unsigned char)6>&) const
    lib.o(i._ZN7cNetTCP6Socket6updateEv) refers to lib.o(i._ZN7cNetTCP6createERNS_6SocketEt) for cNetTCP::create(cNetTCP::Socket&, unsigned short)
    lib.o(i._ZN7cNetTCP6Socket6updateEv) refers to lib.o(.constdata) for zeroAddrPhy
    lib.o(i._ZN7cNetTCP6Socket7isReadyEv) refers to lib.o(t._ZNK8cNetAddrILh4EEeqERKS0_) for cNetAddr<(unsigned char)4>::operator ==(const cNetAddr<(unsigned char)4>&) const
    lib.o(i._ZN7cNetTCP6Socket7isReadyEv) refers to lib.o(.constdata) for zeroAddr
    lib.o(i._ZN7cNetTCP6Socket7processEv) refers to lib.o(t._ZN8cNetTYPEIjEcvjEv) for cNetTYPE<unsigned>::operator unsigned()
    lib.o(i._ZN7cNetTCP6Socket7processEv) refers to lib.o(t._ZN8cNetTYPEItEcvtEv) for cNetTYPE<unsigned short>::operator unsigned short()
    lib.o(i._ZN7cNetTCP6Socket7processEv) refers to lib.o(i._ZN7cNetTCP6Header13getDataOffsetEv) for cNetTCP::Header::getDataOffset()
    lib.o(i._ZN7cNetTCP6Socket7processEv) refers to lib.o(i._ZN7cNetTCP6createERNS_6SocketEt) for cNetTCP::create(cNetTCP::Socket&, unsigned short)
    lib.o(i._ZN7cNetTCP6SocketC1ERS_R15cNetApplication8cNetAddrILh4EEt) refers to lib.o(i._ZN13cNetTransport6SocketC2ERS_R15cNetApplication8cNetAddrILh4EEt) for cNetTransport::Socket::Socket__sub_object(cNetTransport&, cNetApplication&, cNetAddr<(unsigned char)4>, unsigned short)
    lib.o(i._ZN7cNetTCP6SocketC1ERS_R15cNetApplication8cNetAddrILh4EEt) refers to lib.o(.constdata__ZTVN7cNetTCP6SocketE) for vtable for cNetTCP::Socket
    lib.o(i._ZN7cNetTCP6createERNS_6SocketEt) refers to lib.o(t._ZN8cNetTYPEIjEaSEj) for cNetTYPE<unsigned>::operator =(unsigned)
    lib.o(i._ZN7cNetTCP6createERNS_6SocketEt) refers to lib.o(t._ZN8cNetTYPEItEaSEt) for cNetTYPE<unsigned short>::operator =(unsigned short)
    lib.o(i._ZN7cNetTCP6createERNS_6SocketEt) refers to lib.o(i._ZN7cNetTCP6Header13setDataOffsetEh) for cNetTCP::Header::setDataOffset(unsigned char)
    lib.o(i._ZN7cNetTCP6createERNS_6SocketEt) refers to lib.o(i._ZN6cNetIP6createE8cNetAddrILh6EES0_ILh4EEtt) for cNetIP::create(cNetAddr<(unsigned char)6>, cNetAddr<(unsigned char)4>, unsigned short, unsigned short)
    lib.o(i._ZN7cNetTCP6createERNS_6SocketEt) refers to lib.o(i._Z8ChecksumPhtj) for Checksum(unsigned char*, unsigned short, unsigned)
    lib.o(i._ZN7cNetTCP9handleARPE8cNetAddrILh4EES0_ILh6EE) refers to lib.o(i._ZN5cList8getFirstEv) for cList::getFirst()
    lib.o(i._ZN7cNetTCP9handleARPE8cNetAddrILh4EES0_ILh6EE) refers to lib.o(t._ZNK8cNetAddrILh4EEeqERKS0_) for cNetAddr<(unsigned char)4>::operator ==(const cNetAddr<(unsigned char)4>&) const
    lib.o(i._ZN7cNetTCP9handleARPE8cNetAddrILh4EES0_ILh6EE) refers to lib.o(i._ZN5cList4Item7getNextEv) for cList::Item::getNext()
    lib.o(i._ZN7cNetTCPC1ER6cNetIP) refers to lib.o(i._ZN13cNetTransportC2Ev) for cNetTransport::cNetTransport__sub_object()
    lib.o(i._ZN7cNetTCPC1ER6cNetIP) refers to lib.o(i._ZN7cNetARP6setTCPEP7cNetTCP) for cNetARP::setTCP(cNetTCP*)
    lib.o(i._ZN7cNetTCPC1ER6cNetIP) refers to lib.o(.constdata__ZTV7cNetTCP) for vtable for cNetTCP
    lib.o(i._ZN7cNetUDP6Socket4openE8cNetAddrILh4EEt) refers to lib.o(t._ZN8cNetTYPEItEaSEt) for cNetTYPE<unsigned short>::operator =(unsigned short)
    lib.o(i._ZN7cNetUDP6Socket4openE8cNetAddrILh4EEt) refers to lib.o(t._ZNK8cNetAddrILh4EEeqERKS0_) for cNetAddr<(unsigned char)4>::operator ==(const cNetAddr<(unsigned char)4>&) const
    lib.o(i._ZN7cNetUDP6Socket4openE8cNetAddrILh4EEt) refers to lib.o(i._ZN7cNetARP7requestER8cNetAddrILh4EE) for cNetARP::request(cNetAddr<(unsigned char)4>&)
    lib.o(i._ZN7cNetUDP6Socket4openE8cNetAddrILh4EEt) refers to lib.o(.constdata) for broadcastAddr
    lib.o(i._ZN7cNetUDP6Socket4sendEv) refers to lib.o(i._ZN7cNetUDP6createERNS_6SocketEt) for cNetUDP::create(cNetUDP::Socket&, unsigned short)
    lib.o(i._ZN7cNetUDP6Socket6updateEv) refers to lib.o(t._ZNK8cNetAddrILh6EEeqERKS0_) for cNetAddr<(unsigned char)6>::operator ==(const cNetAddr<(unsigned char)6>&) const
    lib.o(i._ZN7cNetUDP6Socket6updateEv) refers to lib.o(.constdata) for zeroAddrPhy
    lib.o(i._ZN7cNetUDP6Socket7isReadyEv) refers to lib.o(t._ZNK8cNetAddrILh4EEeqERKS0_) for cNetAddr<(unsigned char)4>::operator ==(const cNetAddr<(unsigned char)4>&) const
    lib.o(i._ZN7cNetUDP6Socket7isReadyEv) refers to lib.o(.constdata) for zeroAddr
    lib.o(i._ZN7cNetUDP6Socket7processEv) refers to lib.o(t._ZN8cNetTYPEItEcvtEv) for cNetTYPE<unsigned short>::operator unsigned short()
    lib.o(i._ZN7cNetUDP6Socket7processEv) refers to lib.o(t._ZNK8cNetAddrILh4EEeqERKS0_) for cNetAddr<(unsigned char)4>::operator ==(const cNetAddr<(unsigned char)4>&) const
    lib.o(i._ZN7cNetUDP6Socket7processEv) refers to lib.o(.constdata) for broadcastAddr
    lib.o(i._ZN7cNetUDP6SocketC1ERS_R15cNetApplication8cNetAddrILh4EEtt) refers to lib.o(i._ZN13cNetTransport6SocketC2ERS_R15cNetApplication8cNetAddrILh4EEt) for cNetTransport::Socket::Socket__sub_object(cNetTransport&, cNetApplication&, cNetAddr<(unsigned char)4>, unsigned short)
    lib.o(i._ZN7cNetUDP6SocketC1ERS_R15cNetApplication8cNetAddrILh4EEtt) refers to lib.o(.constdata__ZTVN7cNetUDP6SocketE) for vtable for cNetUDP::Socket
    lib.o(i._ZN7cNetUDP6createERNS_6SocketEt) refers to lib.o(t._ZN8cNetTYPEItEaSEt) for cNetTYPE<unsigned short>::operator =(unsigned short)
    lib.o(i._ZN7cNetUDP6createERNS_6SocketEt) refers to lib.o(i._ZN6cNetIP6createE8cNetAddrILh6EES0_ILh4EEtt) for cNetIP::create(cNetAddr<(unsigned char)6>, cNetAddr<(unsigned char)4>, unsigned short, unsigned short)
    lib.o(i._ZN7cNetUDP6createERNS_6SocketEt) refers to lib.o(i._Z8ChecksumPhtj) for Checksum(unsigned char*, unsigned short, unsigned)
    lib.o(i._ZN7cNetUDP9handleARPE8cNetAddrILh4EES0_ILh6EE) refers to lib.o(i._ZN5cList8getFirstEv) for cList::getFirst()
    lib.o(i._ZN7cNetUDP9handleARPE8cNetAddrILh4EES0_ILh6EE) refers to lib.o(t._ZNK8cNetAddrILh4EEeqERKS0_) for cNetAddr<(unsigned char)4>::operator ==(const cNetAddr<(unsigned char)4>&) const
    lib.o(i._ZN7cNetUDP9handleARPE8cNetAddrILh4EES0_ILh6EE) refers to lib.o(i._ZN5cList4Item7getNextEv) for cList::Item::getNext()
    lib.o(i._ZN7cNetUDPC1ER6cNetIP) refers to lib.o(i._ZN13cNetTransportC2Ev) for cNetTransport::cNetTransport__sub_object()
    lib.o(i._ZN7cNetUDPC1ER6cNetIP) refers to lib.o(i._ZN7cNetARP6setUDPEP7cNetUDP) for cNetARP::setUDP(cNetUDP*)
    lib.o(i._ZN7cNetUDPC1ER6cNetIP) refers to lib.o(.constdata__ZTV7cNetUDP) for vtable for cNetUDP
    lib.o(i._ZN7cSystem13delayMicroSecEt) refers to dflt_clz.o(x$fpl$dfltu) for __aeabi_ui2d
    lib.o(i._ZN7cSystem13delayMicroSecEt) refers to dmul.o(x$fpl$dmul) for __aeabi_dmul
    lib.o(i._ZN7cSystem13delayMicroSecEt) refers to dfixu.o(x$fpl$dfixu) for __aeabi_d2uiz
    lib.o(i._ZN7cSystem13delayMilliSecEt) refers to lib.o(i._ZN7cSystem13delayMicroSecEt) for cSystem::delayMicroSec(unsigned short)
    lib.o(i._ZN7cSystem15enableInterruptEv) refers to lib.o(.data) for cSystem::cntInterrupt
    lib.o(i._ZN7cSystem16disableInterruptEv) refers to lib.o(.data) for cSystem::cntInterrupt
    lib.o(i._ZN7cSystem5resetEv) refers to lib.o(i._ZN7cSystem14enableWatchdogENS_4MODEE) for cSystem::enableWatchdog(cSystem::MODE)
    lib.o(i._ZN7cSystem5startEv) refers to lib.o(i._ZN7cSystem15enableInterruptEv) for cSystem::enableInterrupt()
    lib.o(i._ZN7cSystem8enterISREv) refers to lib.o(.data) for cSystem::cntInterrupt
    lib.o(i._ZN7cSystem8leaveISREv) refers to lib.o(.data) for cSystem::cntInterrupt
    lib.o(i._ZN7cSystemC1Eh) refers to lib.o(i._ZN7cSystem15disableWatchdogEv) for cSystem::disableWatchdog()
    lib.o(i._ZN7cSystemC1Eh) refers to lib.o(i._ZN7cSystem16disableInterruptEv) for cSystem::disableInterrupt()
    lib.o(i._ZN8cHwADC_08configChEhh) refers to lib.o(i._ZN12cHwPinConfig3setENS_8FunctionEj) for cHwPinConfig::set(cHwPinConfig::Function, unsigned)
    lib.o(i._ZN8cHwADC_0C1EP8cHwTimer) refers to lib.o(i._ZN6cHwADCC2EhP8cHwTimer) for cHwADC::cHwADC__sub_object(unsigned char, cHwTimer*)
    lib.o(i._ZN8cHwADC_0C1EP8cHwTimer) refers to lib.o(i._Z16__NVIC_EnableIRQ4IRQn) for __NVIC_EnableIRQ(IRQn)
    lib.o(i._ZN8cHwADC_0C1EP8cHwTimer) refers to lib.o(.constdata__ZTV8cHwADC_0) for vtable for cHwADC_0
    lib.o(i._ZN8cHwADC_0C1EP8cHwTimer) refers to lib.o(.data) for cHwADC_0::adcPtr
    lib.o(i._ZN8cHwDAC_0C1Ev) refers to lib.o(i._ZN6cHwDACC2Eh) for cHwDAC::cHwDAC__sub_object(unsigned char)
    lib.o(i._ZN8cHwDAC_0C1Ev) refers to lib.o(.constdata__ZTV8cHwDAC_0) for vtable for cHwDAC_0
    lib.o(i._ZN8cHwRTC_0C1Ev) refers to lib.o(i._ZN6cHwRTCC2Ev) for cHwRTC::cHwRTC__sub_object()
    lib.o(i._ZN8cHwRTC_0C1Ev) refers to lib.o(.constdata__ZTV8cHwRTC_0) for vtable for cHwRTC_0
    lib.o(i._ZN8cHwTimer3addEPN5cList4ItemE) refers to lib.o(i._ZN5cList3addEPNS_4ItemE) for cList::add(cList::Item*)
    lib.o(i._ZN8cHwTouchC2Ett) refers to lib.o(.constdata__ZTV8cHwTouch) for vtable for cHwTouch
    lib.o(i._ZN8cHwUSB_010setAddressEh) refers to lib.o(i._ZN7cSystem13delayMilliSecEt) for cSystem::delayMilliSec(unsigned short)
    lib.o(i._ZN8cHwUSB_010setAddressEh) refers to lib.o(i._ZN8cHwUSB_08EPconfig10setSTAT_RXEj) for cHwUSB_0::EPconfig::setSTAT_RX(unsigned)
    lib.o(i._ZN8cHwUSB_010setStallEPEh) refers to lib.o(i._ZN8cHwUSB_08EPconfig10setSTAT_RXEj) for cHwUSB_0::EPconfig::setSTAT_RX(unsigned)
    lib.o(i._ZN8cHwUSB_010setStallEPEh) refers to lib.o(i._ZN8cHwUSB_08EPconfig10setSTAT_TXEj) for cHwUSB_0::EPconfig::setSTAT_TX(unsigned)
    lib.o(i._ZN8cHwUSB_05resetEv) refers to lib.o(i._ZN7cSystem13delayMicroSecEt) for cSystem::delayMicroSec(unsigned short)
    lib.o(i._ZN8cHwUSB_05resetEv) refers to lib.o(i._ZN8cHwUSB_08EPconfig4initEjjjt) for cHwUSB_0::EPconfig::init(unsigned, unsigned, unsigned, unsigned short)
    lib.o(i._ZN8cHwUSB_05resetEv) refers to lib.o(i._ZN8cHwUSB_08EPconfig10setSTAT_RXEj) for cHwUSB_0::EPconfig::setSTAT_RX(unsigned)
    lib.o(i._ZN8cHwUSB_05resetEv) refers to lib.o(i._ZN8cHwUSB_08EPconfig10setSTAT_TXEj) for cHwUSB_0::EPconfig::setSTAT_TX(unsigned)
    lib.o(i._ZN8cHwUSB_05resetEv) refers to lib.o(.data) for cHwUSB_0::EPconfig::offset
    lib.o(i._ZN8cHwUSB_05startEv) refers to lib.o(i._Z16__NVIC_EnableIRQ4IRQn) for __NVIC_EnableIRQ(IRQn)
    lib.o(i._ZN8cHwUSB_06readEPEhPht) refers to lib.o(i._ZN8cHwUSB_08EPconfig10setSTAT_RXEj) for cHwUSB_0::EPconfig::setSTAT_RX(unsigned)
    lib.o(i._ZN8cHwUSB_07writeEPEhPht) refers to lib.o(i._ZN8cHwUSB_08EPconfig10setSTAT_TXEj) for cHwUSB_0::EPconfig::setSTAT_TX(unsigned)
    lib.o(i._ZN8cHwUSB_08EPconfig4initEjjjt) refers to lib.o(i._ZN8cHwUSB_08EPconfig8bdt_initEhht) for cHwUSB_0::EPconfig::bdt_init(unsigned char, unsigned char, unsigned short)
    lib.o(i._ZN8cHwUSB_08EPconfig8bdt_initEhht) refers to lib.o(.data) for cHwUSB_0::EPconfig::offset
    lib.o(i._ZN8cHwUSB_08configEPEhth) refers to lib.o(i._ZN8cHwUSB_08EPconfig4initEjjjt) for cHwUSB_0::EPconfig::init(unsigned, unsigned, unsigned, unsigned short)
    lib.o(i._ZN8cHwUSB_08configEPEhth) refers to lib.o(i._ZN8cHwUSB_08EPconfig10setSTAT_TXEj) for cHwUSB_0::EPconfig::setSTAT_TX(unsigned)
    lib.o(i._ZN8cHwUSB_08configEPEhth) refers to lib.o(i._ZN8cHwUSB_08EPconfig10setSTAT_RXEj) for cHwUSB_0::EPconfig::setSTAT_RX(unsigned)
    lib.o(i._ZN8cHwUSB_0C1ER10cHwUSBdesc) refers to lib.o(i._ZN6cHwUSBC2ER10cHwUSBdesc) for cHwUSB::cHwUSB__sub_object(cHwUSBdesc&)
    lib.o(i._ZN8cHwUSB_0C1ER10cHwUSBdesc) refers to aeabi_vec_ctor_nocookie_nodtor.o(i.__aeabi_vec_ctor_nocookie_nodtor) for __aeabi_vec_ctor_nocookie_nodtor
    lib.o(i._ZN8cHwUSB_0C1ER10cHwUSBdesc) refers to lib.o(.constdata__ZTV8cHwUSB_0) for vtable for cHwUSB_0
    lib.o(i._ZN8cHwUSB_0C1ER10cHwUSBdesc) refers to lib.o(i._ZN8cHwUSB_08EPconfigC1Ev) for cHwUSB_0::EPconfig::EPconfig()
    lib.o(i._ZN8cHwUSB_0C1ER10cHwUSBdesc) refers to lib.o(.data) for cHwUSB_0::usbPtr
    lib.o(i._ZN8cNetDHCP4sendEh) refers to lib.o(i._ZN7cNetUDP6Socket10getDataPtrEv) for cNetUDP::Socket::getDataPtr()
    lib.o(i._ZN8cNetDHCP4sendEh) refers to rt_memclr.o(.text) for __aeabi_memclr
    lib.o(i._ZN8cNetDHCP4sendEh) refers to lib.o(t._ZN8cNetTYPEIjEaSEj) for cNetTYPE<unsigned>::operator =(unsigned)
    lib.o(i._ZN8cNetDHCP4sendEh) refers to lib.o(t._ZN8cNetTYPEItEaSEt) for cNetTYPE<unsigned short>::operator =(unsigned short)
    lib.o(i._ZN8cNetDHCP4sendEh) refers to rt_memcpy_v6.o(.text) for __aeabi_memcpy
    lib.o(i._ZN8cNetDHCP4sendEh) refers to lib.o(i._ZN7cNetUDP6Socket13setDataLengthEt) for cNetUDP::Socket::setDataLength(unsigned short)
    lib.o(i._ZN8cNetDHCP4sendEh) refers to lib.o(i._ZN13cNetTransport6Socket4fillEc) for cNetTransport::Socket::fill(char)
    lib.o(i._ZN8cNetDHCP4sendEh) refers to strlen.o(.text) for strlen
    lib.o(i._ZN8cNetDHCP4sendEh) refers to lib.o(i._ZN13cNetTransport6Socket4fillEPKc) for cNetTransport::Socket::fill(const char*)
    lib.o(i._ZN8cNetDHCP4sendEh) refers to lib.o(i._ZN7cNetUDP6Socket4sendEv) for cNetUDP::Socket::send()
    lib.o(i._ZN8cNetDHCP9OnReceiveEv) refers to lib.o(i._ZN7cNetUDP6Socket10getDataPtrEv) for cNetUDP::Socket::getDataPtr()
    lib.o(i._ZN8cNetDHCP9OnReceiveEv) refers to memcmp.o(.text) for memcmp
    lib.o(i._ZN8cNetDHCP9OnReceiveEv) refers to lib.o(i._ZN8cNetDHCP13parse_optionsEPhi) for cNetDHCP::parse_options(unsigned char*, int)
    lib.o(i._ZN8cNetDHCP9OnReceiveEv) refers to lib.o(t._ZNK8cNetAddrILh4EEeqERKS0_) for cNetAddr<(unsigned char)4>::operator ==(const cNetAddr<(unsigned char)4>&) const
    lib.o(i._ZN8cNetDHCP9OnReceiveEv) refers to lib.o(i._ZN7cNetUDP6Socket4openE8cNetAddrILh4EEt) for cNetUDP::Socket::open(cNetAddr<(unsigned char)4>, unsigned short)
    lib.o(i._ZN8cNetDHCP9OnReceiveEv) refers to lib.o(i._ZN8cNetDHCP4sendEh) for cNetDHCP::send(unsigned char)
    lib.o(i._ZN8cNetDHCP9OnReceiveEv) refers to lib.o(.constdata) for zeroAddr
    lib.o(i._ZN8cNetDHCP9OnTimeoutEv) refers to lib.o(t._ZNK8cNetAddrILh4EEeqERKS0_) for cNetAddr<(unsigned char)4>::operator ==(const cNetAddr<(unsigned char)4>&) const
    lib.o(i._ZN8cNetDHCP9OnTimeoutEv) refers to lib.o(i._ZN7cNetUDP6Socket4openE8cNetAddrILh4EEt) for cNetUDP::Socket::open(cNetAddr<(unsigned char)4>, unsigned short)
    lib.o(i._ZN8cNetDHCP9OnTimeoutEv) refers to lib.o(i._ZN8cNetDHCP4sendEh) for cNetDHCP::send(unsigned char)
    lib.o(i._ZN8cNetDHCP9OnTimeoutEv) refers to lib.o(.constdata) for zeroAddr
    lib.o(i._ZN8cNetDHCPC1ER7cNetUDPPKc) refers to lib.o(i._ZN5cList4ItemC1EPS_) for cList::Item::Item(cList*)
    lib.o(i._ZN8cNetDHCPC1ER7cNetUDPPKc) refers to lib.o(i._ZN7cNetUDP6SocketC1ERS_R15cNetApplication8cNetAddrILh4EEtt) for cNetUDP::Socket::Socket(cNetUDP&, cNetApplication&, cNetAddr<(unsigned char)4>, unsigned short, unsigned short)
    lib.o(i._ZN8cNetDHCPC1ER7cNetUDPPKc) refers to lib.o(i._ZN15cNetApplication10setTimeoutEtt) for cNetApplication::setTimeout(unsigned short, unsigned short)
    lib.o(i._ZN8cNetDHCPC1ER7cNetUDPPKc) refers to lib.o(.constdata__ZTV15cNetApplication) for vtable for cNetApplication
    lib.o(i._ZN8cNetDHCPC1ER7cNetUDPPKc) refers to lib.o(.constdata__ZTV8cNetDHCP) for vtable for cNetDHCP
    lib.o(i._ZN8cNetDHCPC1ER7cNetUDPPKc) refers to lib.o(.constdata) for broadcastAddr
    lib.o(i._ZN8cNetICMP7processEv) refers to lib.o(t._ZN8cNetTYPEItEcvtEv) for cNetTYPE<unsigned short>::operator unsigned short()
    lib.o(i._ZN8cNetICMP7processEv) refers to lib.o(i._ZN6cNetIP6createE8cNetAddrILh6EES0_ILh4EEtt) for cNetIP::create(cNetAddr<(unsigned char)6>, cNetAddr<(unsigned char)4>, unsigned short, unsigned short)
    lib.o(i._ZN8cNetICMP7processEv) refers to lib.o(t._ZN8cNetTYPEItEaSEt) for cNetTYPE<unsigned short>::operator =(unsigned short)
    lib.o(i._ZN8cNetICMP7processEv) refers to lib.o(i._Z8ChecksumPhtj) for Checksum(unsigned char*, unsigned short, unsigned)
    lib.o(i._ZN9cHwMemoryC2Ejh) refers to lib.o(.constdata__ZTV9cHwMemory) for vtable for cHwMemory
    lib.o(i._ZN9cHwPort_N10setPinModeEhN7cHwPort4ModeE) refers to lib.o(i._ZN7cSystem16disableInterruptEv) for cSystem::disableInterrupt()
    lib.o(i._ZN9cHwPort_N10setPinModeEhN7cHwPort4ModeE) refers to lib.o(i._ZN7cSystem15enableInterruptEv) for cSystem::enableInterrupt()
    lib.o(i._ZN9cHwPort_NC1ENS_6PortIdE) refers to lib.o(.constdata__ZTV7cHwPort) for vtable for cHwPort
    lib.o(i._ZN9cHwPort_NC1ENS_6PortIdE) refers to lib.o(.constdata__ZTV9cHwPort_N) for vtable for cHwPort_N
    lib.o(i._ZN9cHwUART_NC1ENS_8USART_IdEN7cHwUART4ModeEhh) refers to lib.o(i._ZN7cHwUARTC2Ehh) for cHwUART::cHwUART__sub_object(unsigned char, unsigned char)
    lib.o(i._ZN9cHwUART_NC1ENS_8USART_IdEN7cHwUART4ModeEhh) refers to lib.o(i._ZN12cHwPinConfig3setENS_8FunctionEj) for cHwPinConfig::set(cHwPinConfig::Function, unsigned)
    lib.o(i._ZN9cHwUART_NC1ENS_8USART_IdEN7cHwUART4ModeEhh) refers to lib.o(i._Z16__NVIC_EnableIRQ4IRQn) for __NVIC_EnableIRQ(IRQn)
    lib.o(i._ZN9cHwUART_NC1ENS_8USART_IdEN7cHwUART4ModeEhh) refers to fdiv.o(x$fpl$fdiv) for __aeabi_fdiv
    lib.o(i._ZN9cHwUART_NC1ENS_8USART_IdEN7cHwUART4ModeEhh) refers to ffixu.o(x$fpl$ffixu) for __aeabi_f2uiz
    lib.o(i._ZN9cHwUART_NC1ENS_8USART_IdEN7cHwUART4ModeEhh) refers to lib.o(.constdata__ZTV9cHwUART_N) for vtable for cHwUART_N
    lib.o(i._ZN9cHwUART_NC1ENS_8USART_IdEN7cHwUART4ModeEhh) refers to lib.o(.data) for cHwUART_N::uartPtr_1
    lib.o(i._ZThn16_N20cDevAnalogOutPWMemul6updateEv) refers to lib.o(i._ZN20cDevAnalogOutPWMemul6updateEv) for cDevAnalogOutPWMemul::update()
    lib.o(i.__cxa_pure_virtual) refers to abort.o(.text) for abort
    lib.o(.ARM.exidx) refers to lib.o(i.SystemInit) for i.SystemInit
    lib.o(.ARM.exidx) refers to lib.o(i.SysTick_Handler) for i.SysTick_Handler
    lib.o(.ARM.exidx) refers to lib.o(i.PendSV_Handler) for i.PendSV_Handler
    lib.o(.ARM.exidx) refers to lib.o(i.ADC1_IRQHandler) for i.ADC1_IRQHandler
    lib.o(.ARM.exidx) refers to lib.o(i._ZN10cHwTimer_N3isrEv) for i._ZN10cHwTimer_N3isrEv
    lib.o(.ARM.exidx) refers to lib.o(i.TIM2_IRQHandler) for i.TIM2_IRQHandler
    lib.o(.ARM.exidx) refers to lib.o(i.TIM3_IRQHandler) for i.TIM3_IRQHandler
    lib.o(.ARM.exidx) refers to lib.o(i.TIM4_IRQHandler) for i.TIM4_IRQHandler
    lib.o(.ARM.exidx) refers to lib.o(i.TIM5_IRQHandler) for i.TIM5_IRQHandler
    lib.o(.ARM.exidx) refers to lib.o(i.TIM6_IRQHandler) for i.TIM6_IRQHandler
    lib.o(.ARM.exidx) refers to lib.o(i.TIM7_IRQHandler) for i.TIM7_IRQHandler
    lib.o(.ARM.exidx) refers to lib.o(i._ZN9cHwUART_N3isrEv) for i._ZN9cHwUART_N3isrEv
    lib.o(.ARM.exidx) refers to lib.o(i.USART1_IRQHandler) for i.USART1_IRQHandler
    lib.o(.ARM.exidx) refers to lib.o(i.USART2_IRQHandler) for i.USART2_IRQHandler
    lib.o(.ARM.exidx) refers to lib.o(i.USART3_IRQHandler) for i.USART3_IRQHandler
    lib.o(.ARM.exidx) refers to lib.o(i._ZN8cHwUSB_08EPconfig9clrCTR_TXEv) for i._ZN8cHwUSB_08EPconfig9clrCTR_TXEv
    lib.o(.ARM.exidx) refers to lib.o(i._ZN8cHwUSB_08EPconfig9clrCTR_RXEv) for i._ZN8cHwUSB_08EPconfig9clrCTR_RXEv
    lib.o(.ARM.exidx) refers to lib.o(i.USB_LP_IRQHandler) for i.USB_LP_IRQHandler
    lib.o(.ARM.exidx) refers to lib.o(i._Z4htont) for i._Z4htont
    lib.o(.ARM.exidx) refers to lib.o(i._Z4htonj) for i._Z4htonj
    lib.o(.ARM.exidx) refers to lib.o(i._Z4ntoht) for i._Z4ntoht
    lib.o(.ARM.exidx) refers to lib.o(i._Z4ntohj) for i._Z4ntohj
    lib.o(.ARM.exidx) refers to lib.o(i._Z8ChecksumPhtj) for i._Z8ChecksumPhtj
    lib.o(.ARM.exidx) refers to lib.o(i.__cxa_pure_virtual) for i.__cxa_pure_virtual
    lib.o(.ARM.exidx) refers to lib.o(i._ZN7cSystem16disableInterruptEv) for i._ZN7cSystem16disableInterruptEv
    lib.o(.ARM.exidx) refers to lib.o(i._ZN7cSystem15disableWatchdogEv) for i._ZN7cSystem15disableWatchdogEv
    lib.o(.ARM.exidx) refers to lib.o(i._ZN7cSystemC1Eh) for i._ZN7cSystemC1Eh
    lib.o(.ARM.exidx) refers to lib.o(i._ZN7cSystem15enableInterruptEv) for i._ZN7cSystem15enableInterruptEv
    lib.o(.ARM.exidx) refers to lib.o(i._ZN7cSystem5startEv) for i._ZN7cSystem5startEv
    lib.o(.ARM.exidx) refers to lib.o(i._ZN7cSystem8enterISREv) for i._ZN7cSystem8enterISREv
    lib.o(.ARM.exidx) refers to lib.o(i._ZN7cSystem8leaveISREv) for i._ZN7cSystem8leaveISREv
    lib.o(.ARM.exidx) refers to lib.o(i._ZN7cSystem14enableWatchdogENS_4MODEE) for i._ZN7cSystem14enableWatchdogENS_4MODEE
    lib.o(.ARM.exidx) refers to lib.o(i._ZN7cSystem12feedWatchdogEv) for i._ZN7cSystem12feedWatchdogEv
    lib.o(.ARM.exidx) refers to lib.o(i._ZN7cSystem5resetEv) for i._ZN7cSystem5resetEv
    lib.o(.ARM.exidx) refers to lib.o(i._ZN7cSystem13delayMicroSecEt) for i._ZN7cSystem13delayMicroSecEt
    lib.o(.ARM.exidx) refers to lib.o(i._ZN7cSystem13delayMilliSecEt) for i._ZN7cSystem13delayMilliSecEt
    lib.o(.ARM.exidx) refers to lib.o(i._ZN12cHwPinConfig3setEP12GPIO_TypeDefhjh) for i._ZN12cHwPinConfig3setEP12GPIO_TypeDefhjh
    lib.o(.ARM.exidx) refers to lib.o(i._ZN12cHwPinConfig3setENS_8FunctionEj) for i._ZN12cHwPinConfig3setENS_8FunctionEj
    lib.o(.ARM.exidx) refers to lib.o(i._ZN11cHwRTOS_MCUC1Ev) for i._ZN11cHwRTOS_MCUC1Ev
    lib.o(.ARM.exidx) refers to lib.o(i._ZN5cListC1Ev) for i._ZN5cListC1Ev
    lib.o(.ARM.exidx) refers to lib.o(i._ZN5cList3addEPNS_4ItemE) for i._ZN5cList3addEPNS_4ItemE
    lib.o(.ARM.exidx) refers to lib.o(i._ZN5cList9updateAllEv) for i._ZN5cList9updateAllEv
    lib.o(.ARM.exidx) refers to lib.o(i._ZN5cList8getFirstEv) for i._ZN5cList8getFirstEv
    lib.o(.ARM.exidx) refers to lib.o(i._ZN5cListixEt) for i._ZN5cListixEt
    lib.o(.ARM.exidx) refers to lib.o(i._ZN5cList4ItemC1EPS_) for i._ZN5cList4ItemC1EPS_
    lib.o(.ARM.exidx) refers to lib.o(i._ZN5cList4Item7getNextEv) for i._ZN5cList4Item7getNextEv
    lib.o(.ARM.exidx) refers to lib.o(i._ZN5cList4Item7getPrevERS_) for i._ZN5cList4Item7getPrevERS_
    lib.o(.ARM.exidx) refers to lib.o(i._ZN8cHwTimer12getCycleTimeEv) for i._ZN8cHwTimer12getCycleTimeEv
    lib.o(.ARM.exidx) refers to lib.o(i._ZN8cHwTimer3addEPN5cList4ItemE) for i._ZN8cHwTimer3addEPN5cList4ItemE
    lib.o(.ARM.exidx) refers to lib.o(i._ZN6cHwADCC2EhP8cHwTimer) for i._ZN6cHwADCC2EhP8cHwTimer
    lib.o(.ARM.exidx) refers to lib.o(i._ZN6cHwADC6enableEhh) for i._ZN6cHwADC6enableEhh
    lib.o(.ARM.exidx) refers to lib.o(i._ZN8cHwADC_0C1EP8cHwTimer) for i._ZN8cHwADC_0C1EP8cHwTimer
    lib.o(.ARM.exidx) refers to lib.o(i._ZN8cHwADC_08configChEhh) for i._ZN8cHwADC_08configChEhh
    lib.o(.ARM.exidx) refers to lib.o(i._ZN6cHwDACC2Eh) for i._ZN6cHwDACC2Eh
    lib.o(.ARM.exidx) refers to lib.o(i._ZN8cHwDAC_0C1Ev) for i._ZN8cHwDAC_0C1Ev
    lib.o(.ARM.exidx) refers to lib.o(i._ZN7cHwPort3PinC1ERS_h) for i._ZN7cHwPort3PinC1ERS_h
    lib.o(.ARM.exidx) refers to lib.o(i._ZN7cHwPort3PinC1ERS_hNS_4ModeE) for i._ZN7cHwPort3PinC1ERS_hNS_4ModeE
    lib.o(.ARM.exidx) refers to lib.o(i._ZN12cHwEncoder_NC1ENS_7TimerIdEN10cHwEncoder4ModeE) for i._ZN12cHwEncoder_NC1ENS_7TimerIdEN10cHwEncoder4ModeE
    lib.o(.ARM.exidx) refers to lib.o(i._ZN12cHwEncoder_N3getEv) for i._ZN12cHwEncoder_N3getEv
    lib.o(.ARM.exidx) refers to lib.o(i._ZN12cHwI2CmasterC2Eh) for i._ZN12cHwI2CmasterC2Eh
    lib.o(.ARM.exidx) refers to lib.o(i._ZN12cHwI2Cmaster5writeEhPhhS0_h) for i._ZN12cHwI2Cmaster5writeEhPhhS0_h
    lib.o(.ARM.exidx) refers to lib.o(i._ZN12cHwI2Cmaster4readEhPhhS0_h) for i._ZN12cHwI2Cmaster4readEhPhhS0_h
    lib.o(.ARM.exidx) refers to lib.o(i._ZN12cHwI2Cmaster6Device4readEv) for i._ZN12cHwI2Cmaster6Device4readEv
    lib.o(.ARM.exidx) refers to lib.o(i._ZN12cHwI2Cmaster6Device4readEh) for i._ZN12cHwI2Cmaster6Device4readEh
    lib.o(.ARM.exidx) refers to lib.o(i._ZN12cHwI2Cmaster6Device4readEt) for i._ZN12cHwI2Cmaster6Device4readEt
    lib.o(.ARM.exidx) refers to lib.o(i._ZN12cHwI2Cmaster6Device4readEPhh) for i._ZN12cHwI2Cmaster6Device4readEPhh
    lib.o(.ARM.exidx) refers to lib.o(i._ZN12cHwI2Cmaster6Device4readEhPhh) for i._ZN12cHwI2Cmaster6Device4readEhPhh
    lib.o(.ARM.exidx) refers to lib.o(i._ZN12cHwI2Cmaster6Device4readEtPhh) for i._ZN12cHwI2Cmaster6Device4readEtPhh
    lib.o(.ARM.exidx) refers to lib.o(i._ZN12cHwI2Cmaster6Device5writeEh) for i._ZN12cHwI2Cmaster6Device5writeEh
    lib.o(.ARM.exidx) refers to lib.o(i._ZN12cHwI2Cmaster6Device5writeEhh) for i._ZN12cHwI2Cmaster6Device5writeEhh
    lib.o(.ARM.exidx) refers to lib.o(i._ZN12cHwI2Cmaster6Device5writeEth) for i._ZN12cHwI2Cmaster6Device5writeEth
    lib.o(.ARM.exidx) refers to lib.o(i._ZN12cHwI2Cmaster6Device5writeEPhh) for i._ZN12cHwI2Cmaster6Device5writeEPhh
    lib.o(.ARM.exidx) refers to lib.o(i._ZN12cHwI2Cmaster6Device5writeEhPhh) for i._ZN12cHwI2Cmaster6Device5writeEhPhh
    lib.o(.ARM.exidx) refers to lib.o(i._ZN12cHwI2Cmaster6Device5writeEtPhh) for i._ZN12cHwI2Cmaster6Device5writeEtPhh
    lib.o(.ARM.exidx) refers to lib.o(i._ZN12cHwI2Cmaster6Device7isErrorEv) for i._ZN12cHwI2Cmaster6Device7isErrorEv
    lib.o(.ARM.exidx) refers to lib.o(i._ZN17cHwI2Cmaster_EmulC1ERN7cHwPort3PinES2_N12cHwI2Cmaster4MODEE) for i._ZN17cHwI2Cmaster_EmulC1ERN7cHwPort3PinES2_N12cHwI2Cmaster4MODEE
    lib.o(.ARM.exidx) refers to lib.o(i._ZN17cHwI2Cmaster_Emul5startEv) for i._ZN17cHwI2Cmaster_Emul5startEv
    lib.o(.ARM.exidx) refers to lib.o(i._ZN17cHwI2Cmaster_Emul4stopEv) for i._ZN17cHwI2Cmaster_Emul4stopEv
    lib.o(.ARM.exidx) refers to lib.o(i._ZN17cHwI2Cmaster_Emul8sendAddrEh) for i._ZN17cHwI2Cmaster_Emul8sendAddrEh
    lib.o(.ARM.exidx) refers to lib.o(i._ZN17cHwI2Cmaster_Emul9writeByteEh) for i._ZN17cHwI2Cmaster_Emul9writeByteEh
    lib.o(.ARM.exidx) refers to lib.o(i._ZN17cHwI2Cmaster_Emul11readByteAckEv) for i._ZN17cHwI2Cmaster_Emul11readByteAckEv
    lib.o(.ARM.exidx) refers to lib.o(i._ZN17cHwI2Cmaster_Emul12readByteNackEv) for i._ZN17cHwI2Cmaster_Emul12readByteNackEv
    lib.o(.ARM.exidx) refers to lib.o(i._ZN17cHwI2Cmaster_Emul11waitForAcknEv) for i._ZN17cHwI2Cmaster_Emul11waitForAcknEv
    lib.o(.ARM.exidx) refers to lib.o(i._ZN17cHwI2Cmaster_Emul4waitEv) for i._ZN17cHwI2Cmaster_Emul4waitEv
    lib.o(.ARM.exidx) refers to lib.o(i._ZN14cHwI2Cmaster_NC1ENS_6I2C_IDEN12cHwI2Cmaster4MODEEh) for i._ZN14cHwI2Cmaster_NC1ENS_6I2C_IDEN12cHwI2Cmaster4MODEEh
    lib.o(.ARM.exidx) refers to lib.o(i._ZN9cHwMemoryC2Ejh) for i._ZN9cHwMemoryC2Ejh
    lib.o(.ARM.exidx) refers to lib.o(i._ZN16cHwMemory_EEPROMC1Ejj) for i._ZN16cHwMemory_EEPROMC1Ejj
    lib.o(.ARM.exidx) refers to lib.o(i._ZN16cHwMemory_EEPROM6unlockEv) for i._ZN16cHwMemory_EEPROM6unlockEv
    lib.o(.ARM.exidx) refers to lib.o(i._ZN16cHwMemory_EEPROM4lockEv) for i._ZN16cHwMemory_EEPROM4lockEv
    lib.o(.ARM.exidx) refers to lib.o(i._ZN16cHwMemory_EEPROM9writeByteEjh) for i._ZN16cHwMemory_EEPROM9writeByteEjh
    lib.o(.ARM.exidx) refers to lib.o(i._ZN16cHwMemory_EEPROM8readByteEj) for i._ZN16cHwMemory_EEPROM8readByteEj
    lib.o(.ARM.exidx) refers to lib.o(i._ZN15cHwMemory_FlashC1EPjj) for i._ZN15cHwMemory_FlashC1EPjj
    lib.o(.ARM.exidx) refers to lib.o(i._ZN15cHwMemory_Flash6unlockEv) for i._ZN15cHwMemory_Flash6unlockEv
    lib.o(.ARM.exidx) refers to lib.o(i._ZN15cHwMemory_Flash4lockEv) for i._ZN15cHwMemory_Flash4lockEv
    lib.o(.ARM.exidx) refers to lib.o(i._ZN15cHwMemory_Flash9writeByteEjh) for i._ZN15cHwMemory_Flash9writeByteEjh
    lib.o(.ARM.exidx) refers to lib.o(i._ZN15cHwMemory_Flash8readByteEj) for i._ZN15cHwMemory_Flash8readByteEj
    lib.o(.ARM.exidx) refers to lib.o(i._ZN15cHwMemory_Flash5clearEj) for i._ZN15cHwMemory_Flash5clearEj
    lib.o(.ARM.exidx) refers to lib.o(i._ZN13cHwMemory_RAMC1Ev) for i._ZN13cHwMemory_RAMC1Ev
    lib.o(.ARM.exidx) refers to lib.o(i._ZN13cHwMemory_RAM6unlockEv) for i._ZN13cHwMemory_RAM6unlockEv
    lib.o(.ARM.exidx) refers to lib.o(i._ZN13cHwMemory_RAM4lockEv) for i._ZN13cHwMemory_RAM4lockEv
    lib.o(.ARM.exidx) refers to lib.o(i._ZN9cHwPort_NC1ENS_6PortIdE) for i._ZN9cHwPort_NC1ENS_6PortIdE
    lib.o(.ARM.exidx) refers to lib.o(i._ZN9cHwPort_N7setModeEjN7cHwPort4ModeE) for i._ZN9cHwPort_N7setModeEjN7cHwPort4ModeE
    lib.o(.ARM.exidx) refers to lib.o(i._ZN9cHwPort_N10setPinModeEhN7cHwPort4ModeE) for i._ZN9cHwPort_N10setPinModeEhN7cHwPort4ModeE
    lib.o(.ARM.exidx) refers to lib.o(i._ZN6cHwRTCC2Ev) for i._ZN6cHwRTCC2Ev
    lib.o(.ARM.exidx) refers to lib.o(i._ZN8cHwRTC_0C1Ev) for i._ZN8cHwRTC_0C1Ev
    lib.o(.ARM.exidx) refers to lib.o(i._ZN8cHwRTC_03setERKN6cHwRTC10PropertiesE) for i._ZN8cHwRTC_03setERKN6cHwRTC10PropertiesE
    lib.o(.ARM.exidx) refers to lib.o(i._ZN8cHwRTC_03getERN6cHwRTC10PropertiesE) for i._ZN8cHwRTC_03getERN6cHwRTC10PropertiesE
    lib.o(.ARM.exidx) refers to lib.o(i._ZN12cHwSPImasterC2Ev) for i._ZN12cHwSPImasterC2Ev
    lib.o(.ARM.exidx) refers to lib.o(i._ZN12cHwSPImaster6Device10transceiveEh) for i._ZN12cHwSPImaster6Device10transceiveEh
    lib.o(.ARM.exidx) refers to lib.o(i._ZN12cHwSPImaster6Device10transceiveEPht) for i._ZN12cHwSPImaster6Device10transceiveEPht
    lib.o(.ARM.exidx) refers to lib.o(i._ZN14cHwSPImaster_N14transceiveByteEh) for i._ZN14cHwSPImaster_N14transceiveByteEh
    lib.o(.ARM.exidx) refers to lib.o(i._ZN14cHwSPImaster_NC1ENS_6SPI_IDEN12cHwSPImaster4MODEENS1_11ClockPolPhaE) for i._ZN14cHwSPImaster_NC1ENS_6SPI_IDEN12cHwSPImaster4MODEENS1_11ClockPolPhaE
    lib.o(.ARM.exidx) refers to lib.o(i._ZN14cHwSPImaster_N17transceiveByteExtEhh) for i._ZN14cHwSPImaster_N17transceiveByteExtEhh
    lib.o(.ARM.exidx) refers to lib.o(i._ZN10cHwTimer_NC1ENS_7TimerIdEj) for i._ZN10cHwTimer_NC1ENS_7TimerIdEj
    lib.o(.ARM.exidx) refers to lib.o(i._ZN10cHwTimer_N9enablePWMEhN8cHwTimer4ModeE) for i._ZN10cHwTimer_N9enablePWMEhN8cHwTimer4ModeE
    lib.o(.ARM.exidx) refers to lib.o(i._ZN10cHwTimer_N6setPWMEth) for i._ZN10cHwTimer_N6setPWMEth
    lib.o(.ARM.exidx) refers to lib.o(i._ZN7cHwUARTC2Ehh) for i._ZN7cHwUARTC2Ehh
    lib.o(.ARM.exidx) refers to lib.o(i._ZN7cHwUART3setEh) for i._ZN7cHwUART3setEh
    lib.o(.ARM.exidx) refers to lib.o(i._ZN7cHwUART3setEPKhh) for i._ZN7cHwUART3setEPKhh
    lib.o(.ARM.exidx) refers to lib.o(i._ZN7cHwUART3setEPKc) for i._ZN7cHwUART3setEPKc
    lib.o(.ARM.exidx) refers to lib.o(i._ZN7cHwUART3getEPh) for i._ZN7cHwUART3getEPh
    lib.o(.ARM.exidx) refers to lib.o(i._ZN7cHwUART3getEv) for i._ZN7cHwUART3getEv
    lib.o(.ARM.exidx) refers to lib.o(i._ZN7cHwUART12transmitByteEh) for i._ZN7cHwUART12transmitByteEh
    lib.o(.ARM.exidx) refers to lib.o(i._ZN9cHwUART_NC1ENS_8USART_IdEN7cHwUART4ModeEhh) for i._ZN9cHwUART_NC1ENS_8USART_IdEN7cHwUART4ModeEhh
    lib.o(.ARM.exidx) refers to lib.o(i._ZN10cHwUSBdesc19getDescriptorDeviceEv) for i._ZN10cHwUSBdesc19getDescriptorDeviceEv
    lib.o(.ARM.exidx) refers to lib.o(i._ZN10cHwUSBdesc19getDescriptorConfigEh) for i._ZN10cHwUSBdesc19getDescriptorConfigEh
    lib.o(.ARM.exidx) refers to lib.o(i._ZN10cHwUSBdesc22getDescriptorInterfaceEhh) for i._ZN10cHwUSBdesc22getDescriptorInterfaceEhh
    lib.o(.ARM.exidx) refers to lib.o(i._ZN10cHwUSBdesc21getDescriptorEndpointEhhh) for i._ZN10cHwUSBdesc21getDescriptorEndpointEhhh
    lib.o(.ARM.exidx) refers to lib.o(i._ZN10cHwUSBdesc16getDescriptorHIDEhhh) for i._ZN10cHwUSBdesc16getDescriptorHIDEhhh
    lib.o(.ARM.exidx) refers to lib.o(i._ZN10cHwUSBdesc22getDescriptorHIDreportEhhh) for i._ZN10cHwUSBdesc22getDescriptorHIDreportEhhh
    lib.o(.ARM.exidx) refers to lib.o(i._ZN10cHwUSBdesc19getDescriptorStringEh) for i._ZN10cHwUSBdesc19getDescriptorStringEh
    lib.o(.ARM.exidx) refers to lib.o(i._ZN10cHwUSBdesc17getMaxPacketSize0Ev) for i._ZN10cHwUSBdesc17getMaxPacketSize0Ev
    lib.o(.ARM.exidx) refers to lib.o(i._ZN10cHwUSBdesc21getConfigDeviceStatusEh) for i._ZN10cHwUSBdesc21getConfigDeviceStatusEh
    lib.o(.ARM.exidx) refers to lib.o(i._ZN14cHwUSBendpointC1ER6cHwUSBP12cHwUSBinterfhth) for i._ZN14cHwUSBendpointC1ER6cHwUSBP12cHwUSBinterfhth
    lib.o(.ARM.exidx) refers to lib.o(i._ZN14cHwUSBendpointC1ER6cHwUSBht) for i._ZN14cHwUSBendpointC1ER6cHwUSBht
    lib.o(.ARM.exidx) refers to lib.o(i._ZN14cHwUSBendpoint9writeDataEv) for i._ZN14cHwUSBendpoint9writeDataEv
    lib.o(.ARM.exidx) refers to lib.o(i._ZN14cHwUSBendpoint2inEv) for i._ZN14cHwUSBendpoint2inEv
    lib.o(.ARM.exidx) refers to lib.o(i._ZN14cHwUSBendpoint6inCtrlEv) for i._ZN14cHwUSBendpoint6inCtrlEv
    lib.o(.ARM.exidx) refers to lib.o(i._ZN14cHwUSBendpoint5stallEv) for i._ZN14cHwUSBendpoint5stallEv
    lib.o(.ARM.exidx) refers to lib.o(i._ZN14cHwUSBendpoint8readDataEv) for i._ZN14cHwUSBendpoint8readDataEv
    lib.o(.ARM.exidx) refers to lib.o(i._ZN14cHwUSBendpoint3outEv) for i._ZN14cHwUSBendpoint3outEv
    lib.o(.ARM.exidx) refers to lib.o(i._ZN14cHwUSBendpoint16writeAcknowledgeEv) for i._ZN14cHwUSBendpoint16writeAcknowledgeEv
    lib.o(.ARM.exidx) refers to lib.o(i._ZN14cHwUSBendpoint7outCtrlEv) for i._ZN14cHwUSBendpoint7outCtrlEv
    lib.o(.ARM.exidx) refers to lib.o(i._ZN14cHwUSBendpoint9writeDataERK12cDataPointer) for i._ZN14cHwUSBendpoint9writeDataERK12cDataPointer
    lib.o(.ARM.exidx) refers to lib.o(i._ZN14cHwUSBendpoint12writeDataLenERK12cDataPointert) for i._ZN14cHwUSBendpoint12writeDataLenERK12cDataPointert
    lib.o(.ARM.exidx) refers to lib.o(i._ZN14cHwUSBendpoint15readAcknowledgeEv) for i._ZN14cHwUSBendpoint15readAcknowledgeEv
    lib.o(.ARM.exidx) refers to lib.o(i._ZN14cHwUSBendpoint8clrStallEv) for i._ZN14cHwUSBendpoint8clrStallEv
    lib.o(.ARM.exidx) refers to lib.o(i._ZN14cHwUSBendpoint10clrFeatureEv) for i._ZN14cHwUSBendpoint10clrFeatureEv
    lib.o(.ARM.exidx) refers to lib.o(i._ZN14cHwUSBendpoint16setConfigurationEv) for i._ZN14cHwUSBendpoint16setConfigurationEv
    lib.o(.ARM.exidx) refers to lib.o(i._ZN10cHwUSBctrlC1ER6cHwUSB) for i._ZN10cHwUSBctrlC1ER6cHwUSB
    lib.o(.ARM.exidx) refers to lib.o(i._ZN10cHwUSBctrl5setupEv) for i._ZN10cHwUSBctrl5setupEv
    lib.o(.ARM.exidx) refers to lib.o(i._ZN10cHwUSBctrl3outEv) for i._ZN10cHwUSBctrl3outEv
    lib.o(.ARM.exidx) refers to lib.o(i._ZN10cHwUSBctrl2inEv) for i._ZN10cHwUSBctrl2inEv
    lib.o(.ARM.exidx) refers to lib.o(i._ZN12cHwUSBinterfC2ER6cHwUSBhh) for i._ZN12cHwUSBinterfC2ER6cHwUSBhh
    lib.o(.ARM.exidx) refers to lib.o(i._ZN6cHwUSBC2ER10cHwUSBdesc) for i._ZN6cHwUSBC2ER10cHwUSBdesc
    lib.o(.ARM.exidx) refers to lib.o(i._ZN6cHwUSB12eventHandlerEhh) for i._ZN6cHwUSB12eventHandlerEhh
    lib.o(.ARM.exidx) refers to lib.o(i._ZN8cHwUSB_0C1ER10cHwUSBdesc) for i._ZN8cHwUSB_0C1ER10cHwUSBdesc
    lib.o(.ARM.exidx) refers to lib.o(i._ZN8cHwUSB_05startEv) for i._ZN8cHwUSB_05startEv
    lib.o(.ARM.exidx) refers to lib.o(i._ZN8cHwUSB_08EPconfig10setSTAT_TXEj) for i._ZN8cHwUSB_08EPconfig10setSTAT_TXEj
    lib.o(.ARM.exidx) refers to lib.o(i._ZN8cHwUSB_08EPconfig10setSTAT_RXEj) for i._ZN8cHwUSB_08EPconfig10setSTAT_RXEj
    lib.o(.ARM.exidx) refers to lib.o(i._ZN8cHwUSB_08EPconfig8bdt_initEhht) for i._ZN8cHwUSB_08EPconfig8bdt_initEhht
    lib.o(.ARM.exidx) refers to lib.o(i._ZN8cHwUSB_08EPconfig4initEjjjt) for i._ZN8cHwUSB_08EPconfig4initEjjjt
    lib.o(.ARM.exidx) refers to lib.o(i._ZN8cHwUSB_05resetEv) for i._ZN8cHwUSB_05resetEv
    lib.o(.ARM.exidx) refers to lib.o(i._ZN8cHwUSB_09configureEh) for i._ZN8cHwUSB_09configureEh
    lib.o(.ARM.exidx) refers to lib.o(i._ZN8cHwUSB_010setAddressEh) for i._ZN8cHwUSB_010setAddressEh
    lib.o(.ARM.exidx) refers to lib.o(i._ZN8cHwUSB_08configEPEhth) for i._ZN8cHwUSB_08configEPEhth
    lib.o(.ARM.exidx) refers to lib.o(i._ZN8cHwUSB_010setStallEPEh) for i._ZN8cHwUSB_010setStallEPEh
    lib.o(.ARM.exidx) refers to lib.o(i._ZN8cHwUSB_010clrStallEPEh) for i._ZN8cHwUSB_010clrStallEPEh
    lib.o(.ARM.exidx) refers to lib.o(i._ZN8cHwUSB_06readEPEhPht) for i._ZN8cHwUSB_06readEPEhPht
    lib.o(.ARM.exidx) refers to lib.o(i._ZN8cHwUSB_07writeEPEhPht) for i._ZN8cHwUSB_07writeEPEhPht
    lib.o(.ARM.exidx) refers to lib.o(i._ZN13cNetTransportC2Ev) for i._ZN13cNetTransportC2Ev
    lib.o(.ARM.exidx) refers to lib.o(i._ZN13cNetTransport7processEv) for i._ZN13cNetTransport7processEv
    lib.o(.ARM.exidx) refers to lib.o(i._ZN13cNetTransport6updateEv) for i._ZN13cNetTransport6updateEv
    lib.o(.ARM.exidx) refers to lib.o(i._ZN13cNetTransport7timeoutEv) for i._ZN13cNetTransport7timeoutEv
    lib.o(.ARM.exidx) refers to lib.o(i._ZN13cNetTransport6SocketC2ERS_R15cNetApplication8cNetAddrILh4EEt) for i._ZN13cNetTransport6SocketC2ERS_R15cNetApplication8cNetAddrILh4EEt
    lib.o(.ARM.exidx) refers to lib.o(i._ZN13cNetTransport6Socket11getRemoteIPEv) for i._ZN13cNetTransport6Socket11getRemoteIPEv
    lib.o(.ARM.exidx) refers to lib.o(i._ZN11cHwEthernetC2ERK8cNetAddrILh6EE) for i._ZN11cHwEthernetC2ERK8cNetAddrILh6EE
    lib.o(.ARM.exidx) refers to lib.o(i._ZN6cNetIP6updateEv) for i._ZN6cNetIP6updateEv
    lib.o(.ARM.exidx) refers to lib.o(i._ZN6cNetIP6createE8cNetAddrILh6EES0_ILh4EEtt) for i._ZN6cNetIP6createE8cNetAddrILh6EES0_ILh4EEtt
    lib.o(.ARM.exidx) refers to lib.o(i._ZN8cNetICMP7processEv) for i._ZN8cNetICMP7processEv
    lib.o(.ARM.exidx) refers to lib.o(i._ZN6cNetIP7processEv) for i._ZN6cNetIP7processEv
    lib.o(.ARM.exidx) refers to lib.o(i._ZN7cNetARP7processEv) for i._ZN7cNetARP7processEv
    lib.o(.ARM.exidx) refers to lib.o(i._ZN11cHwEthernet6updateEv) for i._ZN11cHwEthernet6updateEv
    lib.o(.ARM.exidx) refers to lib.o(i._ZN11cHwEthernet6setARPEP7cNetARP) for i._ZN11cHwEthernet6setARPEP7cNetARP
    lib.o(.ARM.exidx) refers to lib.o(i._ZN11cHwEthernet5setIPEP6cNetIP) for i._ZN11cHwEthernet5setIPEP6cNetIP
    lib.o(.ARM.exidx) refers to lib.o(i._ZN11cHwEthernet5getIPEv) for i._ZN11cHwEthernet5getIPEv
    lib.o(.ARM.exidx) refers to lib.o(i._ZN11cHwEthernet7isNewIPEv) for i._ZN11cHwEthernet7isNewIPEv
    lib.o(.ARM.exidx) refers to lib.o(i._ZN7cNetARPC1ER11cHwEthernetR8cNetAddrILh4EE) for i._ZN7cNetARPC1ER11cHwEthernetR8cNetAddrILh4EE
    lib.o(.ARM.exidx) refers to lib.o(i._ZN7cNetARP7requestER8cNetAddrILh4EE) for i._ZN7cNetARP7requestER8cNetAddrILh4EE
    lib.o(.ARM.exidx) refers to lib.o(i._ZN7cNetARP6setTCPEP7cNetTCP) for i._ZN7cNetARP6setTCPEP7cNetTCP
    lib.o(.ARM.exidx) refers to lib.o(i._ZN7cNetARP6setUDPEP7cNetUDP) for i._ZN7cNetARP6setUDPEP7cNetUDP
    lib.o(.ARM.exidx) refers to lib.o(i._ZN6cNetIPC1ER11cHwEthernetRK8cNetAddrILh4EER8cHwTimer) for i._ZN6cNetIPC1ER11cHwEthernetRK8cNetAddrILh4EER8cHwTimer
    lib.o(.ARM.exidx) refers to lib.o(i._ZN7cNetUDPC1ER6cNetIP) for i._ZN7cNetUDPC1ER6cNetIP
    lib.o(.ARM.exidx) refers to lib.o(i._ZN7cNetUDP9handleARPE8cNetAddrILh4EES0_ILh6EE) for i._ZN7cNetUDP9handleARPE8cNetAddrILh4EES0_ILh6EE
    lib.o(.ARM.exidx) refers to lib.o(i._ZN7cNetUDP6createERNS_6SocketEt) for i._ZN7cNetUDP6createERNS_6SocketEt
    lib.o(.ARM.exidx) refers to lib.o(i._ZN7cNetUDP6SocketC1ERS_R15cNetApplication8cNetAddrILh4EEtt) for i._ZN7cNetUDP6SocketC1ERS_R15cNetApplication8cNetAddrILh4EEtt
    lib.o(.ARM.exidx) refers to lib.o(i._ZN7cNetUDP6Socket4openE8cNetAddrILh4EEt) for i._ZN7cNetUDP6Socket4openE8cNetAddrILh4EEt
    lib.o(.ARM.exidx) refers to lib.o(i._ZN7cNetUDP6Socket5closeEv) for i._ZN7cNetUDP6Socket5closeEv
    lib.o(.ARM.exidx) refers to lib.o(i._ZN7cNetUDP6Socket11isConnectedEv) for i._ZN7cNetUDP6Socket11isConnectedEv
    lib.o(.ARM.exidx) refers to lib.o(i._ZN7cNetUDP6Socket7isReadyEv) for i._ZN7cNetUDP6Socket7isReadyEv
    lib.o(.ARM.exidx) refers to lib.o(i._ZN7cNetUDP6Socket5clearEv) for i._ZN7cNetUDP6Socket5clearEv
    lib.o(.ARM.exidx) refers to lib.o(i._ZN7cNetUDP6Socket10fillBufferEc) for i._ZN7cNetUDP6Socket10fillBufferEc
    lib.o(.ARM.exidx) refers to lib.o(i._ZN7cNetUDP6Socket4sendEv) for i._ZN7cNetUDP6Socket4sendEv
    lib.o(.ARM.exidx) refers to lib.o(i._ZN7cNetUDP6Socket3getEPc) for i._ZN7cNetUDP6Socket3getEPc
    lib.o(.ARM.exidx) refers to lib.o(i._ZN7cNetUDP6Socket10getDataPtrEv) for i._ZN7cNetUDP6Socket10getDataPtrEv
    lib.o(.ARM.exidx) refers to lib.o(i._ZN7cNetUDP6Socket13setDataLengthEt) for i._ZN7cNetUDP6Socket13setDataLengthEt
    lib.o(.ARM.exidx) refers to lib.o(i._ZN7cNetUDP6Socket7processEv) for i._ZN7cNetUDP6Socket7processEv
    lib.o(.ARM.exidx) refers to lib.o(i._ZN7cNetUDP6Socket6updateEv) for i._ZN7cNetUDP6Socket6updateEv
    lib.o(.ARM.exidx) refers to lib.o(i._ZN7cNetUDP6Socket7timeoutEv) for i._ZN7cNetUDP6Socket7timeoutEv
    lib.o(.ARM.exidx) refers to lib.o(i._ZN8cNetDHCPC1ER7cNetUDPPKc) for i._ZN8cNetDHCPC1ER7cNetUDPPKc
    lib.o(.ARM.exidx) refers to lib.o(i._ZN8cNetDHCP4sendEh) for i._ZN8cNetDHCP4sendEh
    lib.o(.ARM.exidx) refers to lib.o(i._ZN8cNetDHCP13parse_optionsEPhi) for i._ZN8cNetDHCP13parse_optionsEPhi
    lib.o(.ARM.exidx) refers to lib.o(i._ZN8cNetDHCP9OnReceiveEv) for i._ZN8cNetDHCP9OnReceiveEv
    lib.o(.ARM.exidx) refers to lib.o(i._ZN8cNetDHCP7OnErrorEv) for i._ZN8cNetDHCP7OnErrorEv
    lib.o(.ARM.exidx) refers to lib.o(i._ZN8cNetDHCP9OnTimeoutEv) for i._ZN8cNetDHCP9OnTimeoutEv
    lib.o(.ARM.exidx) refers to lib.o(i._ZN8cNetICMPC1ER6cNetIP) for i._ZN8cNetICMPC1ER6cNetIP
    lib.o(.ARM.exidx) refers to lib.o(i._ZN7cNetTCPC1ER6cNetIP) for i._ZN7cNetTCPC1ER6cNetIP
    lib.o(.ARM.exidx) refers to lib.o(i._ZN7cNetTCP9handleARPE8cNetAddrILh4EES0_ILh6EE) for i._ZN7cNetTCP9handleARPE8cNetAddrILh4EES0_ILh6EE
    lib.o(.ARM.exidx) refers to lib.o(i._ZN7cNetTCP6createERNS_6SocketEt) for i._ZN7cNetTCP6createERNS_6SocketEt
    lib.o(.ARM.exidx) refers to lib.o(i._ZN7cNetTCP6SocketC1ERS_R15cNetApplication8cNetAddrILh4EEt) for i._ZN7cNetTCP6SocketC1ERS_R15cNetApplication8cNetAddrILh4EEt
    lib.o(.ARM.exidx) refers to lib.o(i._ZN7cNetTCP6Socket4openE8cNetAddrILh4EEt) for i._ZN7cNetTCP6Socket4openE8cNetAddrILh4EEt
    lib.o(.ARM.exidx) refers to lib.o(i._ZN7cNetTCP6Socket5closeEv) for i._ZN7cNetTCP6Socket5closeEv
    lib.o(.ARM.exidx) refers to lib.o(i._ZN7cNetTCP6Socket11isConnectedEv) for i._ZN7cNetTCP6Socket11isConnectedEv
    lib.o(.ARM.exidx) refers to lib.o(i._ZN7cNetTCP6Socket7isReadyEv) for i._ZN7cNetTCP6Socket7isReadyEv
    lib.o(.ARM.exidx) refers to lib.o(i._ZN7cNetTCP6Socket5clearEv) for i._ZN7cNetTCP6Socket5clearEv
    lib.o(.ARM.exidx) refers to lib.o(i._ZN7cNetTCP6Socket10fillBufferEc) for i._ZN7cNetTCP6Socket10fillBufferEc
    lib.o(.ARM.exidx) refers to lib.o(i._ZN7cNetTCP6Socket4sendEv) for i._ZN7cNetTCP6Socket4sendEv
    lib.o(.ARM.exidx) refers to lib.o(i._ZN7cNetTCP6Socket3getEPc) for i._ZN7cNetTCP6Socket3getEPc
    lib.o(.ARM.exidx) refers to lib.o(i._ZN7cNetTCP6Socket10getDataPtrEv) for i._ZN7cNetTCP6Socket10getDataPtrEv
    lib.o(.ARM.exidx) refers to lib.o(i._ZN7cNetTCP6Socket13setDataLengthEt) for i._ZN7cNetTCP6Socket13setDataLengthEt
    lib.o(.ARM.exidx) refers to lib.o(i._ZN7cNetTCP6Socket7processEv) for i._ZN7cNetTCP6Socket7processEv
    lib.o(.ARM.exidx) refers to lib.o(i._ZN7cNetTCP6Socket6updateEv) for i._ZN7cNetTCP6Socket6updateEv
    lib.o(.ARM.exidx) refers to lib.o(i._ZN7cNetTCP6Socket7timeoutEv) for i._ZN7cNetTCP6Socket7timeoutEv
    lib.o(.ARM.exidx) refers to lib.o(i._ZN4cCRCC1ENS_4MODEEtt) for i._ZN4cCRCC1ENS_4MODEEtt
    lib.o(.ARM.exidx) refers to lib.o(i._ZN4cCRCD1Ev) for i._ZN4cCRCD1Ev
    lib.o(.ARM.exidx) refers to lib.o(i._ZN4cCRCclEPKhj) for i._ZN4cCRCclEPKhj
    lib.o(.ARM.exidx) refers to lib.o(i._ZN4cCRCclEh) for i._ZN4cCRCclEh
    lib.o(.ARM.exidx) refers to lib.o(i._ZN6cTimerC2Ev) for i._ZN6cTimerC2Ev
    lib.o(.ARM.exidx) refers to lib.o(i._ZN6cTimer5startEv) for i._ZN6cTimer5startEv
    lib.o(.ARM.exidx) refers to lib.o(i._ZN6cTimer3setEtt) for i._ZN6cTimer3setEtt
    lib.o(.ARM.exidx) refers to lib.o(i._ZN6cTimer5startEtt) for i._ZN6cTimer5startEtt
    lib.o(.ARM.exidx) refers to lib.o(i._ZN6cTimer7timeoutEv) for i._ZN6cTimer7timeoutEv
    lib.o(.ARM.exidx) refers to lib.o(i._ZN6cTimer7timeoutEtt) for i._ZN6cTimer7timeoutEtt
    lib.o(.ARM.exidx) refers to lib.o(i._ZN6cTimer4stopEv) for i._ZN6cTimer4stopEv
    lib.o(.ARM.exidx) refers to lib.o(i._ZN6cTimer9isRunningEv) for i._ZN6cTimer9isRunningEv
    lib.o(.ARM.exidx) refers to lib.o(i._ZN10cDevAnalogC1Ehff) for i._ZN10cDevAnalogC1Ehff
    lib.o(.ARM.exidx) refers to lib.o(i._ZN12cDevAnalogInC2Ehff) for i._ZN12cDevAnalogInC2Ehff
    lib.o(.ARM.exidx) refers to lib.o(i._ZN12cDevAnalogIn9calibrateEffff) for i._ZN12cDevAnalogIn9calibrateEffff
    lib.o(.ARM.exidx) refers to lib.o(i._ZN15cDevAnalogInADCC1ER6cHwADChffh) for i._ZN15cDevAnalogInADCC1ER6cHwADChffh
    lib.o(.ARM.exidx) refers to lib.o(i._ZN15cDevAnalogInADC6getRawEv) for i._ZN15cDevAnalogInADC6getRawEv
    lib.o(.ARM.exidx) refers to lib.o(i._ZN15cDevAnalogInADC6enableEv) for i._ZN15cDevAnalogInADC6enableEv
    lib.o(.ARM.exidx) refers to lib.o(i._ZN13cDevAnalogOutC2Ehff) for i._ZN13cDevAnalogOutC2Ehff
    lib.o(.ARM.exidx) refers to lib.o(i._ZN13cDevAnalogOut3setEf) for i._ZN13cDevAnalogOut3setEf
    lib.o(.ARM.exidx) refers to lib.o(i._ZN16cDevAnalogOutDACC1ER6cHwDAChff) for i._ZN16cDevAnalogOutDACC1ER6cHwDAChff
    lib.o(.ARM.exidx) refers to lib.o(i._ZN16cDevAnalogOutDAC6setRawEt) for i._ZN16cDevAnalogOutDAC6setRawEt
    lib.o(.ARM.exidx) refers to lib.o(i._ZN11cDevDigitalC1ER7cHwPorthNS_4ModeEb) for i._ZN11cDevDigitalC1ER7cHwPorthNS_4ModeEb
    lib.o(.ARM.exidx) refers to lib.o(i._ZN11cDevDigital7setModeENS_4ModeE) for i._ZN11cDevDigital7setModeENS_4ModeE
    lib.o(.ARM.exidx) refers to lib.o(i._ZN11cDevDigital3setEb) for i._ZN11cDevDigital3setEb
    lib.o(.ARM.exidx) refers to lib.o(i._ZN11cDevDigital3getEv) for i._ZN11cDevDigital3getEv
    lib.o(.ARM.exidx) refers to lib.o(i._ZN16cDevAnalogOutPWMC1ER8cHwTimerNS0_4ModeEhff) for i._ZN16cDevAnalogOutPWMC1ER8cHwTimerNS0_4ModeEhff
    lib.o(.ARM.exidx) refers to lib.o(i._ZN16cDevAnalogOutPWM6setRawEt) for i._ZN16cDevAnalogOutPWM6setRawEt
    lib.o(.ARM.exidx) refers to lib.o(i._ZN20cDevAnalogOutPWMemulC1ER8cHwTimerR11cDevDigitalhff) for i._ZN20cDevAnalogOutPWMemulC1ER8cHwTimerR11cDevDigitalhff
    lib.o(.ARM.exidx) refers to lib.o(i._ZN20cDevAnalogOutPWMemul6setRawEt) for i._ZN20cDevAnalogOutPWMemul6setRawEt
    lib.o(.ARM.exidx) refers to lib.o(i._ZN20cDevAnalogOutPWMemul6updateEv) for i._ZN20cDevAnalogOutPWMemul6updateEv
    lib.o(.ARM.exidx) refers to lib.o(i._ZThn16_N20cDevAnalogOutPWMemul6updateEv) for i._ZThn16_N20cDevAnalogOutPWMemul6updateEv
    lib.o(.ARM.exidx) refers to lib.o(i._ZN20cDevDigitalIndicatorC1ER11cDevDigitalR8cHwTimer) for i._ZN20cDevDigitalIndicatorC1ER11cDevDigitalR8cHwTimer
    lib.o(.ARM.exidx) refers to lib.o(i._ZN20cDevDigitalIndicator6updateEv) for i._ZN20cDevDigitalIndicator6updateEv
    lib.o(.ARM.exidx) refers to lib.o(i._ZN11cDevDisplayC2Ev) for i._ZN11cDevDisplayC2Ev
    lib.o(.ARM.exidx) refers to lib.o(i._ZN10cHwDisplayC2Ehh) for i._ZN10cHwDisplayC2Ehh
    lib.o(.ARM.exidx) refers to lib.o(i._ZN15cDevDisplayCharC1ER10cHwDisplay) for i._ZN15cDevDisplayCharC1ER10cHwDisplay
    lib.o(.ARM.exidx) refers to lib.o(i._ZN15cDevDisplayChar5clearEv) for i._ZN15cDevDisplayChar5clearEv
    lib.o(.ARM.exidx) refers to lib.o(i._ZN15cDevDisplayChar7refreshEv) for i._ZN15cDevDisplayChar7refreshEv
    lib.o(.ARM.exidx) refers to lib.o(i._ZN15cDevDisplayChar6printfEhhPKc) for i._ZN15cDevDisplayChar6printfEhhPKc
    lib.o(.ARM.exidx) refers to lib.o(i._ZN15cDevDisplayChar6printfEhhhPKcz) for i._ZN15cDevDisplayChar6printfEhhhPKcz
    lib.o(.ARM.exidx) refers to lib.o(i._ZN14cHwDisplayFontC1EPK24cHwDisplayFontPropertiesPKh) for i._ZN14cHwDisplayFontC1EPK24cHwDisplayFontPropertiesPKh
    lib.o(.ARM.exidx) refers to lib.o(i._ZNK14cHwDisplayFont12getCharWidthEv) for i._ZNK14cHwDisplayFont12getCharWidthEv
    lib.o(.ARM.exidx) refers to lib.o(i._ZNK14cHwDisplayFont13getCharHeightEv) for i._ZNK14cHwDisplayFont13getCharHeightEv
    lib.o(.ARM.exidx) refers to lib.o(i._ZN14cHwDisplayFont7setCharEh) for i._ZN14cHwDisplayFont7setCharEh
    lib.o(.ARM.exidx) refers to lib.o(i._ZN14cHwDisplayFont8getPixelEhh) for i._ZN14cHwDisplayFont8getPixelEhh
    lib.o(.ARM.exidx) refers to lib.o(i._ZN17cHwDisplayGraphicC2E14cHwDisplayFonth) for i._ZN17cHwDisplayGraphicC2E14cHwDisplayFonth
    lib.o(.ARM.exidx) refers to lib.o(i._ZN17cHwDisplayGraphic7setFontE14cHwDisplayFonth) for i._ZN17cHwDisplayGraphic7setFontE14cHwDisplayFonth
    lib.o(.ARM.exidx) refers to lib.o(i._ZN17cHwDisplayGraphic7setZoomEh) for i._ZN17cHwDisplayGraphic7setZoomEh
    lib.o(.ARM.exidx) refers to lib.o(i._ZN17cHwDisplayGraphic12setBackColorEt) for i._ZN17cHwDisplayGraphic12setBackColorEt
    lib.o(.ARM.exidx) refers to lib.o(i._ZN17cHwDisplayGraphic13setPaintColorEt) for i._ZN17cHwDisplayGraphic13setPaintColorEt
    lib.o(.ARM.exidx) refers to lib.o(i._ZN17cHwDisplayGraphic12setTextColorEt) for i._ZN17cHwDisplayGraphic12setTextColorEt
    lib.o(.ARM.exidx) refers to lib.o(i._ZN17cHwDisplayGraphic12gotoPixelPosEtt) for i._ZN17cHwDisplayGraphic12gotoPixelPosEtt
    lib.o(.ARM.exidx) refers to lib.o(i._ZN17cHwDisplayGraphic11gotoTextPosEhh) for i._ZN17cHwDisplayGraphic11gotoTextPosEhh
    lib.o(.ARM.exidx) refers to lib.o(i._ZN17cHwDisplayGraphic7putCharEc) for i._ZN17cHwDisplayGraphic7putCharEc
    lib.o(.ARM.exidx) refers to lib.o(i._ZN17cHwDisplayGraphic8putPixelEtt) for i._ZN17cHwDisplayGraphic8putPixelEtt
    lib.o(.ARM.exidx) refers to lib.o(i._ZN17cHwDisplayGraphic12putRectangleEtttt) for i._ZN17cHwDisplayGraphic12putRectangleEtttt
    lib.o(.ARM.exidx) refers to lib.o(i._ZN17cHwDisplayGraphic9putBitmapEttttPKt) for i._ZN17cHwDisplayGraphic9putBitmapEttttPKt
    lib.o(.ARM.exidx) refers to lib.o(i._ZN18cDevDisplayGraphic5clearEv) for i._ZN18cDevDisplayGraphic5clearEv
    lib.o(.ARM.exidx) refers to lib.o(i._ZN18cDevDisplayGraphicC1ER17cHwDisplayGraphic) for i._ZN18cDevDisplayGraphicC1ER17cHwDisplayGraphic
    lib.o(.ARM.exidx) refers to lib.o(i._ZN18cDevDisplayGraphic7refreshEv) for i._ZN18cDevDisplayGraphic7refreshEv
    lib.o(.ARM.exidx) refers to lib.o(i._ZN18cDevDisplayGraphic6printfEhhhPKcz) for i._ZN18cDevDisplayGraphic6printfEhhhPKcz
    lib.o(.ARM.exidx) refers to lib.o(i._ZN18cDevDisplayGraphic7setFontE14cHwDisplayFonth) for i._ZN18cDevDisplayGraphic7setFontE14cHwDisplayFonth
    lib.o(.ARM.exidx) refers to lib.o(i._ZN18cDevDisplayGraphic7setZoomEh) for i._ZN18cDevDisplayGraphic7setZoomEh
    lib.o(.ARM.exidx) refers to lib.o(i._ZN18cDevDisplayGraphic12setBackColorEt) for i._ZN18cDevDisplayGraphic12setBackColorEt
    lib.o(.ARM.exidx) refers to lib.o(i._ZN18cDevDisplayGraphic12setTextColorEt) for i._ZN18cDevDisplayGraphic12setTextColorEt
    lib.o(.ARM.exidx) refers to lib.o(i._ZN18cDevDisplayGraphic8drawTextEttPKc) for i._ZN18cDevDisplayGraphic8drawTextEttPKc
    lib.o(.ARM.exidx) refers to lib.o(i._ZN18cDevDisplayGraphic8drawTextEtthPKcz) for i._ZN18cDevDisplayGraphic8drawTextEtthPKcz
    lib.o(.ARM.exidx) refers to lib.o(i._ZN18cDevDisplayGraphic9drawPixelEttt) for i._ZN18cDevDisplayGraphic9drawPixelEttt
    lib.o(.ARM.exidx) refers to lib.o(i._ZN18cDevDisplayGraphic13drawRectangleEttttt) for i._ZN18cDevDisplayGraphic13drawRectangleEttttt
    lib.o(.ARM.exidx) refers to lib.o(i._ZN18cDevDisplayGraphic9drawFrameEtttttt) for i._ZN18cDevDisplayGraphic9drawFrameEtttttt
    lib.o(.ARM.exidx) refers to lib.o(i._ZN18cDevDisplayGraphic10drawCircleEtttt) for i._ZN18cDevDisplayGraphic10drawCircleEtttt
    lib.o(.ARM.exidx) refers to lib.o(i._ZN18cDevDisplayGraphic8drawLineEtttttt) for i._ZN18cDevDisplayGraphic8drawLineEtttttt
    lib.o(.ARM.exidx) refers to lib.o(i._ZN18cDevDisplayGraphic10drawBitmapEttttPKt) for i._ZN18cDevDisplayGraphic10drawBitmapEttttPKt
    lib.o(.ARM.exidx) refers to lib.o(i._ZN18cDevDisplayGraphic14getDefaultFontEv) for i._ZN18cDevDisplayGraphic14getDefaultFontEv
    lib.o(.ARM.exidx) refers to lib.o(i._ZN10cDevMemoryC1ER9cHwMemoryt) for i._ZN10cDevMemoryC1ER9cHwMemoryt
    lib.o(.ARM.exidx) refers to lib.o(i._ZN10cDevMemory8allocateEt) for i._ZN10cDevMemory8allocateEt
    lib.o(.ARM.exidx) refers to lib.o(i._ZN10cDevMemory5writeEPhtt) for i._ZN10cDevMemory5writeEPhtt
    lib.o(.ARM.exidx) refers to lib.o(i._ZN10cDevMemory4readEPhtt) for i._ZN10cDevMemory4readEPhtt
    lib.o(.ARM.exidx) refers to lib.o(i._ZN10cDevMemory5clearEv) for i._ZN10cDevMemory5clearEv
    lib.o(.ARM.exidx) refers to lib.o(i._ZN10cDevMemory8setValidEv) for i._ZN10cDevMemory8setValidEv
    lib.o(.ARM.exidx) refers to lib.o(i._ZN10cDevMemory7isValidEv) for i._ZN10cDevMemory7isValidEv
    lib.o(.ARM.exidx) refers to lib.o(i._ZN10cDevTextIOC2EhhPKcS1_) for i._ZN10cDevTextIOC2EhhPKcS1_
    lib.o(.ARM.exidx) refers to lib.o(i._ZN10cDevTextIO9getStringEv) for i._ZN10cDevTextIO9getStringEv
    lib.o(.ARM.exidx) refers to lib.o(i._ZN10cDevTextIO6printfEPKcz) for i._ZN10cDevTextIO6printfEPKcz
    lib.o(.ARM.exidx) refers to lib.o(i._ZN15cDevTextIO_UARTC1ER7cHwUARThhPKcS3_) for i._ZN15cDevTextIO_UARTC1ER7cHwUARThhPKcS3_
    lib.o(.ARM.exidx) refers to lib.o(i._ZN18cDevControlEncoderC2EP11cDevDigitalP8cHwTimer) for i._ZN18cDevControlEncoderC2EP11cDevDigitalP8cHwTimer
    lib.o(.ARM.exidx) refers to lib.o(i._ZN18cDevControlEncoder3getEv) for i._ZN18cDevControlEncoder3getEv
    lib.o(.ARM.exidx) refers to lib.o(i._ZN18cDevControlEncoder6updateEv) for i._ZN18cDevControlEncoder6updateEv
    lib.o(.ARM.exidx) refers to lib.o(i._ZN18cDevControlEncoder7getCtrlEv) for i._ZN18cDevControlEncoder7getCtrlEv
    lib.o(.ARM.exidx) refers to lib.o(i._ZN26cDevControlEncoderJoystickC1EP11cDevDigitalS1_S1_P8cHwTimert) for i._ZN26cDevControlEncoderJoystickC1EP11cDevDigitalS1_S1_P8cHwTimert
    lib.o(.ARM.exidx) refers to lib.o(i._ZN26cDevControlEncoderJoystick12getIncrementEv) for i._ZN26cDevControlEncoderJoystick12getIncrementEv
    lib.o(.ARM.exidx) refers to lib.o(i._ZN28cDevControlEncoderRotaryKnobC1EP11cDevDigitalS1_S1_P8cHwTimer) for i._ZN28cDevControlEncoderRotaryKnobC1EP11cDevDigitalS1_S1_P8cHwTimer
    lib.o(.ARM.exidx) refers to lib.o(i._ZN28cDevControlEncoderRotaryKnob12getIncrementEv) for i._ZN28cDevControlEncoderRotaryKnob12getIncrementEv
    lib.o(.ARM.exidx) refers to lib.o(i._ZN8cHwTouchC2Ett) for i._ZN8cHwTouchC2Ett
    lib.o(.ARM.exidx) refers to lib.o(i._ZN18cDevControlPointerC1ER8cHwTouch) for i._ZN18cDevControlPointerC1ER8cHwTouch
    lib.o(.ARM.exidx) refers to lib.o(i._ZN18cDevControlPointer3getEv) for i._ZN18cDevControlPointer3getEv
    lib.o(.ARM.exidx) refers to lib.o(i._ZN12cTaskHandlerC1EP8cHwTimer) for i._ZN12cTaskHandlerC1EP8cHwTimer
    lib.o(.ARM.exidx) refers to lib.o(i._ZN12cTaskHandlerC1EPS_) for i._ZN12cTaskHandlerC1EPS_
    lib.o(.ARM.exidx) refers to lib.o(i._ZN12cTaskHandler7addTaskEPNS_4TaskE) for i._ZN12cTaskHandler7addTaskEPNS_4TaskE
    lib.o(.ARM.exidx) refers to lib.o(i._ZN12cTaskHandler4TaskC2ERS_) for i._ZN12cTaskHandler4TaskC2ERS_
    lib.o(.ARM.exidx) refers to lib.o(i._ZN12cTaskHandler5TimerC1ERS_tt) for i._ZN12cTaskHandler5TimerC1ERS_tt
    lib.o(.ARM.exidx) refers to lib.o(i._ZN12cTaskHandler5Timer7getTicsEv) for i._ZN12cTaskHandler5Timer7getTicsEv
    lib.o(.ARM.exidx) refers to lib.o(i._ZN12cTaskHandler5Timer12getTimeOfTicEv) for i._ZN12cTaskHandler5Timer12getTimeOfTicEv
    lib.o(.ARM.exidx) refers to lib.o(i._ZN11cHwI2CslaveC1ERNS_11DataHandlerEh) for i._ZN11cHwI2CslaveC1ERNS_11DataHandlerEh
    lib.o(.ARM.exidx) refers to lib.o(i._ZN11cHwSPIslaveC1ERNS_11DataHandlerE) for i._ZN11cHwSPIslaveC1ERNS_11DataHandlerE
    lib.o(.ARM.exidx) refers to lib.o(i._Z16__NVIC_EnableIRQ4IRQn) for i._Z16__NVIC_EnableIRQ4IRQn
    startup_stm32l1xx_mdp.o(STACK) refers (Special) to heapauxi.o(.text) for __use_two_region_memory
    startup_stm32l1xx_mdp.o(HEAP) refers (Special) to heapauxi.o(.text) for __use_two_region_memory
    startup_stm32l1xx_mdp.o(RESET) refers (Special) to heapauxi.o(.text) for __use_two_region_memory
    startup_stm32l1xx_mdp.o(RESET) refers to startup_stm32l1xx_mdp.o(STACK) for __initial_sp
    startup_stm32l1xx_mdp.o(RESET) refers to startup_stm32l1xx_mdp.o(.text) for Reset_Handler
    startup_stm32l1xx_mdp.o(RESET) refers to lib.o(i.PendSV_Handler) for PendSV_Handler
    startup_stm32l1xx_mdp.o(RESET) refers to lib.o(i.SysTick_Handler) for SysTick_Handler
    startup_stm32l1xx_mdp.o(RESET) refers to lib.o(i.ADC1_IRQHandler) for ADC1_IRQHandler
    startup_stm32l1xx_mdp.o(RESET) refers to lib.o(i.USB_LP_IRQHandler) for USB_LP_IRQHandler
    startup_stm32l1xx_mdp.o(RESET) refers to lib.o(i.TIM2_IRQHandler) for TIM2_IRQHandler
    startup_stm32l1xx_mdp.o(RESET) refers to lib.o(i.TIM3_IRQHandler) for TIM3_IRQHandler
    startup_stm32l1xx_mdp.o(RESET) refers to lib.o(i.TIM4_IRQHandler) for TIM4_IRQHandler
    startup_stm32l1xx_mdp.o(RESET) refers to lib.o(i.USART1_IRQHandler) for USART1_IRQHandler
    startup_stm32l1xx_mdp.o(RESET) refers to lib.o(i.USART2_IRQHandler) for USART2_IRQHandler
    startup_stm32l1xx_mdp.o(RESET) refers to lib.o(i.USART3_IRQHandler) for USART3_IRQHandler
    startup_stm32l1xx_mdp.o(RESET) refers to lib.o(i.TIM6_IRQHandler) for TIM6_IRQHandler
    startup_stm32l1xx_mdp.o(RESET) refers to lib.o(i.TIM7_IRQHandler) for TIM7_IRQHandler
    startup_stm32l1xx_mdp.o(RESET) refers to lib.o(i.TIM5_IRQHandler) for TIM5_IRQHandler
    startup_stm32l1xx_mdp.o(.text) refers (Special) to heapauxi.o(.text) for __use_two_region_memory
    startup_stm32l1xx_mdp.o(.text) refers to lib.o(i.SystemInit) for SystemInit
    startup_stm32l1xx_mdp.o(.text) refers to __main.o(!!!main) for __main
    startup_stm32l1xx_mdp.o(.text) refers to startup_stm32l1xx_mdp.o(HEAP) for Heap_Mem
    startup_stm32l1xx_mdp.o(.text) refers to startup_stm32l1xx_mdp.o(STACK) for Stack_Mem
    rtos.o(i._ZN5cRTOS4Task4StopEv) refers to rtos.o(i._ZN5cRTOS4StopERNS_4TaskE) for cRTOS::Stop(cRTOS::Task&)
    rtos.o(i._ZN5cRTOS4Task5PauseEt) refers to rtos.o(i._ZN11cHwRTOS_MCU10getSysTimeEv) for cHwRTOS_MCU::getSysTime()
    rtos.o(i._ZN5cRTOS4Task5PauseEt) refers to rtos.o(i._ZN5cRTOS5PauseERNS_4TaskE) for cRTOS::Pause(cRTOS::Task&)
    rtos.o(i._ZN5cRTOS4Task5StartEv) refers to rtos.o(i._ZN5cRTOS5StartERNS_4TaskE) for cRTOS::Start(cRTOS::Task&)
    rtos.o(i._ZN5cRTOS4Task6FinishEv) refers to rtos.o(i._ZN5cRTOS4StopERNS_4TaskE) for cRTOS::Stop(cRTOS::Task&)
    rtos.o(i._ZN5cRTOS4TaskC2ERS_j) refers to h1_alloc.o(.text) for malloc
    rtos.o(i._ZN5cRTOS4TaskC2ERS_j) refers to rtos.o(.constdata__ZTVN5cRTOS4TaskE) for vtable for cRTOS::Task
    rtos.o(i._ZN5cRTOS4TaskD0Ev) refers to rtos.o(i._ZN5cRTOS4TaskD2Ev) for cRTOS::Task::~Task__sub_object()
    rtos.o(i._ZN5cRTOS4TaskD0Ev) refers to rtos.o(i._ZdlPv) for operator delete (void*)
    rtos.o(i._ZN5cRTOS4TaskD2Ev) refers to rtos.o(i._ZN5cRTOS4Task4StopEv) for cRTOS::Task::Stop()
    rtos.o(i._ZN5cRTOS4TaskD2Ev) refers to rtos.o(i._ZdlPv) for operator delete (void*)
    rtos.o(i._ZN5cRTOS4TaskD2Ev) refers to rtos.o(.constdata__ZTVN5cRTOS4TaskE) for vtable for cRTOS::Task
    rtos.o(i._ZN5cRTOS5StartERNS_4TaskE) refers to lib.o(i._ZN7cSystem16disableInterruptEv) for cSystem::disableInterrupt()
    rtos.o(i._ZN5cRTOS5StartERNS_4TaskE) refers to rtos.o(i._ZN11cHwRTOS_MCU5startEPcjPvPFjS1_E) for cHwRTOS_MCU::start(char*, unsigned, void*, unsigned(*)(void*))
    rtos.o(i._ZN5cRTOS5StartERNS_4TaskE) refers to lib.o(i._ZN7cSystem15enableInterruptEv) for cSystem::enableInterrupt()
    rtos.o(i._ZN5cRTOS5StartERNS_4TaskE) refers to rtos.o(i._ZN5cRTOS4Task7starterEPv) for cRTOS::Task::starter(void*)
    rtos.o(i._ZN5cRTOS5Timer7getTicsEv) refers to rtos.o(i._ZN11cHwRTOS_MCU10getSysTimeEv) for cHwRTOS_MCU::getSysTime()
    rtos.o(i._ZN5cRTOS5TimerC1Et) refers to lib.o(i._ZN6cTimerC2Ev) for cTimer::cTimer__sub_object()
    rtos.o(i._ZN5cRTOS5TimerC1Et) refers to lib.o(i._ZN6cTimer3setEtt) for cTimer::set(unsigned short, unsigned short)
    rtos.o(i._ZN5cRTOS5TimerC1Et) refers to rtos.o(.constdata__ZTVN5cRTOS5TimerE) for vtable for cRTOS::Timer
    rtos.o(i._ZN5cRTOSC2Ev) refers to rtos.o(.constdata__ZTV5cRTOS) for vtable for cRTOS
    rtos.o(i._ZN5cRTOSC2Ev) refers to rtos.o(.data) for cRTOS::ptr
    rtos.o(.ARM.exidx) refers to rtos.o(i._ZN5cRTOSC2Ev) for i._ZN5cRTOSC2Ev
    rtos.o(.ARM.exidx) refers to rtos.o(i._ZN5cRTOS4Task7starterEPv) for i._ZN5cRTOS4Task7starterEPv
    rtos.o(.ARM.exidx) refers to rtos.o(i._ZN5cRTOS5StartERNS_4TaskE) for i._ZN5cRTOS5StartERNS_4TaskE
    rtos.o(.ARM.exidx) refers to rtos.o(i._ZN5cRTOS5PauseERNS_4TaskE) for i._ZN5cRTOS5PauseERNS_4TaskE
    rtos.o(.ARM.exidx) refers to rtos.o(i._ZN5cRTOS4StopERNS_4TaskE) for i._ZN5cRTOS4StopERNS_4TaskE
    rtos.o(.ARM.exidx) refers to rtos.o(i._ZN5cRTOS4TaskC2ERS_j) for i._ZN5cRTOS4TaskC2ERS_j
    rtos.o(.ARM.exidx) refers to rtos.o(i._ZN5cRTOS4Task4StopEv) for i._ZN5cRTOS4Task4StopEv
    rtos.o(.ARM.exidx) refers to rtos.o(i._ZN5cRTOS4TaskD2Ev) for i._ZN5cRTOS4TaskD2Ev
    rtos.o(.ARM.exidx) refers to rtos.o(i._ZN5cRTOS4TaskD0Ev) for i._ZN5cRTOS4TaskD0Ev
    rtos.o(.ARM.exidx) refers to rtos.o(i._ZN5cRTOS4Task5PauseEt) for i._ZN5cRTOS4Task5PauseEt
    rtos.o(.ARM.exidx) refers to rtos.o(i._ZN5cRTOS4Task5StartEv) for i._ZN5cRTOS4Task5StartEv
    rtos.o(.ARM.exidx) refers to rtos.o(i._ZN5cRTOS4Task6FinishEv) for i._ZN5cRTOS4Task6FinishEv
    rtos.o(.ARM.exidx) refers to rtos.o(i._ZN5cRTOS5TimerC1Et) for i._ZN5cRTOS5TimerC1Et
    rtos.o(.ARM.exidx) refers to rtos.o(i._ZN5cRTOS5Timer7getTicsEv) for i._ZN5cRTOS5Timer7getTicsEv
    rtos.o(.ARM.exidx) refers to rtos.o(i._ZN5cRTOS5Timer12getTimeOfTicEv) for i._ZN5cRTOS5Timer12getTimeOfTicEv
    disp_dip204spi.o(i._ZN17cHwDisp_DIP204spi11gotoTextPosEhh) refers to disp_dip204spi.o(i._ZN17cHwDisp_DIP204spi8writeCmdEh) for cHwDisp_DIP204spi::writeCmd(unsigned char)
    disp_dip204spi.o(i._ZN17cHwDisp_DIP204spi4initEv) refers to disp_dip204spi.o(i._ZN17cHwDisp_DIP204spi8writeCmdEh) for cHwDisp_DIP204spi::writeCmd(unsigned char)
    disp_dip204spi.o(i._ZN17cHwDisp_DIP204spi5clearEv) refers to disp_dip204spi.o(i._ZN17cHwDisp_DIP204spi8writeCmdEh) for cHwDisp_DIP204spi::writeCmd(unsigned char)
    disp_dip204spi.o(i._ZN17cHwDisp_DIP204spi7putCharEc) refers to disp_dip204spi.o(i._ZN17cHwDisp_DIP204spi8writeDatEh) for cHwDisp_DIP204spi::writeDat(unsigned char)
    disp_dip204spi.o(i._ZN17cHwDisp_DIP204spi8writeCmdEh) refers to disp_dip204spi.o(i._ZN17cHwDisp_DIP204spi8waitBusyEv) for cHwDisp_DIP204spi::waitBusy()
    disp_dip204spi.o(i._ZN17cHwDisp_DIP204spi8writeDatEh) refers to disp_dip204spi.o(i._ZN17cHwDisp_DIP204spi8waitBusyEv) for cHwDisp_DIP204spi::waitBusy()
    disp_dip204spi.o(i._ZN17cHwDisp_DIP204spiC1ERN12cHwSPImaster6DeviceE) refers to lib.o(i._ZN10cHwDisplayC2Ehh) for cHwDisplay::cHwDisplay__sub_object(unsigned char, unsigned char)
    disp_dip204spi.o(i._ZN17cHwDisp_DIP204spiC1ERN12cHwSPImaster6DeviceE) refers to disp_dip204spi.o(i._ZN17cHwDisp_DIP204spi4initEv) for cHwDisp_DIP204spi::init()
    disp_dip204spi.o(i._ZN17cHwDisp_DIP204spiC1ERN12cHwSPImaster6DeviceE) refers to disp_dip204spi.o(.constdata__ZTV17cHwDisp_DIP204spi) for vtable for cHwDisp_DIP204spi
    disp_dip204spi.o(.ARM.exidx) refers to disp_dip204spi.o(i._ZN17cHwDisp_DIP204spi8waitBusyEv) for i._ZN17cHwDisp_DIP204spi8waitBusyEv
    disp_dip204spi.o(.ARM.exidx) refers to disp_dip204spi.o(i._ZN17cHwDisp_DIP204spi8writeCmdEh) for i._ZN17cHwDisp_DIP204spi8writeCmdEh
    disp_dip204spi.o(.ARM.exidx) refers to disp_dip204spi.o(i._ZN17cHwDisp_DIP204spi4initEv) for i._ZN17cHwDisp_DIP204spi4initEv
    disp_dip204spi.o(.ARM.exidx) refers to disp_dip204spi.o(i._ZN17cHwDisp_DIP204spiC1ERN12cHwSPImaster6DeviceE) for i._ZN17cHwDisp_DIP204spiC1ERN12cHwSPImaster6DeviceE
    disp_dip204spi.o(.ARM.exidx) refers to disp_dip204spi.o(i._ZN17cHwDisp_DIP204spi5clearEv) for i._ZN17cHwDisp_DIP204spi5clearEv
    disp_dip204spi.o(.ARM.exidx) refers to disp_dip204spi.o(i._ZN17cHwDisp_DIP204spi11gotoTextPosEhh) for i._ZN17cHwDisp_DIP204spi11gotoTextPosEhh
    disp_dip204spi.o(.ARM.exidx) refers to disp_dip204spi.o(i._ZN17cHwDisp_DIP204spi8writeDatEh) for i._ZN17cHwDisp_DIP204spi8writeDatEh
    disp_dip204spi.o(.ARM.exidx) refers to disp_dip204spi.o(i._ZN17cHwDisp_DIP204spi7putCharEc) for i._ZN17cHwDisp_DIP204spi7putCharEc
    malloc.o(.text) refers (Special) to hguard.o(.text) for __heap$guard
    malloc.o(.text) refers (Special) to init_alloc.o(.text) for _init_alloc
    malloc.o(.text) refers to rt_heap_descriptor_intlibspace.o(.text) for __rt_heap_descriptor
    malloc.o(.text) refers to heapstubs.o(.text) for __Heap_Alloc
    free.o(.text) refers (Special) to hguard.o(.text) for __heap$guard
    free.o(.text) refers to rt_heap_descriptor_intlibspace.o(.text) for __rt_heap_descriptor
    free.o(.text) refers to heapstubs.o(.text) for __Heap_Free
    h1_alloc.o(.text) refers (Special) to h1_init.o(.text) for __Heap_Initialize
    h1_alloc.o(.text) refers to rt_heap_descriptor_intlibspace.o(.text) for __rt_heap_descriptor
    h1_alloc.o(.text) refers to init_alloc.o(.text) for __Heap_Full
    h1_free.o(.text) refers to rt_heap_descriptor_intlibspace.o(.text) for __rt_heap_descriptor
    h1_alloc_mt.o(.text) refers (Special) to h1_init.o(.text) for __Heap_Initialize
    h1_alloc_mt.o(.text) refers to init_alloc.o(.text) for __Heap_Full
    h1_alloc_mt.o(.text) refers to rt_heap_descriptor_intlibspace.o(.text) for __rt_heap_descriptor
    h1_free_mt.o(.text) refers to rt_heap_descriptor_intlibspace.o(.text) for __rt_heap_descriptor
    heap2.o(i._FDIterate) refers to heap2.o(.conststring) for .conststring
    heap2.o(i.___Heap_ProvideMemory$realtime) refers to fdtree.o(i._FDTree_Delete) for _FDTree_Delete
    heap2.o(i.___Heap_ProvideMemory$realtime) refers to fdtree.o(i._FDTree_Insert) for _FDTree_Insert
    heap2.o(i.___Heap_Stats$realtime) refers to heap2.o(i._Heap2_StatsIterate) for _Heap2_StatsIterate
    heap2.o(i.___Heap_Valid$realtime) refers to heap2.o(i._FDIterate) for _FDIterate
    heap2.o(i.___Heap_Valid$realtime) refers to heap2.o(.conststring) for .conststring
    heap2.o(i._free$realtime) refers to rt_heap_descriptor_intlibspace.o(.text) for __rt_heap_descriptor
    heap2.o(i._free$realtime) refers to fdtree.o(i._FDTree_Delete) for _FDTree_Delete
    heap2.o(i._free$realtime) refers to fdtree.o(i._FDTree_Insert) for _FDTree_Insert
    heap2.o(i._malloc$realtime) refers to rt_heap_descriptor_intlibspace.o(.text) for __rt_heap_descriptor
    heap2.o(i._malloc$realtime) refers to fdtree.o(i._FDTree_FindFirst) for _FDTree_FindFirst
    heap2.o(i._malloc$realtime) refers to init_alloc.o(.text) for __Heap_Full
    heap2.o(i._malloc$realtime) refers to fdtree.o(i._FDTree_RemoveNode) for _FDTree_RemoveNode
    heap2.o(i._malloc$realtime) refers to fdtree.o(i._FDTree_Insert) for _FDTree_Insert
    heap2.o(i._posix_memalign$realtime) refers to rt_heap_descriptor_intlibspace.o(.text) for __rt_heap_descriptor
    heap2.o(i._posix_memalign$realtime) refers to fdtree.o(i._FDTree_FindFirst) for _FDTree_FindFirst
    heap2.o(i._posix_memalign$realtime) refers to init_alloc.o(.text) for __Heap_Full
    heap2.o(i._posix_memalign$realtime) refers to fdtree.o(i._FDTree_RemoveNode) for _FDTree_RemoveNode
    heap2.o(i._posix_memalign$realtime) refers to fdtree.o(i._FDTree_Insert) for _FDTree_Insert
    heap2.o(i._realloc$realtime) refers to rt_heap_descriptor_intlibspace.o(.text) for __rt_heap_descriptor
    heap2.o(i._realloc$realtime) refers to fdtree.o(i._FDTree_Insert) for _FDTree_Insert
    heap2.o(i._realloc$realtime) refers to h1_free.o(.text) for free
    heap2.o(i._realloc$realtime) refers to h1_alloc.o(.text) for malloc
    heap2.o(i._realloc$realtime) refers to fdtree.o(i._FDTree_Delete) for _FDTree_Delete
    heap2.o(i._realloc$realtime) refers to rt_memcpy_w.o(.text) for __aeabi_memcpy4
    heap2mt.o(i._FDIterate) refers to heap2mt.o(.conststring) for .conststring
    heap2mt.o(i.___Heap_Initialize$realtime$concurrent) refers to mutex_dummy.o(.text) for _mutex_initialize
    heap2mt.o(i.___Heap_ProvideMemory$realtime$concurrent) refers to fdtree.o(i._FDTree_Delete) for _FDTree_Delete
    heap2mt.o(i.___Heap_ProvideMemory$realtime$concurrent) refers to fdtree.o(i._FDTree_Insert) for _FDTree_Insert
    heap2mt.o(i.___Heap_Stats$realtime$concurrent) refers to heap2mt.o(i._Heap2_StatsIterate) for _Heap2_StatsIterate
    heap2mt.o(i.___Heap_Valid$realtime$concurrent) refers to heap2mt.o(i._FDIterate) for _FDIterate
    heap2mt.o(i.___Heap_Valid$realtime$concurrent) refers to heap2mt.o(.conststring) for .conststring
    heap2mt.o(i._free$realtime$concurrent) refers to rt_heap_descriptor_intlibspace.o(.text) for __rt_heap_descriptor
    heap2mt.o(i._free$realtime$concurrent) refers to fdtree.o(i._FDTree_Delete) for _FDTree_Delete
    heap2mt.o(i._free$realtime$concurrent) refers to fdtree.o(i._FDTree_Insert) for _FDTree_Insert
    heap2mt.o(i._malloc$realtime$concurrent) refers to rt_heap_descriptor_intlibspace.o(.text) for __rt_heap_descriptor
    heap2mt.o(i._malloc$realtime$concurrent) refers to fdtree.o(i._FDTree_FindFirst) for _FDTree_FindFirst
    heap2mt.o(i._malloc$realtime$concurrent) refers to init_alloc.o(.text) for __Heap_Full
    heap2mt.o(i._malloc$realtime$concurrent) refers to fdtree.o(i._FDTree_RemoveNode) for _FDTree_RemoveNode
    heap2mt.o(i._malloc$realtime$concurrent) refers to fdtree.o(i._FDTree_Insert) for _FDTree_Insert
    heap2mt.o(i._posix_memalign$realtime$concurrent) refers to rt_heap_descriptor_intlibspace.o(.text) for __rt_heap_descriptor
    heap2mt.o(i._posix_memalign$realtime$concurrent) refers to fdtree.o(i._FDTree_FindFirst) for _FDTree_FindFirst
    heap2mt.o(i._posix_memalign$realtime$concurrent) refers to init_alloc.o(.text) for __Heap_Full
    heap2mt.o(i._posix_memalign$realtime$concurrent) refers to fdtree.o(i._FDTree_RemoveNode) for _FDTree_RemoveNode
    heap2mt.o(i._posix_memalign$realtime$concurrent) refers to fdtree.o(i._FDTree_Insert) for _FDTree_Insert
    heap2mt.o(i._realloc$realtime$concurrent) refers to rt_heap_descriptor_intlibspace.o(.text) for __rt_heap_descriptor
    heap2mt.o(i._realloc$realtime$concurrent) refers to fdtree.o(i._FDTree_Insert) for _FDTree_Insert
    heap2mt.o(i._realloc$realtime$concurrent) refers to h1_free.o(.text) for free
    heap2mt.o(i._realloc$realtime$concurrent) refers to h1_alloc.o(.text) for malloc
    heap2mt.o(i._realloc$realtime$concurrent) refers to fdtree.o(i._FDTree_Delete) for _FDTree_Delete
    heap2mt.o(i._realloc$realtime$concurrent) refers to rt_memcpy_w.o(.text) for __aeabi_memcpy4
    c89vsprintf.o(.text) refers (Special) to _printf_a.o(.ARM.Collect$$_printf_percent$$00000006) for _printf_a
    c89vsprintf.o(.text) refers (Special) to _printf_c.o(.ARM.Collect$$_printf_percent$$00000013) for _printf_c
    c89vsprintf.o(.text) refers (Special) to _printf_charcount.o(.text) for _printf_charcount
    c89vsprintf.o(.text) refers (Special) to _printf_d.o(.ARM.Collect$$_printf_percent$$00000009) for _printf_d
    c89vsprintf.o(.text) refers (Special) to _printf_e.o(.ARM.Collect$$_printf_percent$$00000004) for _printf_e
    c89vsprintf.o(.text) refers (Special) to _printf_f.o(.ARM.Collect$$_printf_percent$$00000003) for _printf_f
    c89vsprintf.o(.text) refers (Special) to printf1.o(x$fpl$printf1) for _printf_fp_dec
    c89vsprintf.o(.text) refers (Special) to _printf_g.o(.ARM.Collect$$_printf_percent$$00000005) for _printf_g
    c89vsprintf.o(.text) refers (Special) to _printf_i.o(.ARM.Collect$$_printf_percent$$00000008) for _printf_i
    c89vsprintf.o(.text) refers (Special) to _printf_dec.o(.text) for _printf_int_dec
    c89vsprintf.o(.text) refers (Special) to _printf_l.o(.ARM.Collect$$_printf_percent$$00000012) for _printf_l
    c89vsprintf.o(.text) refers (Special) to _printf_lc.o(.ARM.Collect$$_printf_percent$$00000015) for _printf_lc
    c89vsprintf.o(.text) refers (Special) to _printf_ll.o(.ARM.Collect$$_printf_percent$$00000007) for _printf_ll
    c89vsprintf.o(.text) refers (Special) to _printf_lld.o(.ARM.Collect$$_printf_percent$$0000000E) for _printf_lld
    c89vsprintf.o(.text) refers (Special) to _printf_lli.o(.ARM.Collect$$_printf_percent$$0000000D) for _printf_lli
    c89vsprintf.o(.text) refers (Special) to _printf_llo.o(.ARM.Collect$$_printf_percent$$00000010) for _printf_llo
    c89vsprintf.o(.text) refers (Special) to _printf_llu.o(.ARM.Collect$$_printf_percent$$0000000F) for _printf_llu
    c89vsprintf.o(.text) refers (Special) to _printf_llx.o(.ARM.Collect$$_printf_percent$$00000011) for _printf_llx
    c89vsprintf.o(.text) refers (Special) to _printf_longlong_dec.o(.text) for _printf_longlong_dec
    c89vsprintf.o(.text) refers (Special) to _printf_hex_int_ll_ptr.o(.text) for _printf_longlong_hex
    c89vsprintf.o(.text) refers (Special) to _printf_oct_int_ll.o(.text) for _printf_longlong_oct
    c89vsprintf.o(.text) refers (Special) to _printf_ls.o(.ARM.Collect$$_printf_percent$$00000016) for _printf_ls
    c89vsprintf.o(.text) refers (Special) to _printf_n.o(.ARM.Collect$$_printf_percent$$00000001) for _printf_n
    c89vsprintf.o(.text) refers (Special) to _printf_o.o(.ARM.Collect$$_printf_percent$$0000000B) for _printf_o
    c89vsprintf.o(.text) refers (Special) to _printf_p.o(.ARM.Collect$$_printf_percent$$00000002) for _printf_p
    c89vsprintf.o(.text) refers (Special) to _printf_percent.o(.ARM.Collect$$_printf_percent$$00000000) for _printf_percent
    c89vsprintf.o(.text) refers (Special) to _printf_pad.o(.text) for _printf_post_padding
    c89vsprintf.o(.text) refers (Special) to _printf_s.o(.ARM.Collect$$_printf_percent$$00000014) for _printf_s
    c89vsprintf.o(.text) refers (Special) to _printf_str.o(.text) for _printf_str
    c89vsprintf.o(.text) refers (Special) to _printf_truncate.o(.text) for _printf_truncate_signed
    c89vsprintf.o(.text) refers (Special) to _printf_u.o(.ARM.Collect$$_printf_percent$$0000000A) for _printf_u
    c89vsprintf.o(.text) refers (Special) to _printf_wctomb.o(.text) for _printf_wctomb
    c89vsprintf.o(.text) refers (Special) to _printf_x.o(.ARM.Collect$$_printf_percent$$0000000C) for _printf_x
    c89vsprintf.o(.text) refers to _printf_char_common.o(.text) for _printf_char_common
    c89vsprintf.o(.text) refers to _sputc.o(.text) for _sputc
    c89vsnprintf.o(.text) refers (Special) to _printf_a.o(.ARM.Collect$$_printf_percent$$00000006) for _printf_a
    c89vsnprintf.o(.text) refers (Special) to _printf_c.o(.ARM.Collect$$_printf_percent$$00000013) for _printf_c
    c89vsnprintf.o(.text) refers (Special) to _printf_charcount.o(.text) for _printf_charcount
    c89vsnprintf.o(.text) refers (Special) to _printf_d.o(.ARM.Collect$$_printf_percent$$00000009) for _printf_d
    c89vsnprintf.o(.text) refers (Special) to _printf_e.o(.ARM.Collect$$_printf_percent$$00000004) for _printf_e
    c89vsnprintf.o(.text) refers (Special) to _printf_f.o(.ARM.Collect$$_printf_percent$$00000003) for _printf_f
    c89vsnprintf.o(.text) refers (Special) to printf1.o(x$fpl$printf1) for _printf_fp_dec
    c89vsnprintf.o(.text) refers (Special) to _printf_g.o(.ARM.Collect$$_printf_percent$$00000005) for _printf_g
    c89vsnprintf.o(.text) refers (Special) to _printf_i.o(.ARM.Collect$$_printf_percent$$00000008) for _printf_i
    c89vsnprintf.o(.text) refers (Special) to _printf_dec.o(.text) for _printf_int_dec
    c89vsnprintf.o(.text) refers (Special) to _printf_l.o(.ARM.Collect$$_printf_percent$$00000012) for _printf_l
    c89vsnprintf.o(.text) refers (Special) to _printf_lc.o(.ARM.Collect$$_printf_percent$$00000015) for _printf_lc
    c89vsnprintf.o(.text) refers (Special) to _printf_ll.o(.ARM.Collect$$_printf_percent$$00000007) for _printf_ll
    c89vsnprintf.o(.text) refers (Special) to _printf_lld.o(.ARM.Collect$$_printf_percent$$0000000E) for _printf_lld
    c89vsnprintf.o(.text) refers (Special) to _printf_lli.o(.ARM.Collect$$_printf_percent$$0000000D) for _printf_lli
    c89vsnprintf.o(.text) refers (Special) to _printf_llo.o(.ARM.Collect$$_printf_percent$$00000010) for _printf_llo
    c89vsnprintf.o(.text) refers (Special) to _printf_llu.o(.ARM.Collect$$_printf_percent$$0000000F) for _printf_llu
    c89vsnprintf.o(.text) refers (Special) to _printf_llx.o(.ARM.Collect$$_printf_percent$$00000011) for _printf_llx
    c89vsnprintf.o(.text) refers (Special) to _printf_longlong_dec.o(.text) for _printf_longlong_dec
    c89vsnprintf.o(.text) refers (Special) to _printf_hex_int_ll_ptr.o(.text) for _printf_longlong_hex
    c89vsnprintf.o(.text) refers (Special) to _printf_oct_int_ll.o(.text) for _printf_longlong_oct
    c89vsnprintf.o(.text) refers (Special) to _printf_ls.o(.ARM.Collect$$_printf_percent$$00000016) for _printf_ls
    c89vsnprintf.o(.text) refers (Special) to _printf_n.o(.ARM.Collect$$_printf_percent$$00000001) for _printf_n
    c89vsnprintf.o(.text) refers (Special) to _printf_o.o(.ARM.Collect$$_printf_percent$$0000000B) for _printf_o
    c89vsnprintf.o(.text) refers (Special) to _printf_p.o(.ARM.Collect$$_printf_percent$$00000002) for _printf_p
    c89vsnprintf.o(.text) refers (Special) to _printf_percent.o(.ARM.Collect$$_printf_percent$$00000000) for _printf_percent
    c89vsnprintf.o(.text) refers (Special) to _printf_pad.o(.text) for _printf_post_padding
    c89vsnprintf.o(.text) refers (Special) to _printf_s.o(.ARM.Collect$$_printf_percent$$00000014) for _printf_s
    c89vsnprintf.o(.text) refers (Special) to _printf_str.o(.text) for _printf_str
    c89vsnprintf.o(.text) refers (Special) to _printf_truncate.o(.text) for _printf_truncate_signed
    c89vsnprintf.o(.text) refers (Special) to _printf_u.o(.ARM.Collect$$_printf_percent$$0000000A) for _printf_u
    c89vsnprintf.o(.text) refers (Special) to _printf_wctomb.o(.text) for _printf_wctomb
    c89vsnprintf.o(.text) refers (Special) to _printf_x.o(.ARM.Collect$$_printf_percent$$0000000C) for _printf_x
    c89vsnprintf.o(.text) refers to _printf_char_common.o(.text) for _printf_char_common
    c89vsnprintf.o(.text) refers to _sputc.o(.text) for _sputc
    c89vsnprintf.o(.text) refers to _snputc.o(.text) for _snputc
    abort.o(.text) refers to defsig_abrt_outer.o(.text) for __rt_SIGABRT
    abort.o(.text) refers (Weak) to libshutdown.o(.ARM.Collect$$libshutdown$$00000000) for __rt_lib_shutdown
    abort.o(.text) refers to sys_exit.o(.text) for _sys_exit
    rt_memcpy_v6.o(.text) refers to rt_memcpy_w.o(.text) for __aeabi_memcpy4
    rt_memclr.o(.text) refers to rt_memclr_w.o(.text) for _memset_w
    __main.o(!!!main) refers to __rtentry.o(.ARM.Collect$$rtentry$$00000000) for __rt_entry
    init_aeabi.o(.emb_text) refers (Special) to libinit2.o(.ARM.Collect$$libinit$$00000031) for __rt_lib_init_cpp_2
    init_aeabi.o(.init_array) refers (Special) to libinit2.o(.ARM.Collect$$libinit$$00000031) for __rt_lib_init_cpp_2
    init_aeabi.o(.init_array) refers to init_aeabi.o(.text) for __cpp_initialize__aeabi_
    init_aeabi.o(.dummy_text) refers (Special) to libinit2.o(.ARM.Collect$$libinit$$00000031) for __rt_lib_init_cpp_2
    init_aeabi.o(.text) refers (Special) to libinit2.o(.ARM.Collect$$libinit$$00000031) for __rt_lib_init_cpp_2
    init_aeabi.o(.ARM.exidx) refers (Special) to libinit2.o(.ARM.Collect$$libinit$$00000031) for __rt_lib_init_cpp_2
    init_aeabi.o(.ARM.exidx) refers to init_aeabi.o(.text) for .text
    cxa_guard_acquire.o(.ARM.exidx) refers to cxa_guard_acquire.o(i.__cxa_guard_acquire) for i.__cxa_guard_acquire
    cxa_guard_release.o(.ARM.exidx) refers to cxa_guard_release.o(i.__cxa_guard_release) for i.__cxa_guard_release
    lib_rtti_impl.o(i._ZN10__cxxabiv116__enum_type_infoD0Ev) refers to lib_rtti_impl.o(i._ZN10__cxxabiv116__enum_type_infoD1Ev) for __cxxabiv1::__enum_type_info::~__enum_type_info()
    lib_rtti_impl.o(i._ZN10__cxxabiv117__array_type_infoD0Ev) refers to lib_rtti_impl.o(i._ZN10__cxxabiv117__array_type_infoD1Ev) for __cxxabiv1::__array_type_info::~__array_type_info()
    lib_rtti_impl.o(i._ZN10__cxxabiv117__class_type_infoD0Ev) refers to lib_rtti_impl.o(i._ZN10__cxxabiv117__class_type_infoD1Ev) for __cxxabiv1::__class_type_info::~__class_type_info()
    lib_rtti_impl.o(i._ZN10__cxxabiv117__pbase_type_infoD0Ev) refers to lib_rtti_impl.o(i._ZN10__cxxabiv117__pbase_type_infoD1Ev) for __cxxabiv1::__pbase_type_info::~__pbase_type_info()
    lib_rtti_impl.o(i._ZN10__cxxabiv119__pointer_type_infoD0Ev) refers to lib_rtti_impl.o(i._ZN10__cxxabiv119__pointer_type_infoD1Ev) for __cxxabiv1::__pointer_type_info::~__pointer_type_info()
    lib_rtti_impl.o(i._ZN10__cxxabiv119__pointer_type_infoD1Ev) refers to lib_rtti_impl.o(i._ZN10__cxxabiv117__pbase_type_infoD1Ev) for __cxxabiv1::__pbase_type_info::~__pbase_type_info()
    lib_rtti_impl.o(i._ZN10__cxxabiv120__function_type_infoD0Ev) refers to lib_rtti_impl.o(i._ZN10__cxxabiv120__function_type_infoD1Ev) for __cxxabiv1::__function_type_info::~__function_type_info()
    lib_rtti_impl.o(i._ZN10__cxxabiv120__si_class_type_infoD0Ev) refers to lib_rtti_impl.o(i._ZN10__cxxabiv120__si_class_type_infoD1Ev) for __cxxabiv1::__si_class_type_info::~__si_class_type_info()
    lib_rtti_impl.o(i._ZN10__cxxabiv120__si_class_type_infoD1Ev) refers to lib_rtti_impl.o(i._ZN10__cxxabiv117__class_type_infoD1Ev) for __cxxabiv1::__class_type_info::~__class_type_info()
    lib_rtti_impl.o(i._ZN10__cxxabiv121__vmi_class_type_infoD0Ev) refers to lib_rtti_impl.o(i._ZN10__cxxabiv121__vmi_class_type_infoD1Ev) for __cxxabiv1::__vmi_class_type_info::~__vmi_class_type_info()
    lib_rtti_impl.o(i._ZN10__cxxabiv121__vmi_class_type_infoD1Ev) refers to lib_rtti_impl.o(i._ZN10__cxxabiv117__class_type_infoD1Ev) for __cxxabiv1::__class_type_info::~__class_type_info()
    lib_rtti_impl.o(i._ZN10__cxxabiv123__fundamental_type_infoD0Ev) refers to lib_rtti_impl.o(i._ZN10__cxxabiv123__fundamental_type_infoD1Ev) for __cxxabiv1::__fundamental_type_info::~__fundamental_type_info()
    lib_rtti_impl.o(i._ZN10__cxxabiv129__pointer_to_member_type_infoD0Ev) refers to lib_rtti_impl.o(i._ZN10__cxxabiv129__pointer_to_member_type_infoD1Ev) for __cxxabiv1::__pointer_to_member_type_info::~__pointer_to_member_type_info()
    lib_rtti_impl.o(i._ZN10__cxxabiv129__pointer_to_member_type_infoD1Ev) refers to lib_rtti_impl.o(i._ZN10__cxxabiv117__pbase_type_infoD1Ev) for __cxxabiv1::__pbase_type_info::~__pbase_type_info()
    lib_rtti_impl.o(.ARM.exidx) refers to lib_rtti_impl.o(i._ZN10__cxxabiv123__fundamental_type_infoD1Ev) for i._ZN10__cxxabiv123__fundamental_type_infoD1Ev
    lib_rtti_impl.o(.ARM.exidx) refers to lib_rtti_impl.o(i._ZN10__cxxabiv123__fundamental_type_infoD0Ev) for i._ZN10__cxxabiv123__fundamental_type_infoD0Ev
    lib_rtti_impl.o(.ARM.exidx) refers to lib_rtti_impl.o(i._ZN10__cxxabiv117__array_type_infoD1Ev) for i._ZN10__cxxabiv117__array_type_infoD1Ev
    lib_rtti_impl.o(.ARM.exidx) refers to lib_rtti_impl.o(i._ZN10__cxxabiv117__array_type_infoD0Ev) for i._ZN10__cxxabiv117__array_type_infoD0Ev
    lib_rtti_impl.o(.ARM.exidx) refers to lib_rtti_impl.o(i._ZN10__cxxabiv120__function_type_infoD1Ev) for i._ZN10__cxxabiv120__function_type_infoD1Ev
    lib_rtti_impl.o(.ARM.exidx) refers to lib_rtti_impl.o(i._ZN10__cxxabiv120__function_type_infoD0Ev) for i._ZN10__cxxabiv120__function_type_infoD0Ev
    lib_rtti_impl.o(.ARM.exidx) refers to lib_rtti_impl.o(i._ZN10__cxxabiv116__enum_type_infoD1Ev) for i._ZN10__cxxabiv116__enum_type_infoD1Ev
    lib_rtti_impl.o(.ARM.exidx) refers to lib_rtti_impl.o(i._ZN10__cxxabiv116__enum_type_infoD0Ev) for i._ZN10__cxxabiv116__enum_type_infoD0Ev
    lib_rtti_impl.o(.ARM.exidx) refers to lib_rtti_impl.o(i._ZN10__cxxabiv117__class_type_infoD1Ev) for i._ZN10__cxxabiv117__class_type_infoD1Ev
    lib_rtti_impl.o(.ARM.exidx) refers to lib_rtti_impl.o(i._ZN10__cxxabiv117__class_type_infoD0Ev) for i._ZN10__cxxabiv117__class_type_infoD0Ev
    lib_rtti_impl.o(.ARM.exidx) refers to lib_rtti_impl.o(i._ZN10__cxxabiv120__si_class_type_infoD1Ev) for i._ZN10__cxxabiv120__si_class_type_infoD1Ev
    lib_rtti_impl.o(.ARM.exidx) refers to lib_rtti_impl.o(i._ZN10__cxxabiv120__si_class_type_infoD0Ev) for i._ZN10__cxxabiv120__si_class_type_infoD0Ev
    lib_rtti_impl.o(.ARM.exidx) refers to lib_rtti_impl.o(i._ZN10__cxxabiv121__vmi_class_type_infoD1Ev) for i._ZN10__cxxabiv121__vmi_class_type_infoD1Ev
    lib_rtti_impl.o(.ARM.exidx) refers to lib_rtti_impl.o(i._ZN10__cxxabiv121__vmi_class_type_infoD0Ev) for i._ZN10__cxxabiv121__vmi_class_type_infoD0Ev
    lib_rtti_impl.o(.ARM.exidx) refers to lib_rtti_impl.o(i._ZN10__cxxabiv117__pbase_type_infoD1Ev) for i._ZN10__cxxabiv117__pbase_type_infoD1Ev
    lib_rtti_impl.o(.ARM.exidx) refers to lib_rtti_impl.o(i._ZN10__cxxabiv117__pbase_type_infoD0Ev) for i._ZN10__cxxabiv117__pbase_type_infoD0Ev
    lib_rtti_impl.o(.ARM.exidx) refers to lib_rtti_impl.o(i._ZN10__cxxabiv119__pointer_type_infoD1Ev) for i._ZN10__cxxabiv119__pointer_type_infoD1Ev
    lib_rtti_impl.o(.ARM.exidx) refers to lib_rtti_impl.o(i._ZN10__cxxabiv119__pointer_type_infoD0Ev) for i._ZN10__cxxabiv119__pointer_type_infoD0Ev
    lib_rtti_impl.o(.ARM.exidx) refers to lib_rtti_impl.o(i._ZN10__cxxabiv129__pointer_to_member_type_infoD1Ev) for i._ZN10__cxxabiv129__pointer_to_member_type_infoD1Ev
    lib_rtti_impl.o(.ARM.exidx) refers to lib_rtti_impl.o(i._ZN10__cxxabiv129__pointer_to_member_type_infoD0Ev) for i._ZN10__cxxabiv129__pointer_to_member_type_infoD0Ev
    aeabi_vec_ctor_nocookie_nodtor.o(.ARM.exidx) refers to aeabi_vec_ctor_nocookie_nodtor.o(i.__aeabi_vec_ctor_nocookie_nodtor) for i.__aeabi_vec_ctor_nocookie_nodtor
    aeabi_vec_ctor_nocookie_nodtor.o(.ARM.exidx) refers to unwind_pr0.o(.text) for __aeabi_unwind_cpp_pr0
    ddiv.o(x$fpl$drdiv) refers (Special) to usenofp.o(x$fpl$usenofp) for __I$use$fp
    ddiv.o(x$fpl$drdiv) refers to ddiv.o(x$fpl$ddiv) for ddiv_entry
    ddiv.o(x$fpl$ddiv) refers (Special) to usenofp.o(x$fpl$usenofp) for __I$use$fp
    ddiv.o(x$fpl$ddiv) refers to dretinf.o(x$fpl$dretinf) for __fpl_dretinf
    ddiv.o(x$fpl$ddiv) refers to dnaninf.o(x$fpl$dnaninf) for __fpl_dnaninf
    dfix.o(x$fpl$dfix) refers (Special) to usenofp.o(x$fpl$usenofp) for __I$use$fp
    dfix.o(x$fpl$dfix) refers to dnaninf.o(x$fpl$dnaninf) for __fpl_dnaninf
    dfix.o(x$fpl$dfixr) refers (Special) to usenofp.o(x$fpl$usenofp) for __I$use$fp
    dfix.o(x$fpl$dfixr) refers to dnaninf.o(x$fpl$dnaninf) for __fpl_dnaninf
    dfixu.o(x$fpl$dfixu) refers (Special) to usenofp.o(x$fpl$usenofp) for __I$use$fp
    dfixu.o(x$fpl$dfixu) refers to dnaninf.o(x$fpl$dnaninf) for __fpl_dnaninf
    dfixu.o(x$fpl$dfixur) refers (Special) to usenofp.o(x$fpl$usenofp) for __I$use$fp
    dfixu.o(x$fpl$dfixur) refers to dnaninf.o(x$fpl$dnaninf) for __fpl_dnaninf
    dflt_clz.o(x$fpl$dfltu) refers (Special) to usenofp.o(x$fpl$usenofp) for __I$use$fp
    dflt_clz.o(x$fpl$dflt) refers (Special) to usenofp.o(x$fpl$usenofp) for __I$use$fp
    dflt_clz.o(x$fpl$dfltn) refers (Special) to usenofp.o(x$fpl$usenofp) for __I$use$fp
    dmul.o(x$fpl$dmul) refers (Special) to usenofp.o(x$fpl$usenofp) for __I$use$fp
    dmul.o(x$fpl$dmul) refers to dretinf.o(x$fpl$dretinf) for __fpl_dretinf
    dmul.o(x$fpl$dmul) refers to dnaninf.o(x$fpl$dnaninf) for __fpl_dnaninf
    faddsub_clz.o(x$fpl$fadd) refers (Special) to usenofp.o(x$fpl$usenofp) for __I$use$fp
    faddsub_clz.o(x$fpl$fadd) refers to faddsub_clz.o(x$fpl$fsub) for _fsub1
    faddsub_clz.o(x$fpl$fadd) refers to fretinf.o(x$fpl$fretinf) for __fpl_fretinf
    faddsub_clz.o(x$fpl$fadd) refers to fnaninf.o(x$fpl$fnaninf) for __fpl_fnaninf
    faddsub_clz.o(x$fpl$frsb) refers (Special) to usenofp.o(x$fpl$usenofp) for __I$use$fp
    faddsub_clz.o(x$fpl$frsb) refers to faddsub_clz.o(x$fpl$fadd) for _fadd1
    faddsub_clz.o(x$fpl$frsb) refers to faddsub_clz.o(x$fpl$fsub) for _fsub1
    faddsub_clz.o(x$fpl$fsub) refers (Special) to usenofp.o(x$fpl$usenofp) for __I$use$fp
    faddsub_clz.o(x$fpl$fsub) refers to faddsub_clz.o(x$fpl$fadd) for _fadd1
    faddsub_clz.o(x$fpl$fsub) refers to fnaninf.o(x$fpl$fnaninf) for __fpl_fnaninf
    fdiv.o(x$fpl$frdiv) refers (Special) to usenofp.o(x$fpl$usenofp) for __I$use$fp
    fdiv.o(x$fpl$frdiv) refers to fdiv.o(x$fpl$fdiv) for _fdiv1
    fdiv.o(x$fpl$fdiv) refers (Special) to usenofp.o(x$fpl$usenofp) for __I$use$fp
    fdiv.o(x$fpl$fdiv) refers to fretinf.o(x$fpl$fretinf) for __fpl_fretinf
    fdiv.o(x$fpl$fdiv) refers to fnaninf.o(x$fpl$fnaninf) for __fpl_fnaninf
    feqf.o(x$fpl$feqf) refers (Special) to usenofp.o(x$fpl$usenofp) for __I$use$fp
    feqf.o(x$fpl$feqf) refers to fnaninf.o(x$fpl$fnaninf) for __fpl_fnaninf
    feqf.o(x$fpl$feqf) refers to fcmpi.o(x$fpl$fcmpinf) for __fpl_fcmp_Inf
    ffix.o(x$fpl$ffix) refers (Special) to usenofp.o(x$fpl$usenofp) for __I$use$fp
    ffix.o(x$fpl$ffix) refers to fnaninf.o(x$fpl$fnaninf) for __fpl_fnaninf
    ffix.o(x$fpl$ffixr) refers (Special) to usenofp.o(x$fpl$usenofp) for __I$use$fp
    ffix.o(x$fpl$ffixr) refers to fnaninf.o(x$fpl$fnaninf) for __fpl_fnaninf
    ffixu.o(x$fpl$ffixu) refers (Special) to usenofp.o(x$fpl$usenofp) for __I$use$fp
    ffixu.o(x$fpl$ffixu) refers to fnaninf.o(x$fpl$fnaninf) for __fpl_fnaninf
    ffixu.o(x$fpl$ffixur) refers (Special) to usenofp.o(x$fpl$usenofp) for __I$use$fp
    ffixu.o(x$fpl$ffixur) refers to fnaninf.o(x$fpl$fnaninf) for __fpl_fnaninf
    fflt_clz.o(x$fpl$ffltu) refers (Special) to usenofp.o(x$fpl$usenofp) for __I$use$fp
    fflt_clz.o(x$fpl$fflt) refers (Special) to usenofp.o(x$fpl$usenofp) for __I$use$fp
    fflt_clz.o(x$fpl$ffltn) refers (Special) to usenofp.o(x$fpl$usenofp) for __I$use$fp
    fleqf.o(x$fpl$fleqf) refers (Special) to usenofp.o(x$fpl$usenofp) for __I$use$fp
    fleqf.o(x$fpl$fleqf) refers to fnaninf.o(x$fpl$fnaninf) for __fpl_fnaninf
    fleqf.o(x$fpl$fleqf) refers to fcmpi.o(x$fpl$fcmpinf) for __fpl_fcmp_Inf
    fmul.o(x$fpl$fmul) refers (Special) to usenofp.o(x$fpl$usenofp) for __I$use$fp
    fmul.o(x$fpl$fmul) refers to fretinf.o(x$fpl$fretinf) for __fpl_fretinf
    fmul.o(x$fpl$fmul) refers to fnaninf.o(x$fpl$fnaninf) for __fpl_fnaninf
    frleqf.o(x$fpl$frleqf) refers (Special) to usenofp.o(x$fpl$usenofp) for __I$use$fp
    frleqf.o(x$fpl$frleqf) refers to fleqf.o(x$fpl$fleqf) for __fpl_fcmple_InfNaN
    sqrtf.o(i.__softfp_sqrtf) refers (Special) to usenofp.o(x$fpl$usenofp) for __I$use$fp
    sqrtf.o(i.__softfp_sqrtf) refers to fsqrt.o(x$fpl$fsqrt) for _fsqrt
    sqrtf.o(i.__softfp_sqrtf) refers to _rserrno.o(.text) for __set_errno
    sqrtf.o(i.sqrtf) refers (Special) to usenofp.o(x$fpl$usenofp) for __I$use$fp
    sqrtf.o(i.sqrtf) refers to fsqrt.o(x$fpl$fsqrt) for _fsqrt
    sqrtf.o(i.sqrtf) refers to _rserrno.o(.text) for __set_errno
    sqrtf_x.o(i.____softfp_sqrtf$lsc) refers (Special) to usenofp.o(x$fpl$usenofp) for __I$use$fp
    sqrtf_x.o(i.____softfp_sqrtf$lsc) refers to _rserrno.o(.text) for __set_errno
    sqrtf_x.o(i.____softfp_sqrtf$lsc) refers to fsqrt.o(x$fpl$fsqrt) for _fsqrt
    sqrtf_x.o(i.__sqrtf$lsc) refers (Special) to usenofp.o(x$fpl$usenofp) for __I$use$fp
    sqrtf_x.o(i.__sqrtf$lsc) refers to _rserrno.o(.text) for __set_errno
    sqrtf_x.o(i.__sqrtf$lsc) refers to fsqrt.o(x$fpl$fsqrt) for _fsqrt
    sys_exit.o(.text) refers (Special) to use_no_semi.o(.text) for __I$use$semihosting
    sys_exit.o(.text) refers (Special) to indicate_semi.o(.text) for __semihosting_library_function
    __rtentry.o(.ARM.Collect$$rtentry$$00000000) refers (Special) to __rtentry2.o(.ARM.Collect$$rtentry$$0000000A) for __rt_entry_li
    __rtentry.o(.ARM.Collect$$rtentry$$00000000) refers (Special) to __rtentry2.o(.ARM.Collect$$rtentry$$0000000D) for __rt_entry_main
    __rtentry.o(.ARM.Collect$$rtentry$$00000000) refers (Special) to __rtentry2.o(.ARM.Collect$$rtentry$$0000000C) for __rt_entry_postli_1
    __rtentry.o(.ARM.Collect$$rtentry$$00000000) refers (Special) to __rtentry2.o(.ARM.Collect$$rtentry$$00000009) for __rt_entry_postsh_1
    __rtentry.o(.ARM.Collect$$rtentry$$00000000) refers (Special) to __rtentry2.o(.ARM.Collect$$rtentry$$00000002) for __rt_entry_presh_1
    __rtentry.o(.ARM.Collect$$rtentry$$00000000) refers (Special) to __rtentry4.o(.ARM.Collect$$rtentry$$00000004) for __rt_entry_sh
    aeabi_ldiv0_sigfpe.o(.text) refers to rt_div0.o(.text) for __rt_div0
    rt_heap_descriptor.o(.text) refers to rt_heap_descriptor.o(.bss) for __rt_heap_descriptor_data
    rt_heap_descriptor_intlibspace.o(.text) refers to libspace.o(.bss) for __libspace_start
    init_alloc.o(.text) refers (Special) to hguard.o(.text) for __heap$guard
    init_alloc.o(.text) refers (Special) to libinit2.o(.ARM.Collect$$libinit$$00000005) for __rt_lib_init_heap_2
    init_alloc.o(.text) refers (Special) to maybetermalloc1.o(.emb_text) for _maybe_terminate_alloc
    init_alloc.o(.text) refers to h1_extend.o(.text) for __Heap_ProvideMemory
    init_alloc.o(.text) refers to defsig_rtmem_outer.o(.text) for __rt_SIGRTMEM
    init_alloc.o(.text) refers to rt_heap_descriptor_intlibspace.o(.text) for __rt_heap_descriptor
    init_alloc.o(.text) refers to h1_init.o(.text) for __Heap_Initialize
    h1_init_mt.o(.text) refers to mutex_dummy.o(.text) for _mutex_initialize
    _rserrno.o(.text) refers to rt_errno_addr_intlibspace.o(.text) for __aeabi_errno_addr
    __printf.o(.text) refers to _printf_percent.o(.ARM.Collect$$_printf_percent$$00000000) for _printf_percent
    _printf_str.o(.text) refers (Special) to _printf_char.o(.text) for _printf_cs_common
    _printf_str.o(.text) refers (Weak) to _printf_pad.o(.text) for _printf_pre_padding
    _printf_str.o(.text) refers (Weak) to _printf_pad.o(.text) for _printf_post_padding
    _printf_dec.o(.text) refers (Weak) to _printf_truncate.o(.text) for _printf_truncate_signed
    _printf_dec.o(.text) refers (Weak) to _printf_truncate.o(.text) for _printf_truncate_unsigned
    _printf_dec.o(.text) refers to _printf_intcommon.o(.text) for _printf_int_common
    _printf_char_common.o(.text) refers to __printf_flags_ss_wp.o(.text) for __printf
    _printf_wctomb.o(.text) refers (Special) to _printf_wchar.o(.text) for _printf_lcs_common
    _printf_wctomb.o(.text) refers to _wcrtomb.o(.text) for _wcrtomb
    _printf_wctomb.o(.text) refers (Weak) to _printf_pad.o(.text) for _printf_pre_padding
    _printf_wctomb.o(.text) refers (Weak) to _printf_pad.o(.text) for _printf_post_padding
    _printf_wctomb.o(.text) refers to _printf_wctomb.o(.constdata) for .constdata
    _printf_wctomb.o(.constdata) refers (Special) to _printf_wchar.o(.text) for _printf_lcs_common
    _printf_longlong_dec.o(.text) refers to lludiv10.o(.text) for _ll_udiv10
    _printf_longlong_dec.o(.text) refers to _printf_intcommon.o(.text) for _printf_int_common
    _printf_oct_ll.o(.text) refers to _printf_intcommon.o(.text) for _printf_int_common
    _printf_oct_int.o(.text) refers (Weak) to _printf_truncate.o(.text) for _printf_truncate_unsigned
    _printf_oct_int.o(.text) refers to _printf_intcommon.o(.text) for _printf_int_common
    _printf_oct_int_ll.o(.text) refers to _printf_intcommon.o(.text) for _printf_int_common
    _printf_oct_int_ll.o(.text) refers (Weak) to _printf_truncate.o(.text) for _printf_truncate_unsigned
    _printf_hex_ll.o(.text) refers to _printf_intcommon.o(.text) for _printf_int_common
    _printf_hex_ll.o(.text) refers to _printf_hex_ll.o(.constdata) for .constdata
    _printf_hex_int.o(.text) refers (Weak) to _printf_truncate.o(.text) for _printf_truncate_unsigned
    _printf_hex_int.o(.text) refers to _printf_intcommon.o(.text) for _printf_int_common
    _printf_hex_int.o(.text) refers to _printf_hex_int.o(.constdata) for .constdata
    _printf_hex_int_ll.o(.text) refers to _printf_intcommon.o(.text) for _printf_int_common
    _printf_hex_int_ll.o(.text) refers (Weak) to _printf_truncate.o(.text) for _printf_truncate_unsigned
    _printf_hex_int_ll.o(.text) refers to _printf_hex_int_ll.o(.constdata) for .constdata
    _printf_hex_ptr.o(.text) refers to _printf_intcommon.o(.text) for _printf_int_common
    _printf_hex_ptr.o(.text) refers to _printf_hex_ptr.o(.constdata) for .constdata
    _printf_hex_int_ptr.o(.text) refers to _printf_intcommon.o(.text) for _printf_int_common
    _printf_hex_int_ptr.o(.text) refers (Weak) to _printf_truncate.o(.text) for _printf_truncate_unsigned
    _printf_hex_int_ptr.o(.text) refers to _printf_hex_int_ptr.o(.constdata) for .constdata
    _printf_hex_ll_ptr.o(.text) refers to _printf_intcommon.o(.text) for _printf_int_common
    _printf_hex_ll_ptr.o(.text) refers to _printf_hex_ll_ptr.o(.constdata) for .constdata
    _printf_hex_int_ll_ptr.o(.text) refers to _printf_intcommon.o(.text) for _printf_int_common
    _printf_hex_int_ll_ptr.o(.text) refers (Weak) to _printf_truncate.o(.text) for _printf_truncate_unsigned
    _printf_hex_int_ll_ptr.o(.text) refers to _printf_hex_int_ll_ptr.o(.constdata) for .constdata
    __printf_flags.o(.text) refers to _printf_percent.o(.ARM.Collect$$_printf_percent$$00000000) for _printf_percent
    __printf_flags.o(.text) refers to __printf_flags.o(.constdata) for .constdata
    __printf_ss.o(.text) refers to _printf_percent.o(.ARM.Collect$$_printf_percent$$00000000) for _printf_percent
    __printf_flags_ss.o(.text) refers to _printf_percent.o(.ARM.Collect$$_printf_percent$$00000000) for _printf_percent
    __printf_flags_ss.o(.text) refers to __printf_flags_ss.o(.constdata) for .constdata
    __printf_wp.o(.text) refers to __printf_wp.o(i._is_digit) for _is_digit
    __printf_wp.o(.text) refers to _printf_percent.o(.ARM.Collect$$_printf_percent$$00000000) for _printf_percent
    __printf_flags_wp.o(.text) refers to __printf_wp.o(i._is_digit) for _is_digit
    __printf_flags_wp.o(.text) refers to _printf_percent.o(.ARM.Collect$$_printf_percent$$00000000) for _printf_percent
    __printf_flags_wp.o(.text) refers to __printf_flags_wp.o(.constdata) for .constdata
    __printf_ss_wp.o(.text) refers to __printf_wp.o(i._is_digit) for _is_digit
    __printf_ss_wp.o(.text) refers to _printf_percent.o(.ARM.Collect$$_printf_percent$$00000000) for _printf_percent
    __printf_flags_ss_wp.o(.text) refers to __printf_wp.o(i._is_digit) for _is_digit
    __printf_flags_ss_wp.o(.text) refers to _printf_percent.o(.ARM.Collect$$_printf_percent$$00000000) for _printf_percent
    __printf_flags_ss_wp.o(.text) refers to __printf_flags_ss_wp.o(.constdata) for .constdata
    _printf_c.o(.ARM.Collect$$_printf_percent$$00000013) refers (Weak) to _printf_char.o(.text) for _printf_char
    _printf_s.o(.ARM.Collect$$_printf_percent$$00000014) refers (Weak) to _printf_char.o(.text) for _printf_string
    _printf_n.o(.ARM.Collect$$_printf_percent$$00000001) refers (Weak) to _printf_charcount.o(.text) for _printf_charcount
    _printf_x.o(.ARM.Collect$$_printf_percent$$0000000C) refers (Weak) to _printf_hex_int_ll_ptr.o(.text) for _printf_int_hex
    _printf_p.o(.ARM.Collect$$_printf_percent$$00000002) refers (Weak) to _printf_hex_int_ll_ptr.o(.text) for _printf_hex_ptr
    _printf_o.o(.ARM.Collect$$_printf_percent$$0000000B) refers (Weak) to _printf_oct_int_ll.o(.text) for _printf_int_oct
    _printf_i.o(.ARM.Collect$$_printf_percent$$00000008) refers (Weak) to _printf_dec.o(.text) for _printf_int_dec
    _printf_d.o(.ARM.Collect$$_printf_percent$$00000009) refers (Weak) to _printf_dec.o(.text) for _printf_int_dec
    _printf_u.o(.ARM.Collect$$_printf_percent$$0000000A) refers (Weak) to _printf_dec.o(.text) for _printf_int_dec
    _printf_f.o(.ARM.Collect$$_printf_percent$$00000003) refers (Weak) to printf1.o(x$fpl$printf1) for _printf_fp_dec
    _printf_e.o(.ARM.Collect$$_printf_percent$$00000004) refers (Weak) to printf1.o(x$fpl$printf1) for _printf_fp_dec
    _printf_g.o(.ARM.Collect$$_printf_percent$$00000005) refers (Weak) to printf1.o(x$fpl$printf1) for _printf_fp_dec
    _printf_percent.o(.ARM.Collect$$_printf_percent$$00000000) refers (Special) to _printf_percent_end.o(.ARM.Collect$$_printf_percent$$00000017) for _printf_percent_end
    _printf_lli.o(.ARM.Collect$$_printf_percent$$0000000D) refers (Special) to _printf_ll.o(.ARM.Collect$$_printf_percent$$00000007) for _printf_ll
    _printf_lli.o(.ARM.Collect$$_printf_percent$$0000000D) refers (Weak) to _printf_longlong_dec.o(.text) for _printf_longlong_dec
    _printf_lld.o(.ARM.Collect$$_printf_percent$$0000000E) refers (Special) to _printf_ll.o(.ARM.Collect$$_printf_percent$$00000007) for _printf_ll
    _printf_lld.o(.ARM.Collect$$_printf_percent$$0000000E) refers (Weak) to _printf_longlong_dec.o(.text) for _printf_longlong_dec
    _printf_llu.o(.ARM.Collect$$_printf_percent$$0000000F) refers (Special) to _printf_ll.o(.ARM.Collect$$_printf_percent$$00000007) for _printf_ll
    _printf_llu.o(.ARM.Collect$$_printf_percent$$0000000F) refers (Weak) to _printf_longlong_dec.o(.text) for _printf_longlong_dec
    _printf_lc.o(.ARM.Collect$$_printf_percent$$00000015) refers (Special) to _printf_l.o(.ARM.Collect$$_printf_percent$$00000012) for _printf_l
    _printf_lc.o(.ARM.Collect$$_printf_percent$$00000015) refers (Weak) to _printf_wchar.o(.text) for _printf_wchar
    _printf_ls.o(.ARM.Collect$$_printf_percent$$00000016) refers (Special) to _printf_l.o(.ARM.Collect$$_printf_percent$$00000012) for _printf_l
    _printf_ls.o(.ARM.Collect$$_printf_percent$$00000016) refers (Weak) to _printf_wchar.o(.text) for _printf_wstring
    _printf_llo.o(.ARM.Collect$$_printf_percent$$00000010) refers (Special) to _printf_ll.o(.ARM.Collect$$_printf_percent$$00000007) for _printf_ll
    _printf_llo.o(.ARM.Collect$$_printf_percent$$00000010) refers (Weak) to _printf_oct_int_ll.o(.text) for _printf_ll_oct
    _printf_llx.o(.ARM.Collect$$_printf_percent$$00000011) refers (Special) to _printf_ll.o(.ARM.Collect$$_printf_percent$$00000007) for _printf_ll
    _printf_llx.o(.ARM.Collect$$_printf_percent$$00000011) refers (Weak) to _printf_hex_int_ll_ptr.o(.text) for _printf_ll_hex
    defsig_abrt_outer.o(.text) refers to defsig_abrt_inner.o(.text) for __rt_SIGABRT_inner
    defsig_abrt_outer.o(.text) refers to defsig_exit.o(.text) for __sig_exit
    defsig_abrt_formal.o(.text) refers to rt_raise.o(.text) for __rt_raise
    _get_argv.o(.text) refers (Special) to hrguard.o(.text) for __heap_region$guard
    _get_argv.o(.text) refers to h1_alloc.o(.text) for malloc
    _get_argv.o(.text) refers to defsig_rtmem_outer.o(.text) for __rt_SIGRTMEM
    _get_argv.o(.text) refers to sys_command.o(.text) for _sys_command_string
    libinit2.o(.ARM.Collect$$libinit$$00000005) refers (Weak) to init_alloc.o(.text) for _init_alloc
    libinit2.o(.ARM.Collect$$libinit$$0000000F) refers (Weak) to rt_locale_intlibspace.o(.text) for __rt_locale
    libinit2.o(.ARM.Collect$$libinit$$00000010) refers to libinit2.o(.ARM.Collect$$libinit$$0000000F) for .ARM.Collect$$libinit$$0000000F
    libinit2.o(.ARM.Collect$$libinit$$00000012) refers to libinit2.o(.ARM.Collect$$libinit$$0000000F) for .ARM.Collect$$libinit$$0000000F
    libinit2.o(.ARM.Collect$$libinit$$00000012) refers (Weak) to lc_ctype_c.o(locale$$code) for _get_lc_ctype
    libinit2.o(.ARM.Collect$$libinit$$00000014) refers to libinit2.o(.ARM.Collect$$libinit$$0000000F) for .ARM.Collect$$libinit$$0000000F
    libinit2.o(.ARM.Collect$$libinit$$00000016) refers to libinit2.o(.ARM.Collect$$libinit$$0000000F) for .ARM.Collect$$libinit$$0000000F
    libinit2.o(.ARM.Collect$$libinit$$00000016) refers (Weak) to lc_numeric_c.o(locale$$code) for _get_lc_numeric
    libinit2.o(.ARM.Collect$$libinit$$00000018) refers to libinit2.o(.ARM.Collect$$libinit$$0000000F) for .ARM.Collect$$libinit$$0000000F
    libinit2.o(.ARM.Collect$$libinit$$00000026) refers to argv_veneer.o(.emb_text) for __ARM_argv_veneer
    libinit2.o(.ARM.Collect$$libinit$$00000027) refers to argv_veneer.o(.emb_text) for __ARM_argv_veneer
    libinit2.o(.ARM.Collect$$libinit$$00000031) refers (Weak) to init_aeabi.o(.text) for __cpp_initialize__aeabi_
    type_info_dtor.o(.ARM.exidx) refers to type_info_dtor.o(i._ZNSt9type_infoD1Ev) for i._ZNSt9type_infoD1Ev
    type_info_dtor.o(.ARM.exidx) refers to type_info_dtor.o(i._ZNSt9type_infoD0Ev) for i._ZNSt9type_infoD0Ev
    arm_exceptions_callterm.o(.text) refers to arm_exceptions_globs.o(.text) for __cxa_get_globals
    arm_exceptions_callterm.o(.text) refers to arm_exceptions_support.o(.text) for __ARM::is_foreign_exception(_Unwind_Control_Block*)
    arm_exceptions_callterm.o(.text) refers to arm_exceptions_terminate.o(.text) for std::terminate()
    arm_exceptions_callterm.o(.ARM.exidx) refers to arm_exceptions_callterm.o(.text) for .text
    unwind_pr0.o(.text) refers to unwind_prcommon.o(.text) for __ARM_unwind_cpp_prcommon
    unwind_pr0.o(.ARM.exidx) refers to unwind_pr0.o(.text) for .text
    dnaninf.o(x$fpl$dnaninf) refers (Special) to usenofp.o(x$fpl$usenofp) for __I$use$fp
    dretinf.o(x$fpl$dretinf) refers (Special) to usenofp.o(x$fpl$usenofp) for __I$use$fp
    fcmpi.o(x$fpl$fcmpinf) refers (Special) to usenofp.o(x$fpl$usenofp) for __I$use$fp
    fnaninf.o(x$fpl$fnaninf) refers (Special) to usenofp.o(x$fpl$usenofp) for __I$use$fp
    fretinf.o(x$fpl$fretinf) refers (Special) to usenofp.o(x$fpl$usenofp) for __I$use$fp
    fsqrt.o(x$fpl$fsqrt) refers (Special) to usenofp.o(x$fpl$usenofp) for __I$use$fp
    fsqrt.o(x$fpl$fsqrt) refers to fnaninf.o(x$fpl$fnaninf) for __fpl_fnaninf
    printf1.o(x$fpl$printf1) refers to _printf_fp_dec.o(.text) for _printf_fp_dec_real
    sys_command.o(.text) refers (Special) to use_no_semi.o(.text) for __I$use$semihosting
    sys_command.o(.text) refers (Special) to indicate_semi.o(.text) for __semihosting_library_function
    libspace.o(.text) refers to libspace.o(.bss) for __libspace_start
    __rtentry2.o(.ARM.Collect$$rtentry$$00000008) refers to boardinit2.o(.text) for _platform_post_stackheap_init
    __rtentry2.o(.ARM.Collect$$rtentry$$0000000A) refers to libinit.o(.ARM.Collect$$libinit$$00000000) for __rt_lib_init
    __rtentry2.o(.ARM.Collect$$rtentry$$0000000B) refers to boardinit3.o(.text) for _platform_post_lib_init
    __rtentry2.o(.ARM.Collect$$rtentry$$0000000D) refers to main.o(i.main) for main
    __rtentry2.o(.ARM.Collect$$rtentry$$0000000D) refers to exit.o(.text) for exit
    __rtentry2.o(.ARM.exidx) refers to __rtentry2.o(.ARM.Collect$$rtentry$$00000001) for .ARM.Collect$$rtentry$$00000001
    __rtentry2.o(.ARM.exidx) refers to __rtentry2.o(.ARM.Collect$$rtentry$$00000008) for .ARM.Collect$$rtentry$$00000008
    __rtentry2.o(.ARM.exidx) refers to __rtentry2.o(.ARM.Collect$$rtentry$$0000000A) for .ARM.Collect$$rtentry$$0000000A
    __rtentry2.o(.ARM.exidx) refers to __rtentry2.o(.ARM.Collect$$rtentry$$0000000B) for .ARM.Collect$$rtentry$$0000000B
    __rtentry2.o(.ARM.exidx) refers to __rtentry2.o(.ARM.Collect$$rtentry$$0000000D) for .ARM.Collect$$rtentry$$0000000D
    __rtentry4.o(.ARM.Collect$$rtentry$$00000004) refers to sys_stackheap_outer.o(.text) for __user_setup_stackheap
    __rtentry4.o(.ARM.exidx) refers to __rtentry4.o(.ARM.Collect$$rtentry$$00000004) for .ARM.Collect$$rtentry$$00000004
    rt_div0.o(.text) refers to defsig_fpe_outer.o(.text) for __rt_SIGFPE
    rt_raise.o(.text) refers to __raise.o(.text) for __raise
    rt_raise.o(.text) refers to sys_exit.o(.text) for _sys_exit
    rt_errno_addr.o(.text) refers to rt_errno_addr.o(.bss) for __aeabi_errno_addr_data
    rt_errno_addr_intlibspace.o(.text) refers to libspace.o(.bss) for __libspace_start
    maybetermalloc2.o(.emb_text) refers (Special) to term_alloc.o(.text) for _terminate_alloc
    h1_extend.o(.text) refers to h1_free.o(.text) for free
    h1_extend_mt.o(.text) refers to h1_free_mt.o(.text) for _free_internal
    _printf_intcommon.o(.text) refers (Weak) to _printf_pad.o(.text) for _printf_pre_padding
    _printf_intcommon.o(.text) refers (Weak) to _printf_pad.o(.text) for _printf_pre_padding
    _printf_intcommon.o(.text) refers (Weak) to _printf_pad.o(.text) for _printf_post_padding
    _printf_fp_dec.o(.text) refers (Special) to usenofp.o(x$fpl$usenofp) for __I$use$fp
    _printf_fp_dec.o(.text) refers (Special) to lc_numeric_c.o(locale$$code) for _get_lc_numeric
    _printf_fp_dec.o(.text) refers to bigflt0.o(.text) for _btod_etento
    _printf_fp_dec.o(.text) refers to btod.o(CL$$btod_d2e) for _btod_d2e
    _printf_fp_dec.o(.text) refers to btod.o(CL$$btod_ediv) for _btod_ediv
    _printf_fp_dec.o(.text) refers to btod.o(CL$$btod_emul) for _btod_emul
    _printf_fp_dec.o(.text) refers to lludiv10.o(.text) for _ll_udiv10
    _printf_fp_dec.o(.text) refers to fpclassify.o(i.__ARM_fpclassify) for __ARM_fpclassify
    _printf_fp_dec.o(.text) refers to _printf_fp_infnan.o(.text) for _printf_fp_infnan
    _printf_fp_dec.o(.text) refers (Weak) to _printf_pad.o(.text) for _printf_pre_padding
    _printf_fp_dec.o(.text) refers (Weak) to _printf_pad.o(.text) for _printf_pre_padding
    _printf_fp_dec.o(.text) refers to rt_locale_intlibspace.o(.text) for __rt_locale
    _printf_fp_dec.o(.text) refers (Weak) to _printf_pad.o(.text) for _printf_post_padding
    _printf_char.o(.text) refers (Weak) to _printf_str.o(.text) for _printf_str
    _printf_wchar.o(.text) refers (Weak) to _printf_wctomb.o(.text) for _printf_wctomb
    _wcrtomb.o(.text) refers to rt_ctype_table.o(.text) for __rt_ctype_table
    defsig_exit.o(.text) refers to sys_exit.o(.text) for _sys_exit
    defsig_abrt_inner.o(.text) refers to defsig_general.o(.text) for __default_signal_display
    defsig_rtmem_outer.o(.text) refers to defsig_rtmem_inner.o(.text) for __rt_SIGRTMEM_inner
    defsig_rtmem_outer.o(.text) refers to defsig_exit.o(.text) for __sig_exit
    defsig_rtmem_formal.o(.text) refers to rt_raise.o(.text) for __rt_raise
    heapauxa.o(.text) refers to heapauxa.o(.data) for .data
    argv_veneer.o(.emb_text) refers to no_argv.o(.text) for __ARM_get_argv
    arm_begincatch_noexceptions.o(.ARM.exidx) refers to arm_begincatch_noexceptions.o(.text) for .text
    arm_exceptions_support.o(.text) refers to arm_exceptions_support.o(.constdata) for .constdata
    arm_exceptions_support.o(.ARM.exidx) refers to arm_exceptions_support.o(.text) for .text
    arm_exceptions_terminate.o(.text) refers to arm_exceptions_globs.o(.text) for __cxa_get_globals
    arm_exceptions_terminate.o(.text) refers to abort.o(.text) for abort
    arm_exceptions_terminate.o(.ARM.exidx) refers to arm_exceptions_terminate.o(.text) for .text
    arm_exceptions_globs.o(.text) refers to abort.o(.text) for abort
    arm_exceptions_globs.o(.text) refers to rt_eh_globals_addr_intlibspace.o(.text) for __rt_eh_globals_addr
    arm_exceptions_globs.o(.text) refers to h1_alloc.o(.text) for malloc
    arm_exceptions_globs.o(.text) refers to arm_exceptions_mem.o(.text) for __ARM_exceptions_buffer_init
    arm_exceptions_globs.o(.ARM.exidx) refers to arm_exceptions_globs.o(.text) for .text
    unwind_prcommon.o(.text) refers to unwinder.o(.text) for _Unwind_VRS_Get
    unwind_prcommon.o(.text) refers to unwind_activity.o(.emb_text) for _Unwind_Activity
    unwind_prcommon.o(.ARM.exidx) refers to unwind_prcommon.o(.text) for .text
    sys_stackheap_outer.o(.text) refers to libspace.o(.text) for __user_perproc_libspace
    sys_stackheap_outer.o(.text) refers to startup_stm32l1xx_mdp.o(.text) for __user_initial_stackheap
    rt_ctype_table.o(.text) refers to rt_locale_intlibspace.o(.text) for __rt_locale
    rt_ctype_table.o(.text) refers to lc_ctype_c.o(locale$$code) for _get_lc_ctype
    rt_locale.o(.text) refers to rt_locale.o(.bss) for __rt_locale_data
    rt_locale_intlibspace.o(.text) refers to libspace.o(.bss) for __libspace_start
    rt_eh_globals_addr.o(.text) refers to rt_eh_globals_addr.o(.bss) for __rt_eh_globals_addr_data
    rt_eh_globals_addr_intlibspace.o(.text) refers to libspace.o(.bss) for __libspace_start
    term_alloc.o(.text) refers (Special) to libshutdown2.o(.ARM.Collect$$libshutdown$$0000000E) for __rt_lib_shutdown_heap_2
    term_alloc.o(.text) refers to rt_heap_descriptor_intlibspace.o(.text) for __rt_heap_descriptor
    term_alloc.o(.text) refers to h1_final.o(.text) for __Heap_Finalize
    _printf_fp_infnan.o(.text) refers (Weak) to _printf_pad.o(.text) for _printf_pre_padding
    _printf_fp_infnan.o(.text) refers (Weak) to _printf_pad.o(.text) for _printf_post_padding
    bigflt0.o(.text) refers (Special) to usenofp.o(x$fpl$usenofp) for __I$use$fp
    bigflt0.o(.text) refers to btod.o(CL$$btod_emul) for _btod_emul
    bigflt0.o(.text) refers to btod.o(CL$$btod_ediv) for _btod_ediv
    bigflt0.o(.text) refers to bigflt0.o(.constdata) for .constdata
    bigflt0.o(.constdata) refers (Special) to usenofp.o(x$fpl$usenofp) for __I$use$fp
    btod.o(CL$$btod_d2e) refers (Special) to usenofp.o(x$fpl$usenofp) for __I$use$fp
    btod.o(CL$$btod_d2e) refers to btod.o(CL$$btod_d2e_norm_op1) for _d2e_norm_op1
    btod.o(CL$$btod_d2e_norm_op1) refers (Special) to usenofp.o(x$fpl$usenofp) for __I$use$fp
    btod.o(CL$$btod_d2e_norm_op1) refers to btod.o(CL$$btod_d2e_denorm_low) for _d2e_denorm_low
    btod.o(CL$$btod_d2e_denorm_low) refers (Special) to usenofp.o(x$fpl$usenofp) for __I$use$fp
    btod.o(CL$$btod_emul) refers (Special) to usenofp.o(x$fpl$usenofp) for __I$use$fp
    btod.o(CL$$btod_emul) refers to btod.o(CL$$btod_mult_common) for __btod_mult_common
    btod.o(CL$$btod_emul) refers to btod.o(CL$$btod_e2e) for _e2e
    btod.o(CL$$btod_ediv) refers (Special) to usenofp.o(x$fpl$usenofp) for __I$use$fp
    btod.o(CL$$btod_ediv) refers to btod.o(CL$$btod_div_common) for __btod_div_common
    btod.o(CL$$btod_ediv) refers to btod.o(CL$$btod_e2e) for _e2e
    btod.o(CL$$btod_emuld) refers (Special) to usenofp.o(x$fpl$usenofp) for __I$use$fp
    btod.o(CL$$btod_emuld) refers to btod.o(CL$$btod_mult_common) for __btod_mult_common
    btod.o(CL$$btod_emuld) refers to btod.o(CL$$btod_e2d) for _e2d
    btod.o(CL$$btod_edivd) refers (Special) to usenofp.o(x$fpl$usenofp) for __I$use$fp
    btod.o(CL$$btod_edivd) refers to btod.o(CL$$btod_div_common) for __btod_div_common
    btod.o(CL$$btod_edivd) refers to btod.o(CL$$btod_e2d) for _e2d
    btod.o(CL$$btod_e2e) refers (Special) to usenofp.o(x$fpl$usenofp) for __I$use$fp
    btod.o(CL$$btod_e2d) refers (Special) to usenofp.o(x$fpl$usenofp) for __I$use$fp
    btod.o(CL$$btod_e2d) refers to btod.o(CL$$btod_e2e) for _e2e
    btod.o(CL$$btod_mult_common) refers (Special) to usenofp.o(x$fpl$usenofp) for __I$use$fp
    btod.o(CL$$btod_div_common) refers (Special) to usenofp.o(x$fpl$usenofp) for __I$use$fp
    lc_numeric_c.o(locale$$data) refers (Special) to libinit2.o(.ARM.Collect$$libinit$$00000016) for __rt_lib_init_lc_numeric_2
    lc_numeric_c.o(locale$$code) refers (Special) to libinit2.o(.ARM.Collect$$libinit$$00000016) for __rt_lib_init_lc_numeric_2
    lc_numeric_c.o(locale$$code) refers to strcmpv7m.o(.text) for strcmp
    lc_numeric_c.o(locale$$code) refers to lc_numeric_c.o(locale$$data) for __lcnum_c_name
    exit.o(.text) refers to rtexit.o(.ARM.Collect$$rtexit$$00000000) for __rt_exit
    __raise.o(.text) refers to defsig.o(CL$$defsig) for __default_signal_handler
    defsig_general.o(.text) refers to sys_wrch.o(.text) for _ttywrch
    defsig_fpe_outer.o(.text) refers to defsig_fpe_inner.o(.text) for __rt_SIGFPE_inner
    defsig_fpe_outer.o(.text) refers to defsig_exit.o(.text) for __sig_exit
    defsig_fpe_formal.o(.text) refers to rt_raise.o(.text) for __rt_raise
    defsig_rtmem_inner.o(.text) refers to defsig_general.o(.text) for __default_signal_display
    _get_argv_nomalloc.o(.text) refers (Special) to hrguard.o(.text) for __heap_region$guard
    _get_argv_nomalloc.o(.text) refers to defsig_rtmem_outer.o(.text) for __rt_SIGRTMEM
    _get_argv_nomalloc.o(.text) refers to sys_command.o(.text) for _sys_command_string
    libinit.o(.ARM.Collect$$libinit$$00000000) refers (Special) to libinit2.o(.ARM.Collect$$libinit$$0000002E) for __rt_lib_init_alloca_1
    libinit.o(.ARM.Collect$$libinit$$00000000) refers (Special) to libinit2.o(.ARM.Collect$$libinit$$0000002C) for __rt_lib_init_argv_1
    libinit.o(.ARM.Collect$$libinit$$00000000) refers (Special) to libinit2.o(.ARM.Collect$$libinit$$0000001B) for __rt_lib_init_atexit_1
    libinit.o(.ARM.Collect$$libinit$$00000000) refers (Special) to libinit2.o(.ARM.Collect$$libinit$$00000021) for __rt_lib_init_clock_1
    libinit.o(.ARM.Collect$$libinit$$00000000) refers (Special) to libinit2.o(.ARM.Collect$$libinit$$00000032) for __rt_lib_init_cpp_1
    libinit.o(.ARM.Collect$$libinit$$00000000) refers (Special) to libinit2.o(.ARM.Collect$$libinit$$00000030) for __rt_lib_init_exceptions_1
    libinit.o(.ARM.Collect$$libinit$$00000000) refers (Special) to libinit2.o(.ARM.Collect$$libinit$$00000002) for __rt_lib_init_fp_1
    libinit.o(.ARM.Collect$$libinit$$00000000) refers (Special) to libinit2.o(.ARM.Collect$$libinit$$0000001F) for __rt_lib_init_fp_trap_1
    libinit.o(.ARM.Collect$$libinit$$00000000) refers (Special) to libinit2.o(.ARM.Collect$$libinit$$00000023) for __rt_lib_init_getenv_1
    libinit.o(.ARM.Collect$$libinit$$00000000) refers (Special) to libinit2.o(.ARM.Collect$$libinit$$0000000A) for __rt_lib_init_heap_1
    libinit.o(.ARM.Collect$$libinit$$00000000) refers (Special) to libinit2.o(.ARM.Collect$$libinit$$00000011) for __rt_lib_init_lc_collate_1
    libinit.o(.ARM.Collect$$libinit$$00000000) refers (Special) to libinit2.o(.ARM.Collect$$libinit$$00000013) for __rt_lib_init_lc_ctype_1
    libinit.o(.ARM.Collect$$libinit$$00000000) refers (Special) to libinit2.o(.ARM.Collect$$libinit$$00000015) for __rt_lib_init_lc_monetary_1
    libinit.o(.ARM.Collect$$libinit$$00000000) refers (Special) to libinit2.o(.ARM.Collect$$libinit$$00000017) for __rt_lib_init_lc_numeric_1
    libinit.o(.ARM.Collect$$libinit$$00000000) refers (Special) to libinit2.o(.ARM.Collect$$libinit$$00000019) for __rt_lib_init_lc_time_1
    libinit.o(.ARM.Collect$$libinit$$00000000) refers (Special) to libinit2.o(.ARM.Collect$$libinit$$00000004) for __rt_lib_init_preinit_1
    libinit.o(.ARM.Collect$$libinit$$00000000) refers (Special) to libinit2.o(.ARM.Collect$$libinit$$0000000E) for __rt_lib_init_rand_1
    libinit.o(.ARM.Collect$$libinit$$00000000) refers (Special) to libinit2.o(.ARM.Collect$$libinit$$00000033) for __rt_lib_init_return
    libinit.o(.ARM.Collect$$libinit$$00000000) refers (Special) to libinit2.o(.ARM.Collect$$libinit$$0000001D) for __rt_lib_init_signal_1
    libinit.o(.ARM.Collect$$libinit$$00000000) refers (Special) to libinit2.o(.ARM.Collect$$libinit$$00000025) for __rt_lib_init_stdio_1
    libinit.o(.ARM.Collect$$libinit$$00000000) refers (Special) to libinit2.o(.ARM.Collect$$libinit$$0000000C) for __rt_lib_init_user_alloc_1
    arm_exceptions_mem.o(.text) refers to h1_alloc.o(.text) for malloc
    arm_exceptions_mem.o(.ARM.exidx) refers to arm_exceptions_mem.o(.text) for .text
    unwinder.o(.emb_text) refers to unwinder.o(.text) for __ARM_Unwind_RaiseException
    unwinder.o(.text) refers to bsearchnoex.o(.text) for bsearch
    unwinder.o(.text) refers to unwind_activity.o(.emb_text) for _Unwind_Activity
    unwinder.o(.text) refers to abort.o(.text) for abort
    unwinder.o(.text) refers to unwinder.o(.emb_text) for __ARM_Unwind_VRS_corerestore
    unwinder.o(.text) refers to h1_alloc.o(.text) for malloc
    unwinder.o(.text) refers to rt_memcpy_w.o(.text) for __aeabi_memcpy4
    unwinder.o(.text) refers to h1_free.o(.text) for free
    unwinder.o(.text) refers (Weak) to unwind_pr0.o(.text) for __aeabi_unwind_cpp_pr0
    unwinder.o(.ARM.exidx) refers to unwinder.o(.text) for .text
    istatus.o(x$fpl$ieeestatus) refers (Special) to usenofp.o(x$fpl$usenofp) for __I$use$fp
    fpclassify.o(i.__ARM_fpclassify) refers (Special) to usenofp.o(x$fpl$usenofp) for __I$use$fp
    sys_wrch.o(.text) refers (Special) to use_no_semi.o(.text) for __I$use$semihosting
    sys_wrch.o(.text) refers (Special) to indicate_semi.o(.text) for __semihosting_library_function
    rtexit.o(.ARM.Collect$$rtexit$$00000000) refers (Special) to rtexit2.o(.ARM.Collect$$rtexit$$00000004) for __rt_exit_exit
    rtexit.o(.ARM.Collect$$rtexit$$00000000) refers (Special) to rtexit2.o(.ARM.Collect$$rtexit$$00000003) for __rt_exit_ls
    rtexit.o(.ARM.Collect$$rtexit$$00000000) refers (Special) to rtexit2.o(.ARM.Collect$$rtexit$$00000002) for __rt_exit_prels_1
    rtexit.o(.ARM.exidx) refers (Special) to rtexit2.o(.ARM.Collect$$rtexit$$00000004) for __rt_exit_exit
    rtexit.o(.ARM.exidx) refers (Special) to rtexit2.o(.ARM.Collect$$rtexit$$00000003) for __rt_exit_ls
    rtexit.o(.ARM.exidx) refers (Special) to rtexit2.o(.ARM.Collect$$rtexit$$00000002) for __rt_exit_prels_1
    rtexit.o(.ARM.exidx) refers to rtexit.o(.ARM.Collect$$rtexit$$00000000) for .ARM.Collect$$rtexit$$00000000
    lc_ctype_c.o(locale$$data) refers (Special) to libinit2.o(.ARM.Collect$$libinit$$00000012) for __rt_lib_init_lc_ctype_2
    lc_ctype_c.o(locale$$code) refers (Special) to libinit2.o(.ARM.Collect$$libinit$$00000012) for __rt_lib_init_lc_ctype_2
    lc_ctype_c.o(locale$$code) refers to strcmpv7m.o(.text) for strcmp
    lc_ctype_c.o(locale$$code) refers to lc_ctype_c.o(locale$$data) for __lcctype_c_name
    defsig_fpe_inner.o(.text) refers to defsig_general.o(.text) for __default_signal_display
    defsig.o(CL$$defsig) refers to defsig_abrt_inner.o(.text) for __rt_SIGABRT_inner
    defsig.o(CL$$defsig) refers to defsig_fpe_inner.o(.text) for __rt_SIGFPE_inner
    defsig.o(CL$$defsig) refers to defsig_rtmem_inner.o(.text) for __rt_SIGRTMEM_inner
    libshutdown2.o(.ARM.Collect$$libshutdown$$0000000D) refers (Weak) to term_alloc.o(.text) for _terminate_alloc
    rtexit2.o(.ARM.Collect$$rtexit$$00000003) refers to libshutdown.o(.ARM.Collect$$libshutdown$$00000000) for __rt_lib_shutdown
    rtexit2.o(.ARM.Collect$$rtexit$$00000004) refers to sys_exit.o(.text) for _sys_exit
    rtexit2.o(.ARM.exidx) refers to rtexit2.o(.ARM.Collect$$rtexit$$00000001) for .ARM.Collect$$rtexit$$00000001
    rtexit2.o(.ARM.exidx) refers to rtexit2.o(.ARM.Collect$$rtexit$$00000003) for .ARM.Collect$$rtexit$$00000003
    rtexit2.o(.ARM.exidx) refers to rtexit2.o(.ARM.Collect$$rtexit$$00000004) for .ARM.Collect$$rtexit$$00000004
    defsig_rtred_inner.o(.text) refers to defsig_general.o(.text) for __default_signal_display
    defsig_stak_inner.o(.text) refers to defsig_general.o(.text) for __default_signal_display
    defsig_pvfn_inner.o(.text) refers to defsig_general.o(.text) for __default_signal_display
    defsig_cppl_inner.o(.text) refers to defsig_general.o(.text) for __default_signal_display
    defsig_segv_inner.o(.text) refers to defsig_general.o(.text) for __default_signal_display
    defsig_other.o(.text) refers to defsig_general.o(.text) for __default_signal_display
    libshutdown.o(.ARM.Collect$$libshutdown$$00000000) refers (Special) to libshutdown2.o(.ARM.Collect$$libshutdown$$00000002) for __rt_lib_shutdown_cpp_1
    libshutdown.o(.ARM.Collect$$libshutdown$$00000000) refers (Special) to libshutdown2.o(.ARM.Collect$$libshutdown$$00000007) for __rt_lib_shutdown_fp_trap_1
    libshutdown.o(.ARM.Collect$$libshutdown$$00000000) refers (Special) to libshutdown2.o(.ARM.Collect$$libshutdown$$0000000F) for __rt_lib_shutdown_heap_1
    libshutdown.o(.ARM.Collect$$libshutdown$$00000000) refers (Special) to libshutdown2.o(.ARM.Collect$$libshutdown$$00000010) for __rt_lib_shutdown_return
    libshutdown.o(.ARM.Collect$$libshutdown$$00000000) refers (Special) to libshutdown2.o(.ARM.Collect$$libshutdown$$0000000A) for __rt_lib_shutdown_signal_1
    libshutdown.o(.ARM.Collect$$libshutdown$$00000000) refers (Special) to libshutdown2.o(.ARM.Collect$$libshutdown$$00000004) for __rt_lib_shutdown_stdio_1
    libshutdown.o(.ARM.Collect$$libshutdown$$00000000) refers (Special) to libshutdown2.o(.ARM.Collect$$libshutdown$$0000000C) for __rt_lib_shutdown_user_alloc_1
    main.o(i._ZN12cHwSPImaster6DeviceC1ERS_R7cHwPorth) refers to lib.o(i._ZN7cHwPort3PinC1ERS_h) for cHwPort::Pin::Pin(cHwPort&, unsigned char)
    main.o(i._ZN12cHwSPImaster6DeviceC1ERS_R7cHwPorth) refers to lib.o(.constdata__ZTVN12cHwSPImaster6DeviceE) for vtable for cHwSPImaster::Device
    main.o(.ARM.exidx) refers to main.o(i._ZN12cHwSPImaster6DeviceC1ERS_R7cHwPorth) for i._ZN12cHwSPImaster6DeviceC1ERS_R7cHwPorth
    lib.o(.constdata__ZTV8cHwTimer) refers to lib.o(.constdata__ZTI8cHwTimer) for typeinfo for cHwTimer
    lib.o(.constdata__ZTV8cHwTimer) refers to lib.o(i._ZN8cHwTimer12getCycleTimeEv) for cHwTimer::getCycleTime()
    lib.o(.constdata__ZTV8cHwTimer) refers to lib.o(i._ZN8cHwTimer3addEPN5cList4ItemE) for cHwTimer::add(cList::Item*)
    lib.o(.constdata__ZTV8cHwTimer) refers to lib.o(i.__cxa_pure_virtual) for __cxa_pure_virtual
    lib.o(.constdata__ZTV8cHwTimer) refers to lib.o(i._ZN8cHwTimer10isrHandlerEv) for cHwTimer::isrHandler()
    lib.o(.constdata__ZTVN12cHwI2Cmaster6DeviceE) refers to lib.o(.constdata__ZTIN12cHwI2Cmaster6DeviceE) for typeinfo for cHwI2Cmaster::Device
    lib.o(.constdata__ZTVN12cHwI2Cmaster6DeviceE) refers to lib.o(i._ZN12cHwI2Cmaster6Device4readEv) for cHwI2Cmaster::Device::read()
    lib.o(.constdata__ZTVN12cHwI2Cmaster6DeviceE) refers to lib.o(i._ZN12cHwI2Cmaster6Device4readEh) for cHwI2Cmaster::Device::read(unsigned char)
    lib.o(.constdata__ZTVN12cHwI2Cmaster6DeviceE) refers to lib.o(i._ZN12cHwI2Cmaster6Device4readEt) for cHwI2Cmaster::Device::read(unsigned short)
    lib.o(.constdata__ZTVN12cHwI2Cmaster6DeviceE) refers to lib.o(i._ZN12cHwI2Cmaster6Device4readEPhh) for cHwI2Cmaster::Device::read(unsigned char*, unsigned char)
    lib.o(.constdata__ZTVN12cHwI2Cmaster6DeviceE) refers to lib.o(i._ZN12cHwI2Cmaster6Device4readEhPhh) for cHwI2Cmaster::Device::read(unsigned char, unsigned char*, unsigned char)
    lib.o(.constdata__ZTVN12cHwI2Cmaster6DeviceE) refers to lib.o(i._ZN12cHwI2Cmaster6Device4readEtPhh) for cHwI2Cmaster::Device::read(unsigned short, unsigned char*, unsigned char)
    lib.o(.constdata__ZTVN12cHwI2Cmaster6DeviceE) refers to lib.o(i._ZN12cHwI2Cmaster6Device5writeEh) for cHwI2Cmaster::Device::write(unsigned char)
    lib.o(.constdata__ZTVN12cHwI2Cmaster6DeviceE) refers to lib.o(i._ZN12cHwI2Cmaster6Device5writeEhh) for cHwI2Cmaster::Device::write(unsigned char, unsigned char)
    lib.o(.constdata__ZTVN12cHwI2Cmaster6DeviceE) refers to lib.o(i._ZN12cHwI2Cmaster6Device5writeEth) for cHwI2Cmaster::Device::write(unsigned short, unsigned char)
    lib.o(.constdata__ZTVN12cHwI2Cmaster6DeviceE) refers to lib.o(i._ZN12cHwI2Cmaster6Device5writeEPhh) for cHwI2Cmaster::Device::write(unsigned char*, unsigned char)
    lib.o(.constdata__ZTVN12cHwI2Cmaster6DeviceE) refers to lib.o(i._ZN12cHwI2Cmaster6Device5writeEhPhh) for cHwI2Cmaster::Device::write(unsigned char, unsigned char*, unsigned char)
    lib.o(.constdata__ZTVN12cHwI2Cmaster6DeviceE) refers to lib.o(i._ZN12cHwI2Cmaster6Device5writeEtPhh) for cHwI2Cmaster::Device::write(unsigned short, unsigned char*, unsigned char)
    lib.o(.constdata__ZTVN12cHwI2Cmaster6DeviceE) refers to lib.o(i._ZN12cHwI2Cmaster6Device7isErrorEv) for cHwI2Cmaster::Device::isError()
    lib.o(.constdata__ZTV9cHwPort_N) refers to lib.o(.constdata__ZTI9cHwPort_N) for typeinfo for cHwPort_N
    lib.o(.constdata__ZTV9cHwPort_N) refers to lib.o(i._ZN9cHwPort_N7setModeEjN7cHwPort4ModeE) for cHwPort_N::setMode(unsigned, cHwPort::Mode)
    lib.o(.constdata__ZTV9cHwPort_N) refers to lib.o(i._ZN9cHwPort_N10setPinModeEhN7cHwPort4ModeE) for cHwPort_N::setPinMode(unsigned char, cHwPort::Mode)
    lib.o(.constdata__ZTV9cHwPort_N) refers to lib.o(i._ZN9cHwPort_N3setEj) for cHwPort_N::set(unsigned)
    lib.o(.constdata__ZTV9cHwPort_N) refers to lib.o(i._ZN9cHwPort_N3setEjj) for cHwPort_N::set(unsigned, unsigned)
    lib.o(.constdata__ZTV9cHwPort_N) refers to lib.o(i._ZN9cHwPort_N3clrEj) for cHwPort_N::clr(unsigned)
    lib.o(.constdata__ZTV9cHwPort_N) refers to lib.o(i._ZN9cHwPort_N3getEv) for cHwPort_N::get()
    lib.o(.constdata__ZTVN12cHwSPImaster6DeviceE) refers to lib.o(.constdata__ZTIN12cHwSPImaster6DeviceE) for typeinfo for cHwSPImaster::Device
    lib.o(.constdata__ZTVN12cHwSPImaster6DeviceE) refers to lib.o(i._ZN12cHwSPImaster6Device10transceiveEh) for cHwSPImaster::Device::transceive(unsigned char)
    lib.o(.constdata__ZTVN12cHwSPImaster6DeviceE) refers to lib.o(i._ZN12cHwSPImaster6Device10transceiveEPht) for cHwSPImaster::Device::transceive(unsigned char*, unsigned short)
    lib.o(.constdata__ZTVN12cHwSPImaster6DeviceE) refers to lib.o(i._ZN12cHwSPImaster6Device4readEv) for cHwSPImaster::Device::read()
    lib.o(.constdata__ZTVN12cHwSPImaster6DeviceE) refers to lib.o(i._ZN12cHwSPImaster6Device4readEPht) for cHwSPImaster::Device::read(unsigned char*, unsigned short)
    lib.o(.constdata__ZTVN12cHwSPImaster6DeviceE) refers to lib.o(i._ZN12cHwSPImaster6Device5writeEh) for cHwSPImaster::Device::write(unsigned char)
    lib.o(.constdata__ZTVN12cHwSPImaster6DeviceE) refers to lib.o(i._ZN12cHwSPImaster6Device5writeEt) for cHwSPImaster::Device::write(unsigned short)
    lib.o(.constdata__ZTVN12cHwSPImaster6DeviceE) refers to lib.o(i._ZN12cHwSPImaster6Device5writeEPht) for cHwSPImaster::Device::write(unsigned char*, unsigned short)
    lib.o(.constdata__ZTVN12cHwSPImaster6DeviceE) refers to lib.o(i._ZN12cHwSPImaster6Device8writeExtEhh) for cHwSPImaster::Device::writeExt(unsigned char, unsigned char)
    lib.o(.constdata__ZTVN12cHwSPImaster6DeviceE) refers to lib.o(i._ZN12cHwSPImaster6Device8writeExtEht) for cHwSPImaster::Device::writeExt(unsigned char, unsigned short)
    lib.o(.constdata__ZTV10cHwUSBdesc) refers to lib.o(.constdata__ZTI10cHwUSBdesc) for typeinfo for cHwUSBdesc
    lib.o(.constdata__ZTV10cHwUSBdesc) refers to lib.o(i.__cxa_pure_virtual) for __cxa_pure_virtual
    lib.o(.constdata__ZTV10cHwUSBdesc) refers to lib.o(i._ZN10cHwUSBdesc19getDescriptorDeviceEv) for cHwUSBdesc::getDescriptorDevice()
    lib.o(.constdata__ZTV10cHwUSBdesc) refers to lib.o(i._ZN10cHwUSBdesc19getDescriptorConfigEh) for cHwUSBdesc::getDescriptorConfig(unsigned char)
    lib.o(.constdata__ZTV10cHwUSBdesc) refers to lib.o(i._ZN10cHwUSBdesc22getDescriptorInterfaceEhh) for cHwUSBdesc::getDescriptorInterface(unsigned char, unsigned char)
    lib.o(.constdata__ZTV10cHwUSBdesc) refers to lib.o(i._ZN10cHwUSBdesc21getDescriptorEndpointEhhh) for cHwUSBdesc::getDescriptorEndpoint(unsigned char, unsigned char, unsigned char)
    lib.o(.constdata__ZTV10cHwUSBdesc) refers to lib.o(i._ZN10cHwUSBdesc16getDescriptorHIDEhhh) for cHwUSBdesc::getDescriptorHID(unsigned char, unsigned char, unsigned char)
    lib.o(.constdata__ZTV10cHwUSBdesc) refers to lib.o(i._ZN10cHwUSBdesc22getDescriptorHIDreportEhhh) for cHwUSBdesc::getDescriptorHIDreport(unsigned char, unsigned char, unsigned char)
    lib.o(.constdata__ZTV10cHwUSBdesc) refers to lib.o(i._ZN10cHwUSBdesc19getDescriptorStringEh) for cHwUSBdesc::getDescriptorString(unsigned char)
    lib.o(.constdata__ZTV10cHwUSBdesc) refers to lib.o(i._ZN10cHwUSBdesc17getMaxPacketSize0Ev) for cHwUSBdesc::getMaxPacketSize0()
    lib.o(.constdata__ZTV10cHwUSBdesc) refers to lib.o(i._ZN10cHwUSBdesc21getConfigDeviceStatusEh) for cHwUSBdesc::getConfigDeviceStatus(unsigned char)
    lib.o(.constdata__ZTV6cHwUSB) refers to lib.o(.constdata__ZTI6cHwUSB) for typeinfo for cHwUSB
    lib.o(.constdata__ZTV6cHwUSB) refers to lib.o(i._ZN6cHwUSB12eventHandlerEhh) for cHwUSB::eventHandler(unsigned char, unsigned char)
    lib.o(.constdata__ZTV6cHwUSB) refers to lib.o(i.__cxa_pure_virtual) for __cxa_pure_virtual
    lib.o(.constdata__ZTV8cHwUSB_0) refers to lib.o(.constdata__ZTI8cHwUSB_0) for typeinfo for cHwUSB_0
    lib.o(.constdata__ZTV8cHwUSB_0) refers to lib.o(i._ZN6cHwUSB12eventHandlerEhh) for cHwUSB::eventHandler(unsigned char, unsigned char)
    lib.o(.constdata__ZTV8cHwUSB_0) refers to lib.o(i._ZN8cHwUSB_05startEv) for cHwUSB_0::start()
    lib.o(.constdata__ZTV8cHwUSB_0) refers to lib.o(i._ZN8cHwUSB_05resetEv) for cHwUSB_0::reset()
    lib.o(.constdata__ZTV8cHwUSB_0) refers to lib.o(i._ZN8cHwUSB_09configureEh) for cHwUSB_0::configure(unsigned char)
    lib.o(.constdata__ZTV8cHwUSB_0) refers to lib.o(i._ZN8cHwUSB_010setAddressEh) for cHwUSB_0::setAddress(unsigned char)
    lib.o(.constdata__ZTV8cHwUSB_0) refers to lib.o(i._ZN8cHwUSB_08configEPEhth) for cHwUSB_0::configEP(unsigned char, unsigned short, unsigned char)
    lib.o(.constdata__ZTV8cHwUSB_0) refers to lib.o(i._ZN8cHwUSB_010setStallEPEh) for cHwUSB_0::setStallEP(unsigned char)
    lib.o(.constdata__ZTV8cHwUSB_0) refers to lib.o(i._ZN8cHwUSB_010clrStallEPEh) for cHwUSB_0::clrStallEP(unsigned char)
    lib.o(.constdata__ZTV8cHwUSB_0) refers to lib.o(i._ZN8cHwUSB_06readEPEhPht) for cHwUSB_0::readEP(unsigned char, unsigned char*, unsigned short)
    lib.o(.constdata__ZTV8cHwUSB_0) refers to lib.o(i._ZN8cHwUSB_07writeEPEhPht) for cHwUSB_0::writeEP(unsigned char, unsigned char*, unsigned short)
    lib.o(.constdata__ZTVN13cNetTransport6SocketE) refers to lib.o(.constdata__ZTIN13cNetTransport6SocketE) for typeinfo for cNetTransport::Socket
    lib.o(.constdata__ZTVN13cNetTransport6SocketE) refers to lib.o(i._ZN13cNetTransport6Socket6updateEv) for cNetTransport::Socket::update()
    lib.o(.constdata__ZTVN13cNetTransport6SocketE) refers to lib.o(i.__cxa_pure_virtual) for __cxa_pure_virtual
    lib.o(.constdata__ZTVN13cNetTransport6SocketE) refers to lib.o(i._ZN13cNetTransport6Socket11openDefaultEv) for cNetTransport::Socket::openDefault()
    lib.o(.constdata__ZTVN13cNetTransport6SocketE) refers to lib.o(i._ZN13cNetTransport6Socket11getRemoteIPEv) for cNetTransport::Socket::getRemoteIP()
    lib.o(.constdata__ZTVN13cNetTransport6SocketE) refers to lib.o(i._ZN13cNetTransport6Socket8isServerEv) for cNetTransport::Socket::isServer()
    lib.o(.constdata__ZTVN13cNetTransport6SocketE) refers to lib.o(i._ZN13cNetTransport6Socket4fillEc) for cNetTransport::Socket::fill(char)
    lib.o(.constdata__ZTVN13cNetTransport6SocketE) refers to lib.o(i._ZN13cNetTransport6Socket4fillEPKc) for cNetTransport::Socket::fill(const char*)
    lib.o(.constdata__ZTVN13cNetTransport6SocketE) refers to lib.o(i._ZN13cNetTransport6Socket4fillEPKct) for cNetTransport::Socket::fill(const char*, unsigned short)
    lib.o(.constdata__ZTVN13cNetTransport6SocketE) refers to lib.o(i._ZN13cNetTransport6Socket10setTimeoutEtt) for cNetTransport::Socket::setTimeout(unsigned short, unsigned short)
    lib.o(.constdata__ZTV13cNetTransport) refers to lib.o(.constdata__ZTI13cNetTransport) for typeinfo for cNetTransport
    lib.o(.constdata__ZTV13cNetTransport) refers to lib.o(i._ZN13cNetTransport7processEv) for cNetTransport::process()
    lib.o(.constdata__ZTV13cNetTransport) refers to lib.o(i._ZN13cNetTransport6updateEv) for cNetTransport::update()
    lib.o(.constdata__ZTV13cNetTransport) refers to lib.o(i._ZN13cNetTransport7timeoutEv) for cNetTransport::timeout()
    lib.o(.constdata__ZTV13cNetTransport) refers to lib.o(i.__cxa_pure_virtual) for __cxa_pure_virtual
    lib.o(.constdata__ZTV7cNetUDP) refers to lib.o(.constdata__ZTI7cNetUDP) for typeinfo for cNetUDP
    lib.o(.constdata__ZTV7cNetUDP) refers to lib.o(i._ZN13cNetTransport7processEv) for cNetTransport::process()
    lib.o(.constdata__ZTV7cNetUDP) refers to lib.o(i._ZN13cNetTransport6updateEv) for cNetTransport::update()
    lib.o(.constdata__ZTV7cNetUDP) refers to lib.o(i._ZN13cNetTransport7timeoutEv) for cNetTransport::timeout()
    lib.o(.constdata__ZTV7cNetUDP) refers to lib.o(i._ZN7cNetUDP7getAddrEv) for cNetUDP::getAddr()
    lib.o(.constdata__ZTV7cNetUDP) refers to lib.o(i._ZN7cNetUDP10getAddrPhyEv) for cNetUDP::getAddrPhy()
    lib.o(.constdata__ZTV7cNetUDP) refers to lib.o(i._ZN7cNetUDP9handleARPE8cNetAddrILh4EES0_ILh6EE) for cNetUDP::handleARP(cNetAddr<(unsigned char)4>, cNetAddr<(unsigned char)6>)
    lib.o(.constdata__ZTV8cNetDHCP) refers to lib.o(.constdata__ZTI8cNetDHCP) for typeinfo for cNetDHCP
    lib.o(.constdata__ZTV8cNetDHCP) refers to lib.o(i._ZN15cNetApplication6updateEv) for cNetApplication::update()
    lib.o(.constdata__ZTV8cNetDHCP) refers to lib.o(i._ZN8cNetDHCP9OnReceiveEv) for cNetDHCP::OnReceive()
    lib.o(.constdata__ZTV8cNetDHCP) refers to lib.o(i._ZN8cNetDHCP7OnErrorEv) for cNetDHCP::OnError()
    lib.o(.constdata__ZTV8cNetDHCP) refers to lib.o(i._ZN8cNetDHCP8OnUpdateEv) for cNetDHCP::OnUpdate()
    lib.o(.constdata__ZTV8cNetDHCP) refers to lib.o(i._ZN8cNetDHCP9OnTimeoutEv) for cNetDHCP::OnTimeout()
    lib.o(.constdata__ZTV8cNetDHCP) refers to lib.o(i._ZN15cNetApplication10setTimeoutEtt) for cNetApplication::setTimeout(unsigned short, unsigned short)
    lib.o(.constdata__ZTV7cNetTCP) refers to lib.o(.constdata__ZTI7cNetTCP) for typeinfo for cNetTCP
    lib.o(.constdata__ZTV7cNetTCP) refers to lib.o(i._ZN13cNetTransport7processEv) for cNetTransport::process()
    lib.o(.constdata__ZTV7cNetTCP) refers to lib.o(i._ZN13cNetTransport6updateEv) for cNetTransport::update()
    lib.o(.constdata__ZTV7cNetTCP) refers to lib.o(i._ZN13cNetTransport7timeoutEv) for cNetTransport::timeout()
    lib.o(.constdata__ZTV7cNetTCP) refers to lib.o(i._ZN7cNetTCP7getAddrEv) for cNetTCP::getAddr()
    lib.o(.constdata__ZTV7cNetTCP) refers to lib.o(i._ZN7cNetTCP10getAddrPhyEv) for cNetTCP::getAddrPhy()
    lib.o(.constdata__ZTV7cNetTCP) refers to lib.o(i._ZN7cNetTCP9handleARPE8cNetAddrILh4EES0_ILh6EE) for cNetTCP::handleARP(cNetAddr<(unsigned char)4>, cNetAddr<(unsigned char)6>)
    lib.o(.constdata__ZTV11cDevDigital) refers to lib.o(.constdata__ZTI11cDevDigital) for typeinfo for cDevDigital
    lib.o(.constdata__ZTV11cDevDigital) refers to lib.o(i._ZN11cDevDigital7setModeENS_4ModeE) for cDevDigital::setMode(cDevDigital::Mode)
    lib.o(.constdata__ZTV11cDevDigital) refers to lib.o(i._ZN11cDevDigital3setEb) for cDevDigital::set(bool)
    lib.o(.constdata__ZTV11cDevDigital) refers to lib.o(i._ZN11cDevDigital3setEv) for cDevDigital::set()
    lib.o(.constdata__ZTV11cDevDigital) refers to lib.o(i._ZN11cDevDigital3clrEv) for cDevDigital::clr()
    lib.o(.constdata__ZTV11cDevDigital) refers to lib.o(i._ZN11cDevDigital6toggleEv) for cDevDigital::toggle()
    lib.o(.constdata__ZTV11cDevDigital) refers to lib.o(i._ZN11cDevDigital3getEv) for cDevDigital::get()
    lib.o(.constdata__ZTV11cDevDigital) refers to lib.o(i._ZN11cDevDigital8getEventEv) for cDevDigital::getEvent()
    lib.o(.constdata__ZTV11cDevDigital) refers to lib.o(i._ZN11cDevDigitalaSEb) for cDevDigital::operator =(bool)
    lib.o(.constdata__ZTV11cDevDigital) refers to lib.o(i._ZN11cDevDigitalaSERS_) for cDevDigital::operator =(cDevDigital&)
    lib.o(.constdata__ZTV11cDevDigital) refers to lib.o(i._ZN11cDevDigitalcvbEv) for cDevDigital::operator bool()
    lib.o(.constdata__ZTV20cDevDigitalIndicator) refers to lib.o(.constdata__ZTI20cDevDigitalIndicator) for typeinfo for cDevDigitalIndicator
    lib.o(.constdata__ZTV20cDevDigitalIndicator) refers to lib.o(i._ZN20cDevDigitalIndicator6updateEv) for cDevDigitalIndicator::update()
    lib.o(.constdata__ZTV20cDevDigitalIndicator) refers to lib.o(i._ZN20cDevDigitalIndicator3setEv) for cDevDigitalIndicator::set()
    lib.o(.constdata__ZTV20cDevDigitalIndicator) refers to lib.o(i._ZN20cDevDigitalIndicator3clrEv) for cDevDigitalIndicator::clr()
    lib.o(.constdata__ZTV20cDevDigitalIndicator) refers to lib.o(i._ZN20cDevDigitalIndicator7triggerEt) for cDevDigitalIndicator::trigger(unsigned short)
    lib.o(.constdata__ZTV17cHwDisplayGraphic) refers to lib.o(.constdata__ZTI17cHwDisplayGraphic) for typeinfo for cHwDisplayGraphic
    lib.o(.constdata__ZTV17cHwDisplayGraphic) refers to lib.o(i.__cxa_pure_virtual) for __cxa_pure_virtual
    lib.o(.constdata__ZTV17cHwDisplayGraphic) refers to lib.o(i._ZN17cHwDisplayGraphic7refreshEv) for cHwDisplayGraphic::refresh()
    lib.o(.constdata__ZTV17cHwDisplayGraphic) refers to lib.o(i._ZN17cHwDisplayGraphic11gotoTextPosEhh) for cHwDisplayGraphic::gotoTextPos(unsigned char, unsigned char)
    lib.o(.constdata__ZTV17cHwDisplayGraphic) refers to lib.o(i._ZN17cHwDisplayGraphic7putCharEc) for cHwDisplayGraphic::putChar(char)
    lib.o(.constdata__ZTV17cHwDisplayGraphic) refers to lib.o(i._ZN10cHwDisplay16getNumberOfLinesEv) for cHwDisplay::getNumberOfLines()
    lib.o(.constdata__ZTV17cHwDisplayGraphic) refers to lib.o(i._ZN10cHwDisplay18getNumberOfColumnsEv) for cHwDisplay::getNumberOfColumns()
    lib.o(.constdata__ZTV17cHwDisplayGraphic) refers to lib.o(i._ZN17cHwDisplayGraphic7setFontE14cHwDisplayFonth) for cHwDisplayGraphic::setFont(cHwDisplayFont, unsigned char)
    lib.o(.constdata__ZTV17cHwDisplayGraphic) refers to lib.o(i._ZN17cHwDisplayGraphic7setZoomEh) for cHwDisplayGraphic::setZoom(unsigned char)
    lib.o(.constdata__ZTV17cHwDisplayGraphic) refers to lib.o(i._ZN17cHwDisplayGraphic12setBackColorEt) for cHwDisplayGraphic::setBackColor(unsigned short)
    lib.o(.constdata__ZTV17cHwDisplayGraphic) refers to lib.o(i._ZN17cHwDisplayGraphic13setPaintColorEt) for cHwDisplayGraphic::setPaintColor(unsigned short)
    lib.o(.constdata__ZTV17cHwDisplayGraphic) refers to lib.o(i._ZN17cHwDisplayGraphic12setTextColorEt) for cHwDisplayGraphic::setTextColor(unsigned short)
    lib.o(.constdata__ZTV17cHwDisplayGraphic) refers to lib.o(i._ZN17cHwDisplayGraphic12gotoPixelPosEtt) for cHwDisplayGraphic::gotoPixelPos(unsigned short, unsigned short)
    lib.o(.constdata__ZTV17cHwDisplayGraphic) refers to lib.o(i._ZN17cHwDisplayGraphic8putPixelEtt) for cHwDisplayGraphic::putPixel(unsigned short, unsigned short)
    lib.o(.constdata__ZTV17cHwDisplayGraphic) refers to lib.o(i._ZN17cHwDisplayGraphic12putRectangleEtttt) for cHwDisplayGraphic::putRectangle(unsigned short, unsigned short, unsigned short, unsigned short)
    lib.o(.constdata__ZTV17cHwDisplayGraphic) refers to lib.o(i._ZN17cHwDisplayGraphic9putBitmapEttttPKt) for cHwDisplayGraphic::putBitmap(unsigned short, unsigned short, unsigned short, unsigned short, const unsigned short*)
    lib.o(.constdata__ZTV17cHwDisplayGraphic) refers to lib.o(i._ZN17cHwDisplayGraphic14getDefaultFontEv) for cHwDisplayGraphic::getDefaultFont()
    lib.o(.constdata__ZTV17cHwDisplayGraphic) refers to lib.o(i._ZN17cHwDisplayGraphic8getWidthEv) for cHwDisplayGraphic::getWidth()
    lib.o(.constdata__ZTV17cHwDisplayGraphic) refers to lib.o(i._ZN17cHwDisplayGraphic9getHeightEv) for cHwDisplayGraphic::getHeight()
    lib.o(.constdata__ZTV18cDevDisplayGraphic) refers to lib.o(.constdata__ZTI18cDevDisplayGraphic) for typeinfo for cDevDisplayGraphic
    lib.o(.constdata__ZTV18cDevDisplayGraphic) refers to lib.o(i._ZN18cDevDisplayGraphic5clearEv) for cDevDisplayGraphic::clear()
    lib.o(.constdata__ZTV18cDevDisplayGraphic) refers to lib.o(i._ZN18cDevDisplayGraphic7refreshEv) for cDevDisplayGraphic::refresh()
    lib.o(.constdata__ZTV18cDevDisplayGraphic) refers to lib.o(i._ZN18cDevDisplayGraphic6printfEhhhPKcz) for cDevDisplayGraphic::printf(unsigned char, unsigned char, unsigned char, const char*, ...)
    lib.o(.constdata__ZTV18cDevDisplayGraphic) refers to lib.o(i._ZN18cDevDisplayGraphic7setFontE14cHwDisplayFonth) for cDevDisplayGraphic::setFont(cHwDisplayFont, unsigned char)
    lib.o(.constdata__ZTV18cDevDisplayGraphic) refers to lib.o(i._ZN18cDevDisplayGraphic7setZoomEh) for cDevDisplayGraphic::setZoom(unsigned char)
    lib.o(.constdata__ZTV18cDevDisplayGraphic) refers to lib.o(i._ZN18cDevDisplayGraphic12setBackColorEt) for cDevDisplayGraphic::setBackColor(unsigned short)
    lib.o(.constdata__ZTV18cDevDisplayGraphic) refers to lib.o(i._ZN18cDevDisplayGraphic12setTextColorEt) for cDevDisplayGraphic::setTextColor(unsigned short)
    lib.o(.constdata__ZTV18cDevDisplayGraphic) refers to lib.o(i._ZN18cDevDisplayGraphic8drawTextEttPKc) for cDevDisplayGraphic::drawText(unsigned short, unsigned short, const char*)
    lib.o(.constdata__ZTV18cDevDisplayGraphic) refers to lib.o(i._ZN18cDevDisplayGraphic8drawTextEtthPKcz) for cDevDisplayGraphic::drawText(unsigned short, unsigned short, unsigned char, const char*, ...)
    lib.o(.constdata__ZTV18cDevDisplayGraphic) refers to lib.o(i._ZN18cDevDisplayGraphic9drawPixelEttt) for cDevDisplayGraphic::drawPixel(unsigned short, unsigned short, unsigned short)
    lib.o(.constdata__ZTV18cDevDisplayGraphic) refers to lib.o(i._ZN18cDevDisplayGraphic13drawRectangleEttttt) for cDevDisplayGraphic::drawRectangle(unsigned short, unsigned short, unsigned short, unsigned short, unsigned short)
    lib.o(.constdata__ZTV18cDevDisplayGraphic) refers to lib.o(i._ZN18cDevDisplayGraphic9drawFrameEtttttt) for cDevDisplayGraphic::drawFrame(unsigned short, unsigned short, unsigned short, unsigned short, unsigned short, unsigned short)
    lib.o(.constdata__ZTV18cDevDisplayGraphic) refers to lib.o(i._ZN18cDevDisplayGraphic10drawCircleEtttt) for cDevDisplayGraphic::drawCircle(unsigned short, unsigned short, unsigned short, unsigned short)
    lib.o(.constdata__ZTV18cDevDisplayGraphic) refers to lib.o(i._ZN18cDevDisplayGraphic8drawLineEtttttt) for cDevDisplayGraphic::drawLine(unsigned short, unsigned short, unsigned short, unsigned short, unsigned short, unsigned short)
    lib.o(.constdata__ZTV18cDevDisplayGraphic) refers to lib.o(i._ZN18cDevDisplayGraphic10drawBitmapEttttPKt) for cDevDisplayGraphic::drawBitmap(unsigned short, unsigned short, unsigned short, unsigned short, const unsigned short*)
    lib.o(.constdata__ZTV18cDevDisplayGraphic) refers to lib.o(i._ZN18cDevDisplayGraphic14getDefaultFontEv) for cDevDisplayGraphic::getDefaultFont()
    lib.o(.constdata__ZTV6cHwADC) refers to lib.o(.constdata__ZTI6cHwADC) for typeinfo for cHwADC
    lib.o(.constdata__ZTV6cHwADC) refers to lib.o(i._ZN6cHwADC6updateEv) for cHwADC::update()
    lib.o(.constdata__ZTV6cHwADC) refers to lib.o(i._ZN6cHwADC6enableEhh) for cHwADC::enable(unsigned char, unsigned char)
    lib.o(.constdata__ZTV6cHwADC) refers to lib.o(i._ZN6cHwADC3getEh) for cHwADC::get(unsigned char)
    lib.o(.constdata__ZTV6cHwADC) refers to lib.o(i._ZN6cHwADC19getNumberOfChannelsEv) for cHwADC::getNumberOfChannels()
    lib.o(.constdata__ZTV6cHwADC) refers to lib.o(i._ZN6cHwADC3isrEv) for cHwADC::isr()
    lib.o(.constdata__ZTV6cHwADC) refers to lib.o(i.__cxa_pure_virtual) for __cxa_pure_virtual
    lib.o(.constdata__ZTV8cHwADC_0) refers to lib.o(.constdata__ZTI8cHwADC_0) for typeinfo for cHwADC_0
    lib.o(.constdata__ZTV8cHwADC_0) refers to lib.o(i._ZN6cHwADC6updateEv) for cHwADC::update()
    lib.o(.constdata__ZTV8cHwADC_0) refers to lib.o(i._ZN6cHwADC6enableEhh) for cHwADC::enable(unsigned char, unsigned char)
    lib.o(.constdata__ZTV8cHwADC_0) refers to lib.o(i._ZN6cHwADC3getEh) for cHwADC::get(unsigned char)
    lib.o(.constdata__ZTV8cHwADC_0) refers to lib.o(i._ZN6cHwADC19getNumberOfChannelsEv) for cHwADC::getNumberOfChannels()
    lib.o(.constdata__ZTV8cHwADC_0) refers to lib.o(i._ZN6cHwADC3isrEv) for cHwADC::isr()
    lib.o(.constdata__ZTV8cHwADC_0) refers to lib.o(i._ZN8cHwADC_09getResultEv) for cHwADC_0::getResult()
    lib.o(.constdata__ZTV8cHwADC_0) refers to lib.o(i._ZN8cHwADC_07startChEh) for cHwADC_0::startCh(unsigned char)
    lib.o(.constdata__ZTV8cHwADC_0) refers to lib.o(i._ZN8cHwADC_08configChEhh) for cHwADC_0::configCh(unsigned char, unsigned char)
    lib.o(.constdata__ZTV12cHwEncoder_N) refers to lib.o(.constdata__ZTI12cHwEncoder_N) for typeinfo for cHwEncoder_N
    lib.o(.constdata__ZTV12cHwEncoder_N) refers to lib.o(i._ZN12cHwEncoder_N3getEv) for cHwEncoder_N::get()
    lib.o(.constdata__ZTV12cHwI2Cmaster) refers to lib.o(.constdata__ZTI12cHwI2Cmaster) for typeinfo for cHwI2Cmaster
    lib.o(.constdata__ZTV12cHwI2Cmaster) refers to lib.o(i._ZN12cHwI2Cmaster5writeEhPhhS0_h) for cHwI2Cmaster::write(unsigned char, unsigned char*, unsigned char, unsigned char*, unsigned char)
    lib.o(.constdata__ZTV12cHwI2Cmaster) refers to lib.o(i._ZN12cHwI2Cmaster4readEhPhhS0_h) for cHwI2Cmaster::read(unsigned char, unsigned char*, unsigned char, unsigned char*, unsigned char)
    lib.o(.constdata__ZTV12cHwI2Cmaster) refers to lib.o(i.__cxa_pure_virtual) for __cxa_pure_virtual
    lib.o(.constdata__ZTV16cHwMemory_EEPROM) refers to lib.o(.constdata__ZTI16cHwMemory_EEPROM) for typeinfo for cHwMemory_EEPROM
    lib.o(.constdata__ZTV16cHwMemory_EEPROM) refers to lib.o(i._ZN16cHwMemory_EEPROM6unlockEv) for cHwMemory_EEPROM::unlock()
    lib.o(.constdata__ZTV16cHwMemory_EEPROM) refers to lib.o(i._ZN16cHwMemory_EEPROM4lockEv) for cHwMemory_EEPROM::lock()
    lib.o(.constdata__ZTV16cHwMemory_EEPROM) refers to lib.o(i._ZN9cHwMemory5writeEjh) for cHwMemory::write(unsigned, unsigned char)
    lib.o(.constdata__ZTV16cHwMemory_EEPROM) refers to lib.o(i._ZN9cHwMemory4readEj) for cHwMemory::read(unsigned)
    lib.o(.constdata__ZTV16cHwMemory_EEPROM) refers to lib.o(i._ZN9cHwMemory5clearEj) for cHwMemory::clear(unsigned)
    lib.o(.constdata__ZTV16cHwMemory_EEPROM) refers to lib.o(i._ZN9cHwMemory7getSizeEv) for cHwMemory::getSize()
    lib.o(.constdata__ZTV16cHwMemory_EEPROM) refers to lib.o(i._ZN9cHwMemory7isFlashEv) for cHwMemory::isFlash()
    lib.o(.constdata__ZTV16cHwMemory_EEPROM) refers to lib.o(i._ZN16cHwMemory_EEPROM9writeByteEjh) for cHwMemory_EEPROM::writeByte(unsigned, unsigned char)
    lib.o(.constdata__ZTV16cHwMemory_EEPROM) refers to lib.o(i._ZN16cHwMemory_EEPROM8readByteEj) for cHwMemory_EEPROM::readByte(unsigned)
    lib.o(.constdata__ZTV15cHwMemory_Flash) refers to lib.o(.constdata__ZTI15cHwMemory_Flash) for typeinfo for cHwMemory_Flash
    lib.o(.constdata__ZTV15cHwMemory_Flash) refers to lib.o(i._ZN15cHwMemory_Flash6unlockEv) for cHwMemory_Flash::unlock()
    lib.o(.constdata__ZTV15cHwMemory_Flash) refers to lib.o(i._ZN15cHwMemory_Flash4lockEv) for cHwMemory_Flash::lock()
    lib.o(.constdata__ZTV15cHwMemory_Flash) refers to lib.o(i._ZN9cHwMemory5writeEjh) for cHwMemory::write(unsigned, unsigned char)
    lib.o(.constdata__ZTV15cHwMemory_Flash) refers to lib.o(i._ZN9cHwMemory4readEj) for cHwMemory::read(unsigned)
    lib.o(.constdata__ZTV15cHwMemory_Flash) refers to lib.o(i._ZN15cHwMemory_Flash5clearEj) for cHwMemory_Flash::clear(unsigned)
    lib.o(.constdata__ZTV15cHwMemory_Flash) refers to lib.o(i._ZN9cHwMemory7getSizeEv) for cHwMemory::getSize()
    lib.o(.constdata__ZTV15cHwMemory_Flash) refers to lib.o(i._ZN9cHwMemory7isFlashEv) for cHwMemory::isFlash()
    lib.o(.constdata__ZTV15cHwMemory_Flash) refers to lib.o(i._ZN15cHwMemory_Flash9writeByteEjh) for cHwMemory_Flash::writeByte(unsigned, unsigned char)
    lib.o(.constdata__ZTV15cHwMemory_Flash) refers to lib.o(i._ZN15cHwMemory_Flash8readByteEj) for cHwMemory_Flash::readByte(unsigned)
    lib.o(.constdata__ZTV13cHwMemory_RAM) refers to lib.o(.constdata__ZTI13cHwMemory_RAM) for typeinfo for cHwMemory_RAM
    lib.o(.constdata__ZTV13cHwMemory_RAM) refers to lib.o(i._ZN13cHwMemory_RAM6unlockEv) for cHwMemory_RAM::unlock()
    lib.o(.constdata__ZTV13cHwMemory_RAM) refers to lib.o(i._ZN13cHwMemory_RAM4lockEv) for cHwMemory_RAM::lock()
    lib.o(.constdata__ZTV13cHwMemory_RAM) refers to lib.o(i._ZN9cHwMemory5writeEjh) for cHwMemory::write(unsigned, unsigned char)
    lib.o(.constdata__ZTV13cHwMemory_RAM) refers to lib.o(i._ZN9cHwMemory4readEj) for cHwMemory::read(unsigned)
    lib.o(.constdata__ZTV13cHwMemory_RAM) refers to lib.o(i._ZN9cHwMemory5clearEj) for cHwMemory::clear(unsigned)
    lib.o(.constdata__ZTV13cHwMemory_RAM) refers to lib.o(i._ZN9cHwMemory7getSizeEv) for cHwMemory::getSize()
    lib.o(.constdata__ZTV13cHwMemory_RAM) refers to lib.o(i._ZN9cHwMemory7isFlashEv) for cHwMemory::isFlash()
    lib.o(.constdata__ZTV13cHwMemory_RAM) refers to lib.o(i._ZN13cHwMemory_RAM9writeByteEjh) for cHwMemory_RAM::writeByte(unsigned, unsigned char)
    lib.o(.constdata__ZTV13cHwMemory_RAM) refers to lib.o(i._ZN13cHwMemory_RAM8readByteEj) for cHwMemory_RAM::readByte(unsigned)
    lib.o(.constdata__ZTV8cHwRTC_0) refers to lib.o(.constdata__ZTI8cHwRTC_0) for typeinfo for cHwRTC_0
    lib.o(.constdata__ZTV8cHwRTC_0) refers to lib.o(i._ZN8cHwRTC_03setERKN6cHwRTC10PropertiesE) for cHwRTC_0::set(const cHwRTC::Properties&)
    lib.o(.constdata__ZTV8cHwRTC_0) refers to lib.o(i._ZN8cHwRTC_03getERN6cHwRTC10PropertiesE) for cHwRTC_0::get(cHwRTC::Properties&)
    lib.o(.constdata__ZTV14cHwSPImaster_N) refers to lib.o(.constdata__ZTI14cHwSPImaster_N) for typeinfo for cHwSPImaster_N
    lib.o(.constdata__ZTV14cHwSPImaster_N) refers to lib.o(i._ZN14cHwSPImaster_N14transceiveByteEh) for cHwSPImaster_N::transceiveByte(unsigned char)
    lib.o(.constdata__ZTV14cHwSPImaster_N) refers to lib.o(i._ZN14cHwSPImaster_N17transceiveByteExtEhh) for cHwSPImaster_N::transceiveByteExt(unsigned char, unsigned char)
    lib.o(.constdata__ZTV10cHwTimer_N) refers to lib.o(.constdata__ZTI10cHwTimer_N) for typeinfo for cHwTimer_N
    lib.o(.constdata__ZTV10cHwTimer_N) refers to lib.o(i._ZN8cHwTimer12getCycleTimeEv) for cHwTimer::getCycleTime()
    lib.o(.constdata__ZTV10cHwTimer_N) refers to lib.o(i._ZN8cHwTimer3addEPN5cList4ItemE) for cHwTimer::add(cList::Item*)
    lib.o(.constdata__ZTV10cHwTimer_N) refers to lib.o(i._ZN10cHwTimer_N9enablePWMEhN8cHwTimer4ModeE) for cHwTimer_N::enablePWM(unsigned char, cHwTimer::Mode)
    lib.o(.constdata__ZTV10cHwTimer_N) refers to lib.o(i._ZN10cHwTimer_N6setPWMEth) for cHwTimer_N::setPWM(unsigned short, unsigned char)
    lib.o(.constdata__ZTV10cHwTimer_N) refers to lib.o(i._ZN8cHwTimer10isrHandlerEv) for cHwTimer::isrHandler()
    lib.o(.constdata__ZTV7cHwUART) refers to lib.o(.constdata__ZTI7cHwUART) for typeinfo for cHwUART
    lib.o(.constdata__ZTV7cHwUART) refers to lib.o(i._ZN7cHwUART3setEh) for cHwUART::set(unsigned char)
    lib.o(.constdata__ZTV7cHwUART) refers to lib.o(i._ZN7cHwUART3setEPKhh) for cHwUART::set(const unsigned char*, unsigned char)
    lib.o(.constdata__ZTV7cHwUART) refers to lib.o(i._ZN7cHwUART3setEPKc) for cHwUART::set(const char*)
    lib.o(.constdata__ZTV7cHwUART) refers to lib.o(i._ZN7cHwUART14isTxBufferFullEv) for cHwUART::isTxBufferFull()
    lib.o(.constdata__ZTV7cHwUART) refers to lib.o(i._ZN7cHwUART3getEPh) for cHwUART::get(unsigned char*)
    lib.o(.constdata__ZTV7cHwUART) refers to lib.o(i._ZN7cHwUART3getEv) for cHwUART::get()
    lib.o(.constdata__ZTV7cHwUART) refers to lib.o(i._ZN7cHwUART5isrRxEv) for cHwUART::isrRx()
    lib.o(.constdata__ZTV7cHwUART) refers to lib.o(i._ZN7cHwUART5isrTxEv) for cHwUART::isrTx()
    lib.o(.constdata__ZTV7cHwUART) refers to lib.o(i._ZN7cHwUART12transmitByteEh) for cHwUART::transmitByte(unsigned char)
    lib.o(.constdata__ZTV7cHwUART) refers to lib.o(i.__cxa_pure_virtual) for __cxa_pure_virtual
    lib.o(.constdata__ZTV11cHwEthernet) refers to lib.o(.constdata__ZTI11cHwEthernet) for typeinfo for cHwEthernet
    lib.o(.constdata__ZTV11cHwEthernet) refers to lib.o(i._ZN11cHwEthernet6updateEv) for cHwEthernet::update()
    lib.o(.constdata__ZTV11cHwEthernet) refers to lib.o(i.__cxa_pure_virtual) for __cxa_pure_virtual
    lib.o(.constdata__ZTV17cHwI2Cmaster_Emul) refers to lib.o(.constdata__ZTI17cHwI2Cmaster_Emul) for typeinfo for cHwI2Cmaster_Emul
    lib.o(.constdata__ZTV17cHwI2Cmaster_Emul) refers to lib.o(i._ZN12cHwI2Cmaster5writeEhPhhS0_h) for cHwI2Cmaster::write(unsigned char, unsigned char*, unsigned char, unsigned char*, unsigned char)
    lib.o(.constdata__ZTV17cHwI2Cmaster_Emul) refers to lib.o(i._ZN12cHwI2Cmaster4readEhPhhS0_h) for cHwI2Cmaster::read(unsigned char, unsigned char*, unsigned char, unsigned char*, unsigned char)
    lib.o(.constdata__ZTV17cHwI2Cmaster_Emul) refers to lib.o(i._ZN17cHwI2Cmaster_Emul5startEv) for cHwI2Cmaster_Emul::start()
    lib.o(.constdata__ZTV17cHwI2Cmaster_Emul) refers to lib.o(i._ZN17cHwI2Cmaster_Emul4stopEv) for cHwI2Cmaster_Emul::stop()
    lib.o(.constdata__ZTV17cHwI2Cmaster_Emul) refers to lib.o(i._ZN17cHwI2Cmaster_Emul8sendAddrEh) for cHwI2Cmaster_Emul::sendAddr(unsigned char)
    lib.o(.constdata__ZTV17cHwI2Cmaster_Emul) refers to lib.o(i._ZN17cHwI2Cmaster_Emul9writeByteEh) for cHwI2Cmaster_Emul::writeByte(unsigned char)
    lib.o(.constdata__ZTV17cHwI2Cmaster_Emul) refers to lib.o(i._ZN17cHwI2Cmaster_Emul11readByteAckEv) for cHwI2Cmaster_Emul::readByteAck()
    lib.o(.constdata__ZTV17cHwI2Cmaster_Emul) refers to lib.o(i._ZN17cHwI2Cmaster_Emul12readByteNackEv) for cHwI2Cmaster_Emul::readByteNack()
    lib.o(.constdata__ZTV17cHwI2Cmaster_Emul) refers to lib.o(i._ZN17cHwI2Cmaster_Emul11waitForAcknEv) for cHwI2Cmaster_Emul::waitForAckn()
    lib.o(.constdata__ZTV17cHwI2Cmaster_Emul) refers to lib.o(i._ZN17cHwI2Cmaster_Emul4waitEv) for cHwI2Cmaster_Emul::wait()
    lib.o(.constdata__ZTV10cHwUSBctrl) refers to lib.o(.constdata__ZTI10cHwUSBctrl) for typeinfo for cHwUSBctrl
    lib.o(.constdata__ZTV10cHwUSBctrl) refers to lib.o(i._ZN10cHwUSBctrl5setupEv) for cHwUSBctrl::setup()
    lib.o(.constdata__ZTV10cHwUSBctrl) refers to lib.o(i._ZN10cHwUSBctrl3outEv) for cHwUSBctrl::out()
    lib.o(.constdata__ZTV10cHwUSBctrl) refers to lib.o(i._ZN10cHwUSBctrl2inEv) for cHwUSBctrl::in()
    lib.o(.constdata__ZTV10cHwUSBctrl) refers to lib.o(i._ZN10cHwUSBctrl5StallEv) for cHwUSBctrl::Stall()
    lib.o(.constdata__ZTVN7cNetUDP6SocketE) refers to lib.o(.constdata__ZTIN7cNetUDP6SocketE) for typeinfo for cNetUDP::Socket
    lib.o(.constdata__ZTVN7cNetUDP6SocketE) refers to lib.o(i._ZN7cNetUDP6Socket6updateEv) for cNetUDP::Socket::update()
    lib.o(.constdata__ZTVN7cNetUDP6SocketE) refers to lib.o(i._ZN7cNetUDP6Socket4openE8cNetAddrILh4EEt) for cNetUDP::Socket::open(cNetAddr<(unsigned char)4>, unsigned short)
    lib.o(.constdata__ZTVN7cNetUDP6SocketE) refers to lib.o(i._ZN13cNetTransport6Socket11openDefaultEv) for cNetTransport::Socket::openDefault()
    lib.o(.constdata__ZTVN7cNetUDP6SocketE) refers to lib.o(i._ZN7cNetUDP6Socket5closeEv) for cNetUDP::Socket::close()
    lib.o(.constdata__ZTVN7cNetUDP6SocketE) refers to lib.o(i._ZN7cNetUDP6Socket11isConnectedEv) for cNetUDP::Socket::isConnected()
    lib.o(.constdata__ZTVN7cNetUDP6SocketE) refers to lib.o(i._ZN7cNetUDP6Socket7isReadyEv) for cNetUDP::Socket::isReady()
    lib.o(.constdata__ZTVN7cNetUDP6SocketE) refers to lib.o(i._ZN13cNetTransport6Socket11getRemoteIPEv) for cNetTransport::Socket::getRemoteIP()
    lib.o(.constdata__ZTVN7cNetUDP6SocketE) refers to lib.o(i._ZN7cNetUDP6Socket5clearEv) for cNetUDP::Socket::clear()
    lib.o(.constdata__ZTVN7cNetUDP6SocketE) refers to lib.o(i._ZN7cNetUDP6Socket10getDataPtrEv) for cNetUDP::Socket::getDataPtr()
    lib.o(.constdata__ZTVN7cNetUDP6SocketE) refers to lib.o(i._ZN7cNetUDP6Socket13setDataLengthEt) for cNetUDP::Socket::setDataLength(unsigned short)
    lib.o(.constdata__ZTVN7cNetUDP6SocketE) refers to lib.o(i._ZN7cNetUDP6Socket4sendEv) for cNetUDP::Socket::send()
    lib.o(.constdata__ZTVN7cNetUDP6SocketE) refers to lib.o(i._ZN7cNetUDP6Socket3getEPc) for cNetUDP::Socket::get(char*)
    lib.o(.constdata__ZTVN7cNetUDP6SocketE) refers to lib.o(i._ZN13cNetTransport6Socket8isServerEv) for cNetTransport::Socket::isServer()
    lib.o(.constdata__ZTVN7cNetUDP6SocketE) refers to lib.o(i._ZN7cNetUDP6Socket10fillBufferEc) for cNetUDP::Socket::fillBuffer(char)
    lib.o(.constdata__ZTVN7cNetUDP6SocketE) refers to lib.o(i._ZN13cNetTransport6Socket4fillEc) for cNetTransport::Socket::fill(char)
    lib.o(.constdata__ZTVN7cNetUDP6SocketE) refers to lib.o(i._ZN13cNetTransport6Socket4fillEPKc) for cNetTransport::Socket::fill(const char*)
    lib.o(.constdata__ZTVN7cNetUDP6SocketE) refers to lib.o(i._ZN13cNetTransport6Socket4fillEPKct) for cNetTransport::Socket::fill(const char*, unsigned short)
    lib.o(.constdata__ZTVN7cNetUDP6SocketE) refers to lib.o(i._ZN7cNetUDP6Socket7processEv) for cNetUDP::Socket::process()
    lib.o(.constdata__ZTVN7cNetUDP6SocketE) refers to lib.o(i._ZN7cNetUDP6Socket7timeoutEv) for cNetUDP::Socket::timeout()
    lib.o(.constdata__ZTVN7cNetUDP6SocketE) refers to lib.o(i._ZN13cNetTransport6Socket10setTimeoutEtt) for cNetTransport::Socket::setTimeout(unsigned short, unsigned short)
    lib.o(.constdata__ZTVN7cNetTCP6SocketE) refers to lib.o(.constdata__ZTIN7cNetTCP6SocketE) for typeinfo for cNetTCP::Socket
    lib.o(.constdata__ZTVN7cNetTCP6SocketE) refers to lib.o(i._ZN7cNetTCP6Socket6updateEv) for cNetTCP::Socket::update()
    lib.o(.constdata__ZTVN7cNetTCP6SocketE) refers to lib.o(i._ZN7cNetTCP6Socket4openE8cNetAddrILh4EEt) for cNetTCP::Socket::open(cNetAddr<(unsigned char)4>, unsigned short)
    lib.o(.constdata__ZTVN7cNetTCP6SocketE) refers to lib.o(i._ZN13cNetTransport6Socket11openDefaultEv) for cNetTransport::Socket::openDefault()
    lib.o(.constdata__ZTVN7cNetTCP6SocketE) refers to lib.o(i._ZN7cNetTCP6Socket5closeEv) for cNetTCP::Socket::close()
    lib.o(.constdata__ZTVN7cNetTCP6SocketE) refers to lib.o(i._ZN7cNetTCP6Socket11isConnectedEv) for cNetTCP::Socket::isConnected()
    lib.o(.constdata__ZTVN7cNetTCP6SocketE) refers to lib.o(i._ZN7cNetTCP6Socket7isReadyEv) for cNetTCP::Socket::isReady()
    lib.o(.constdata__ZTVN7cNetTCP6SocketE) refers to lib.o(i._ZN13cNetTransport6Socket11getRemoteIPEv) for cNetTransport::Socket::getRemoteIP()
    lib.o(.constdata__ZTVN7cNetTCP6SocketE) refers to lib.o(i._ZN7cNetTCP6Socket5clearEv) for cNetTCP::Socket::clear()
    lib.o(.constdata__ZTVN7cNetTCP6SocketE) refers to lib.o(i._ZN7cNetTCP6Socket10getDataPtrEv) for cNetTCP::Socket::getDataPtr()
    lib.o(.constdata__ZTVN7cNetTCP6SocketE) refers to lib.o(i._ZN7cNetTCP6Socket13setDataLengthEt) for cNetTCP::Socket::setDataLength(unsigned short)
    lib.o(.constdata__ZTVN7cNetTCP6SocketE) refers to lib.o(i._ZN7cNetTCP6Socket4sendEv) for cNetTCP::Socket::send()
    lib.o(.constdata__ZTVN7cNetTCP6SocketE) refers to lib.o(i._ZN7cNetTCP6Socket3getEPc) for cNetTCP::Socket::get(char*)
    lib.o(.constdata__ZTVN7cNetTCP6SocketE) refers to lib.o(i._ZN13cNetTransport6Socket8isServerEv) for cNetTransport::Socket::isServer()
    lib.o(.constdata__ZTVN7cNetTCP6SocketE) refers to lib.o(i._ZN7cNetTCP6Socket10fillBufferEc) for cNetTCP::Socket::fillBuffer(char)
    lib.o(.constdata__ZTVN7cNetTCP6SocketE) refers to lib.o(i._ZN13cNetTransport6Socket4fillEc) for cNetTransport::Socket::fill(char)
    lib.o(.constdata__ZTVN7cNetTCP6SocketE) refers to lib.o(i._ZN13cNetTransport6Socket4fillEPKc) for cNetTransport::Socket::fill(const char*)
    lib.o(.constdata__ZTVN7cNetTCP6SocketE) refers to lib.o(i._ZN13cNetTransport6Socket4fillEPKct) for cNetTransport::Socket::fill(const char*, unsigned short)
    lib.o(.constdata__ZTVN7cNetTCP6SocketE) refers to lib.o(i._ZN7cNetTCP6Socket7processEv) for cNetTCP::Socket::process()
    lib.o(.constdata__ZTVN7cNetTCP6SocketE) refers to lib.o(i._ZN7cNetTCP6Socket7timeoutEv) for cNetTCP::Socket::timeout()
    lib.o(.constdata__ZTVN7cNetTCP6SocketE) refers to lib.o(i._ZN13cNetTransport6Socket10setTimeoutEtt) for cNetTransport::Socket::setTimeout(unsigned short, unsigned short)
    lib.o(.constdata__ZTV15cDevAnalogInADC) refers to lib.o(.constdata__ZTI15cDevAnalogInADC) for typeinfo for cDevAnalogInADC
    lib.o(.constdata__ZTV15cDevAnalogInADC) refers to lib.o(i._ZN12cDevAnalogIn3getEv) for cDevAnalogIn::get()
    lib.o(.constdata__ZTV15cDevAnalogInADC) refers to lib.o(i._ZN12cDevAnalogIncvfEv) for cDevAnalogIn::operator float()
    lib.o(.constdata__ZTV15cDevAnalogInADC) refers to lib.o(i._ZN15cDevAnalogInADC6getRawEv) for cDevAnalogInADC::getRaw()
    lib.o(.constdata__ZTV15cDevAnalogInADC) refers to lib.o(i._ZN15cDevAnalogInADC6enableEv) for cDevAnalogInADC::enable()
    lib.o(.constdata__ZTV13cDevAnalogOut) refers to lib.o(.constdata__ZTI13cDevAnalogOut) for typeinfo for cDevAnalogOut
    lib.o(.constdata__ZTV13cDevAnalogOut) refers to lib.o(i._ZN13cDevAnalogOut3setEf) for cDevAnalogOut::set(float)
    lib.o(.constdata__ZTV13cDevAnalogOut) refers to lib.o(i._ZN13cDevAnalogOutaSEf) for cDevAnalogOut::operator =(float)
    lib.o(.constdata__ZTV13cDevAnalogOut) refers to lib.o(i.__cxa_pure_virtual) for __cxa_pure_virtual
    lib.o(.constdata__ZTV16cDevAnalogOutDAC) refers to lib.o(.constdata__ZTI16cDevAnalogOutDAC) for typeinfo for cDevAnalogOutDAC
    lib.o(.constdata__ZTV16cDevAnalogOutDAC) refers to lib.o(i._ZN13cDevAnalogOut3setEf) for cDevAnalogOut::set(float)
    lib.o(.constdata__ZTV16cDevAnalogOutDAC) refers to lib.o(i._ZN13cDevAnalogOutaSEf) for cDevAnalogOut::operator =(float)
    lib.o(.constdata__ZTV16cDevAnalogOutDAC) refers to lib.o(i._ZN16cDevAnalogOutDAC6setRawEt) for cDevAnalogOutDAC::setRaw(unsigned short)
    lib.o(.constdata__ZTV16cDevAnalogOutPWM) refers to lib.o(.constdata__ZTI16cDevAnalogOutPWM) for typeinfo for cDevAnalogOutPWM
    lib.o(.constdata__ZTV16cDevAnalogOutPWM) refers to lib.o(i._ZN13cDevAnalogOut3setEf) for cDevAnalogOut::set(float)
    lib.o(.constdata__ZTV16cDevAnalogOutPWM) refers to lib.o(i._ZN13cDevAnalogOutaSEf) for cDevAnalogOut::operator =(float)
    lib.o(.constdata__ZTV16cDevAnalogOutPWM) refers to lib.o(i._ZN16cDevAnalogOutPWM6setRawEt) for cDevAnalogOutPWM::setRaw(unsigned short)
    lib.o(.constdata__ZTV20cDevAnalogOutPWMemul) refers to lib.o(.constdata__ZTI20cDevAnalogOutPWMemul) for typeinfo for cDevAnalogOutPWMemul
    lib.o(.constdata__ZTV20cDevAnalogOutPWMemul) refers to lib.o(i._ZN13cDevAnalogOut3setEf) for cDevAnalogOut::set(float)
    lib.o(.constdata__ZTV20cDevAnalogOutPWMemul) refers to lib.o(i._ZN13cDevAnalogOutaSEf) for cDevAnalogOut::operator =(float)
    lib.o(.constdata__ZTV20cDevAnalogOutPWMemul) refers to lib.o(i._ZN20cDevAnalogOutPWMemul6setRawEt) for cDevAnalogOutPWMemul::setRaw(unsigned short)
    lib.o(.constdata__ZTV20cDevAnalogOutPWMemul) refers to lib.o(i._ZN20cDevAnalogOutPWMemul6updateEv) for cDevAnalogOutPWMemul::update()
    lib.o(.constdata__ZTV20cDevAnalogOutPWMemul) refers to lib.o(i._ZThn16_N20cDevAnalogOutPWMemul6updateEv) for thunk{-16} to cDevAnalogOutPWMemul::update()
    lib.o(.constdata__ZTV15cDevDisplayChar) refers to lib.o(.constdata__ZTI15cDevDisplayChar) for typeinfo for cDevDisplayChar
    lib.o(.constdata__ZTV15cDevDisplayChar) refers to lib.o(i._ZN15cDevDisplayChar5clearEv) for cDevDisplayChar::clear()
    lib.o(.constdata__ZTV15cDevDisplayChar) refers to lib.o(i._ZN15cDevDisplayChar7refreshEv) for cDevDisplayChar::refresh()
    lib.o(.constdata__ZTV15cDevDisplayChar) refers to lib.o(i._ZN15cDevDisplayChar6printfEhhhPKcz) for cDevDisplayChar::printf(unsigned char, unsigned char, unsigned char, const char*, ...)
    lib.o(.constdata__ZTV15cDevDisplayChar) refers to lib.o(i._ZN15cDevDisplayChar6printfEhhPKc) for cDevDisplayChar::printf(unsigned char, unsigned char, const char*)
    lib.o(.constdata__ZTV10cDevTextIO) refers to lib.o(.constdata__ZTI10cDevTextIO) for typeinfo for cDevTextIO
    lib.o(.constdata__ZTV10cDevTextIO) refers to lib.o(i._ZN10cDevTextIO6printfEPKcz) for cDevTextIO::printf(const char*, ...)
    lib.o(.constdata__ZTV10cDevTextIO) refers to lib.o(i.__cxa_pure_virtual) for __cxa_pure_virtual
    lib.o(.constdata__ZTV18cDevControlEncoder) refers to lib.o(.constdata__ZTI18cDevControlEncoder) for typeinfo for cDevControlEncoder
    lib.o(.constdata__ZTV18cDevControlEncoder) refers to lib.o(i._ZN18cDevControlEncoder6updateEv) for cDevControlEncoder::update()
    lib.o(.constdata__ZTV18cDevControlEncoder) refers to lib.o(i._ZN18cDevControlEncoder7getCtrlEv) for cDevControlEncoder::getCtrl()
    lib.o(.constdata__ZTV18cDevControlEncoder) refers to lib.o(i.__cxa_pure_virtual) for __cxa_pure_virtual
    lib.o(.constdata__ZTV26cDevControlEncoderJoystick) refers to lib.o(.constdata__ZTI26cDevControlEncoderJoystick) for typeinfo for cDevControlEncoderJoystick
    lib.o(.constdata__ZTV26cDevControlEncoderJoystick) refers to lib.o(i._ZN18cDevControlEncoder6updateEv) for cDevControlEncoder::update()
    lib.o(.constdata__ZTV26cDevControlEncoderJoystick) refers to lib.o(i._ZN18cDevControlEncoder7getCtrlEv) for cDevControlEncoder::getCtrl()
    lib.o(.constdata__ZTV26cDevControlEncoderJoystick) refers to lib.o(i._ZN26cDevControlEncoderJoystick12getIncrementEv) for cDevControlEncoderJoystick::getIncrement()
    lib.o(.constdata__ZTV28cDevControlEncoderRotaryKnob) refers to lib.o(.constdata__ZTI28cDevControlEncoderRotaryKnob) for typeinfo for cDevControlEncoderRotaryKnob
    lib.o(.constdata__ZTV28cDevControlEncoderRotaryKnob) refers to lib.o(i._ZN18cDevControlEncoder6updateEv) for cDevControlEncoder::update()
    lib.o(.constdata__ZTV28cDevControlEncoderRotaryKnob) refers to lib.o(i._ZN18cDevControlEncoder7getCtrlEv) for cDevControlEncoder::getCtrl()
    lib.o(.constdata__ZTV28cDevControlEncoderRotaryKnob) refers to lib.o(i._ZN28cDevControlEncoderRotaryKnob12getIncrementEv) for cDevControlEncoderRotaryKnob::getIncrement()
    lib.o(.constdata__ZTV18cDevControlPointer) refers to lib.o(.constdata__ZTI18cDevControlPointer) for typeinfo for cDevControlPointer
    lib.o(.constdata__ZTV18cDevControlPointer) refers to lib.o(i._ZN18cDevControlPointer3getEv) for cDevControlPointer::get()
    lib.o(.constdata__ZTV12cTaskHandler) refers to lib.o(.constdata__ZTI12cTaskHandler) for typeinfo for cTaskHandler
    lib.o(.constdata__ZTV12cTaskHandler) refers to lib.o(i._ZN12cTaskHandler6updateEv) for cTaskHandler::update()
    lib.o(.constdata__ZTV12cTaskHandler) refers to lib.o(i._ZN12cTaskHandler12getCycleTimeEv) for cTaskHandler::getCycleTime()
    lib.o(.constdata__ZTV12cTaskHandler) refers to lib.o(i._ZN12cTaskHandler7getTicsEv) for cTaskHandler::getTics()
    lib.o(.constdata__ZTV12cTaskHandler) refers to lib.o(i._ZN12cTaskHandler3runEv) for cTaskHandler::run()
    lib.o(.constdata__ZTV12cTaskHandler) refers to lib.o(i._ZN12cTaskHandler7addTaskEPNS_4TaskE) for cTaskHandler::addTask(cTaskHandler::Task*)
    lib.o(.constdata__ZTVN12cTaskHandler5TimerE) refers to lib.o(.constdata__ZTIN12cTaskHandler5TimerE) for typeinfo for cTaskHandler::Timer
    lib.o(.constdata__ZTVN12cTaskHandler5TimerE) refers to lib.o(i._ZN12cTaskHandler5Timer7getTicsEv) for cTaskHandler::Timer::getTics()
    lib.o(.constdata__ZTVN12cTaskHandler5TimerE) refers to lib.o(i._ZN12cTaskHandler5Timer12getTimeOfTicEv) for cTaskHandler::Timer::getTimeOfTic()
    lib.o(.ARM.exidx) refers to lib.o(t._Z5RANGEIsET_S0_S0_S0_) for t._Z5RANGEIsET_S0_S0_S0_
    lib.o(.ARM.exidx) refers to lib.o(i._ZN7cHwPort3Pin7setModeENS_4ModeE) for i._ZN7cHwPort3Pin7setModeENS_4ModeE
    lib.o(.ARM.exidx) refers to lib.o(i._ZN7cHwPort3Pin3setEb) for i._ZN7cHwPort3Pin3setEb
    lib.o(.ARM.exidx) refers to lib.o(i._ZN7cHwPort3Pin3getEv) for i._ZN7cHwPort3Pin3getEv
    lib.o(t._ZN5cFifoIhEC1Eh) refers to lib.o(i._Znaj) for operator new[] (unsigned)
    lib.o(.ARM.exidx) refers to lib.o(t._ZN5cFifoIhEC1Eh) for t._ZN5cFifoIhEC1Eh
    lib.o(t._ZN5cFifoIhE6isFullEv) refers to lib.o(i._ZN7cSystem16disableInterruptEv) for cSystem::disableInterrupt()
    lib.o(t._ZN5cFifoIhE6isFullEv) refers to lib.o(i._ZN7cSystem15enableInterruptEv) for cSystem::enableInterrupt()
    lib.o(.ARM.exidx) refers to lib.o(t._ZN5cFifoIhE6isFullEv) for t._ZN5cFifoIhE6isFullEv
    lib.o(t._ZN5cFifoIhElsERKh) refers to lib.o(i._ZN7cSystem16disableInterruptEv) for cSystem::disableInterrupt()
    lib.o(t._ZN5cFifoIhElsERKh) refers to lib.o(i._ZN7cSystem15enableInterruptEv) for cSystem::enableInterrupt()
    lib.o(.ARM.exidx) refers to lib.o(t._ZN5cFifoIhElsERKh) for t._ZN5cFifoIhElsERKh
    lib.o(t._ZN5cFifoIhErsERh) refers to lib.o(i._ZN7cSystem16disableInterruptEv) for cSystem::disableInterrupt()
    lib.o(t._ZN5cFifoIhErsERh) refers to lib.o(i._ZN7cSystem15enableInterruptEv) for cSystem::enableInterrupt()
    lib.o(.ARM.exidx) refers to lib.o(t._ZN5cFifoIhErsERh) for t._ZN5cFifoIhErsERh
    lib.o(.ARM.exidx) refers to lib.o(i._ZN12cDataPointeraSERKS_) for i._ZN12cDataPointeraSERKS_
    lib.o(.ARM.exidx) refers to lib.o(i._ZN12cDataPointer5shiftEt) for i._ZN12cDataPointer5shiftEt
    lib.o(i._ZN10cHwUSBctrl11ReqEndpointEv) refers to lib.o(i._ZN10cHwUSBctrl5Setup7reqTypeEv) for cHwUSBctrl::Setup::reqType()
    lib.o(i._ZN10cHwUSBctrl11ReqEndpointEv) refers to lib.o(i._ZN10cHwUSBctrl5Setup7requestEv) for cHwUSBctrl::Setup::request()
    lib.o(i._ZN10cHwUSBctrl11ReqEndpointEv) refers to lib.o(i._ZN10cHwUSBctrl25ReqEndpointStd_ClrFeatureEv) for cHwUSBctrl::ReqEndpointStd_ClrFeature()
    lib.o(i._ZN10cHwUSBctrl11ReqEndpointEv) refers to lib.o(i._ZN10cHwUSBctrl5Setup8indexLowEv) for cHwUSBctrl::Setup::indexLow()
    lib.o(i._ZN10cHwUSBctrl11ReqEndpointEv) refers to lib.o(i._ZN10cHwUSBctrl5Setup8valueLowEv) for cHwUSBctrl::Setup::valueLow()
    lib.o(i._ZN10cHwUSBctrl11ReqEndpointEv) refers to lib.o(i._ZN14cHwUSBendpoint5stallEv) for cHwUSBendpoint::stall()
    lib.o(i._ZN10cHwUSBctrl11ReqEndpointEv) refers to lib.o(i._ZN14cHwUSBendpoint16writeAcknowledgeEv) for cHwUSBendpoint::writeAcknowledge()
    lib.o(.ARM.exidx) refers to lib.o(i._ZN10cHwUSBctrl11ReqEndpointEv) for i._ZN10cHwUSBctrl11ReqEndpointEv
    lib.o(i._ZN10cHwUSBctrl17ReqInterfaceClassEv) refers to lib.o(i._ZN12cDataPointerC1Ev) for cDataPointer::cDataPointer()
    lib.o(i._ZN10cHwUSBctrl17ReqInterfaceClassEv) refers to lib.o(i._ZN10cHwUSBctrl5Setup8indexLowEv) for cHwUSBctrl::Setup::indexLow()
    lib.o(i._ZN10cHwUSBctrl17ReqInterfaceClassEv) refers to lib.o(i._ZN10cHwUSBctrl5Setup6lengthEv) for cHwUSBctrl::Setup::length()
    lib.o(i._ZN10cHwUSBctrl17ReqInterfaceClassEv) refers to lib.o(i._ZN10cHwUSBctrl5Setup5valueEv) for cHwUSBctrl::Setup::value()
    lib.o(i._ZN10cHwUSBctrl17ReqInterfaceClassEv) refers to lib.o(i._ZN10cHwUSBctrl5Setup7requestEv) for cHwUSBctrl::Setup::request()
    lib.o(i._ZN10cHwUSBctrl17ReqInterfaceClassEv) refers to lib.o(i._ZN12cDataPointeraSERKS_) for cDataPointer::operator =(const cDataPointer&)
    lib.o(i._ZN10cHwUSBctrl17ReqInterfaceClassEv) refers to lib.o(i._ZN14cHwUSBendpoint9writeDataEv) for cHwUSBendpoint::writeData()
    lib.o(i._ZN10cHwUSBctrl17ReqInterfaceClassEv) refers to lib.o(i._ZN14cHwUSBendpoint16writeAcknowledgeEv) for cHwUSBendpoint::writeAcknowledge()
    lib.o(.ARM.exidx) refers to lib.o(i._ZN10cHwUSBctrl17ReqInterfaceClassEv) for i._ZN10cHwUSBctrl17ReqInterfaceClassEv
    lib.o(i._ZN10cHwUSBctrl12ReqInterfaceEv) refers to lib.o(i._ZN10cHwUSBctrl5Setup7reqTypeEv) for cHwUSBctrl::Setup::reqType()
    lib.o(i._ZN10cHwUSBctrl12ReqInterfaceEv) refers to lib.o(i._ZN10cHwUSBctrl5Setup7requestEv) for cHwUSBctrl::Setup::request()
    lib.o(i._ZN10cHwUSBctrl12ReqInterfaceEv) refers to lib.o(i._ZN10cHwUSBctrl29ReqInterfaceStd_GetDescriptorEv) for cHwUSBctrl::ReqInterfaceStd_GetDescriptor()
    lib.o(i._ZN10cHwUSBctrl12ReqInterfaceEv) refers to lib.o(i._ZN10cHwUSBctrl17ReqInterfaceClassEv) for cHwUSBctrl::ReqInterfaceClass()
    lib.o(.ARM.exidx) refers to lib.o(i._ZN10cHwUSBctrl12ReqInterfaceEv) for i._ZN10cHwUSBctrl12ReqInterfaceEv
    lib.o(i._ZN10cHwUSBctrl29ReqDeviceStd_SetConfigurationEv) refers to lib.o(i._ZN10cHwUSBctrl5Setup8valueLowEv) for cHwUSBctrl::Setup::valueLow()
    lib.o(i._ZN10cHwUSBctrl29ReqDeviceStd_SetConfigurationEv) refers to lib.o(t._ZN12cDataPointercvPT_IvEEv) for cDataPointer::operator T1*<void>()
    lib.o(i._ZN10cHwUSBctrl29ReqDeviceStd_SetConfigurationEv) refers to lib.o(i._ZN14cHwUSBendpoint16setConfigurationEv) for cHwUSBendpoint::setConfiguration()
    lib.o(i._ZN10cHwUSBctrl29ReqDeviceStd_SetConfigurationEv) refers to lib.o(t._ZN12cDataPointercvPT_IN10cHwUSBdesc9cEndpointEEEv) for cDataPointer::operator T1*<cHwUSBdesc::cEndpoint>()
    lib.o(i._ZN10cHwUSBctrl29ReqDeviceStd_SetConfigurationEv) refers to lib.o(i._ZN14cHwUSBendpoint16writeAcknowledgeEv) for cHwUSBendpoint::writeAcknowledge()
    lib.o(.ARM.exidx) refers to lib.o(i._ZN10cHwUSBctrl29ReqDeviceStd_SetConfigurationEv) for i._ZN10cHwUSBctrl29ReqDeviceStd_SetConfigurationEv
    lib.o(i._ZN10cHwUSBctrl26ReqDeviceStd_GetDescriptorEv) refers to lib.o(i._ZN10cHwUSBctrl5Setup6lengthEv) for cHwUSBctrl::Setup::length()
    lib.o(i._ZN10cHwUSBctrl26ReqDeviceStd_GetDescriptorEv) refers to lib.o(i._ZN14cHwUSBendpoint12writeDataLenERK12cDataPointert) for cHwUSBendpoint::writeDataLen(const cDataPointer&, unsigned short)
    lib.o(i._ZN10cHwUSBctrl26ReqDeviceStd_GetDescriptorEv) refers to lib.o(i._ZN10cHwUSBctrl5Setup8valueLowEv) for cHwUSBctrl::Setup::valueLow()
    lib.o(.ARM.exidx) refers to lib.o(i._ZN10cHwUSBctrl26ReqDeviceStd_GetDescriptorEv) for i._ZN10cHwUSBctrl26ReqDeviceStd_GetDescriptorEv
    lib.o(i._ZN10cHwUSBctrl9ReqDeviceEv) refers to lib.o(i._ZN10cHwUSBctrl5Setup7reqTypeEv) for cHwUSBctrl::Setup::reqType()
    lib.o(i._ZN10cHwUSBctrl9ReqDeviceEv) refers to lib.o(i._ZN10cHwUSBctrl5Setup7requestEv) for cHwUSBctrl::Setup::request()
    lib.o(i._ZN10cHwUSBctrl9ReqDeviceEv) refers to lib.o(i._ZN10cHwUSBctrl5Setup6lengthEv) for cHwUSBctrl::Setup::length()
    lib.o(i._ZN10cHwUSBctrl9ReqDeviceEv) refers to lib.o(i._ZN12cDataPointerC1EPht) for cDataPointer::cDataPointer(unsigned char*, unsigned short)
    lib.o(i._ZN10cHwUSBctrl9ReqDeviceEv) refers to lib.o(i._ZN14cHwUSBendpoint9writeDataERK12cDataPointer) for cHwUSBendpoint::writeData(const cDataPointer&)
    lib.o(i._ZN10cHwUSBctrl9ReqDeviceEv) refers to lib.o(i._ZN10cHwUSBctrl5Setup8valueLowEv) for cHwUSBctrl::Setup::valueLow()
    lib.o(i._ZN10cHwUSBctrl9ReqDeviceEv) refers to lib.o(i._ZN10cHwUSBctrl26ReqDeviceStd_GetDescriptorEv) for cHwUSBctrl::ReqDeviceStd_GetDescriptor()
    lib.o(i._ZN10cHwUSBctrl9ReqDeviceEv) refers to lib.o(i._ZN10cHwUSBctrl29ReqDeviceStd_SetConfigurationEv) for cHwUSBctrl::ReqDeviceStd_SetConfiguration()
    lib.o(.ARM.exidx) refers to lib.o(i._ZN10cHwUSBctrl9ReqDeviceEv) for i._ZN10cHwUSBctrl9ReqDeviceEv
    lib.o(.ARM.exidx) refers to lib.o(i._ZN15cNetApplication10setTimeoutEtt) for i._ZN15cNetApplication10setTimeoutEtt
    lib.o(.ARM.exidx) refers to lib.o(i._ZN13cNetTransport6Socket10setTimeoutEtt) for i._ZN13cNetTransport6Socket10setTimeoutEtt
    lib.o(.ARM.exidx) refers to lib.o(i._ZN13cNetTransport6Socket4fillEc) for i._ZN13cNetTransport6Socket4fillEc
    lib.o(i._ZN13cNetTransport6Socket4fillEPKc) refers to strlen.o(.text) for strlen
    lib.o(.ARM.exidx) refers to lib.o(i._ZN13cNetTransport6Socket4fillEPKc) for i._ZN13cNetTransport6Socket4fillEPKc
    lib.o(.ARM.exidx) refers to lib.o(i._ZN4cCRC9tabMethodEh) for i._ZN4cCRC9tabMethodEh
    lib.o(.ARM.exidx) refers to lib.o(i._ZN20cDevDigitalIndicator3clrEv) for i._ZN20cDevDigitalIndicator3clrEv
    lib.o(t._ZN5cFifoIN18cDevControlEncoder6tEventEE6isFullEv) refers to lib.o(i._ZN7cSystem16disableInterruptEv) for cSystem::disableInterrupt()
    lib.o(t._ZN5cFifoIN18cDevControlEncoder6tEventEE6isFullEv) refers to lib.o(i._ZN7cSystem15enableInterruptEv) for cSystem::enableInterrupt()
    lib.o(.ARM.exidx) refers to lib.o(t._ZN5cFifoIN18cDevControlEncoder6tEventEE6isFullEv) for t._ZN5cFifoIN18cDevControlEncoder6tEventEE6isFullEv
    lib.o(t._ZN5cFifoIN18cDevControlEncoder6tEventEElsERKS1_) refers to lib.o(i._ZN7cSystem16disableInterruptEv) for cSystem::disableInterrupt()
    lib.o(t._ZN5cFifoIN18cDevControlEncoder6tEventEElsERKS1_) refers to lib.o(i._ZN7cSystem15enableInterruptEv) for cSystem::enableInterrupt()
    lib.o(.ARM.exidx) refers to lib.o(t._ZN5cFifoIN18cDevControlEncoder6tEventEElsERKS1_) for t._ZN5cFifoIN18cDevControlEncoder6tEventEElsERKS1_
    lib.o(i._Znaj) refers to h1_alloc.o(.text) for malloc
    lib.o(.ARM.exidx) refers to lib.o(i._Znaj) for i._Znaj
    lib.o(i._ZN8cHwUSB_03isrEv) refers to lib.o(i._ZN8cHwUSB_08EPconfig9clrCTR_RXEv) for cHwUSB_0::EPconfig::clrCTR_RX()
    lib.o(i._ZN8cHwUSB_03isrEv) refers to lib.o(i._ZN8cHwUSB_08EPconfig9clrCTR_TXEv) for cHwUSB_0::EPconfig::clrCTR_TX()
    lib.o(.ARM.exidx) refers to lib.o(i._ZN8cHwUSB_03isrEv) for i._ZN8cHwUSB_03isrEv
    lib.o(.ARM.exidx) refers to lib.o(t._Z3MINItET_S0_S0_) for t._Z3MINItET_S0_S0_
    lib.o(i._ZN8cHwTimer10isrHandlerEv) refers to lib.o(i._ZN5cList9updateAllEv) for cList::updateAll()
    lib.o(.ARM.exidx) refers to lib.o(i._ZN8cHwTimer10isrHandlerEv) for i._ZN8cHwTimer10isrHandlerEv
    lib.o(i._ZN6cHwADC3getEh) refers to lib.o(i._ZN7cSystem16disableInterruptEv) for cSystem::disableInterrupt()
    lib.o(i._ZN6cHwADC3getEh) refers to lib.o(i._ZN7cSystem15enableInterruptEv) for cSystem::enableInterrupt()
    lib.o(.ARM.exidx) refers to lib.o(i._ZN6cHwADC3getEh) for i._ZN6cHwADC3getEh
    lib.o(.ARM.exidx) refers to lib.o(i._ZN6cHwADC19getNumberOfChannelsEv) for i._ZN6cHwADC19getNumberOfChannelsEv
    lib.o(.ARM.exidx) refers to lib.o(i._ZN6cHwADC6updateEv) for i._ZN6cHwADC6updateEv
    lib.o(.ARM.exidx) refers to lib.o(i._ZN6cHwADC3isrEv) for i._ZN6cHwADC3isrEv
    lib.o(.ARM.exidx) refers to lib.o(i._ZN8cHwADC_09getResultEv) for i._ZN8cHwADC_09getResultEv
    lib.o(.ARM.exidx) refers to lib.o(i._ZN8cHwADC_07startChEh) for i._ZN8cHwADC_07startChEh
    lib.o(.ARM.exidx) refers to lib.o(i._ZN9cHwMemory5writeEjh) for i._ZN9cHwMemory5writeEjh
    lib.o(.ARM.exidx) refers to lib.o(i._ZN9cHwMemory4readEj) for i._ZN9cHwMemory4readEj
    lib.o(.ARM.exidx) refers to lib.o(i._ZN9cHwMemory5clearEj) for i._ZN9cHwMemory5clearEj
    lib.o(.ARM.exidx) refers to lib.o(i._ZN9cHwMemory7getSizeEv) for i._ZN9cHwMemory7getSizeEv
    lib.o(.ARM.exidx) refers to lib.o(i._ZN9cHwMemory7isFlashEv) for i._ZN9cHwMemory7isFlashEv
    lib.o(.ARM.exidx) refers to lib.o(i._ZN13cHwMemory_RAM9writeByteEjh) for i._ZN13cHwMemory_RAM9writeByteEjh
    lib.o(.ARM.exidx) refers to lib.o(i._ZN13cHwMemory_RAM8readByteEj) for i._ZN13cHwMemory_RAM8readByteEj
    lib.o(.ARM.exidx) refers to lib.o(i._ZN9cHwPort_N3setEj) for i._ZN9cHwPort_N3setEj
    lib.o(.ARM.exidx) refers to lib.o(i._ZN9cHwPort_N3setEjj) for i._ZN9cHwPort_N3setEjj
    lib.o(.ARM.exidx) refers to lib.o(i._ZN9cHwPort_N3clrEj) for i._ZN9cHwPort_N3clrEj
    lib.o(.ARM.exidx) refers to lib.o(i._ZN9cHwPort_N3getEv) for i._ZN9cHwPort_N3getEv
    lib.o(i._ZN12cHwSPImaster6Device5startEv) refers to lib.o(i._ZN7cHwPort3Pin3clrEv) for cHwPort::Pin::clr()
    lib.o(.ARM.exidx) refers to lib.o(i._ZN12cHwSPImaster6Device5startEv) for i._ZN12cHwSPImaster6Device5startEv
    lib.o(i._ZN12cHwSPImaster6Device4stopEv) refers to lib.o(i._ZN7cHwPort3Pin3setEv) for cHwPort::Pin::set()
    lib.o(.ARM.exidx) refers to lib.o(i._ZN12cHwSPImaster6Device4stopEv) for i._ZN12cHwSPImaster6Device4stopEv
    lib.o(.ARM.exidx) refers to lib.o(i._ZN12cHwSPImaster6Device4readEv) for i._ZN12cHwSPImaster6Device4readEv
    lib.o(i._ZN12cHwSPImaster6Device4readEPht) refers to lib.o(i._ZN7cSystem16disableInterruptEv) for cSystem::disableInterrupt()
    lib.o(i._ZN12cHwSPImaster6Device4readEPht) refers to lib.o(i._ZN12cHwSPImaster6Device5startEv) for cHwSPImaster::Device::start()
    lib.o(i._ZN12cHwSPImaster6Device4readEPht) refers to lib.o(i._ZN12cHwSPImaster6Device4stopEv) for cHwSPImaster::Device::stop()
    lib.o(i._ZN12cHwSPImaster6Device4readEPht) refers to lib.o(i._ZN7cSystem15enableInterruptEv) for cSystem::enableInterrupt()
    lib.o(.ARM.exidx) refers to lib.o(i._ZN12cHwSPImaster6Device4readEPht) for i._ZN12cHwSPImaster6Device4readEPht
    lib.o(.ARM.exidx) refers to lib.o(i._ZN12cHwSPImaster6Device5writeEh) for i._ZN12cHwSPImaster6Device5writeEh
    lib.o(i._ZN12cHwSPImaster6Device5writeEt) refers to lib.o(i._ZN7cSystem16disableInterruptEv) for cSystem::disableInterrupt()
    lib.o(i._ZN12cHwSPImaster6Device5writeEt) refers to lib.o(i._ZN12cHwSPImaster6Device5startEv) for cHwSPImaster::Device::start()
    lib.o(i._ZN12cHwSPImaster6Device5writeEt) refers to lib.o(i._ZN12cHwSPImaster6Device4stopEv) for cHwSPImaster::Device::stop()
    lib.o(i._ZN12cHwSPImaster6Device5writeEt) refers to lib.o(i._ZN7cSystem15enableInterruptEv) for cSystem::enableInterrupt()
    lib.o(.ARM.exidx) refers to lib.o(i._ZN12cHwSPImaster6Device5writeEt) for i._ZN12cHwSPImaster6Device5writeEt
    lib.o(i._ZN12cHwSPImaster6Device5writeEPht) refers to lib.o(i._ZN7cSystem16disableInterruptEv) for cSystem::disableInterrupt()
    lib.o(i._ZN12cHwSPImaster6Device5writeEPht) refers to lib.o(i._ZN12cHwSPImaster6Device5startEv) for cHwSPImaster::Device::start()
    lib.o(i._ZN12cHwSPImaster6Device5writeEPht) refers to lib.o(i._ZN12cHwSPImaster6Device4stopEv) for cHwSPImaster::Device::stop()
    lib.o(i._ZN12cHwSPImaster6Device5writeEPht) refers to lib.o(i._ZN7cSystem15enableInterruptEv) for cSystem::enableInterrupt()
    lib.o(.ARM.exidx) refers to lib.o(i._ZN12cHwSPImaster6Device5writeEPht) for i._ZN12cHwSPImaster6Device5writeEPht
    lib.o(i._ZN12cHwSPImaster6Device8writeExtEhh) refers to lib.o(i._ZN7cSystem16disableInterruptEv) for cSystem::disableInterrupt()
    lib.o(i._ZN12cHwSPImaster6Device8writeExtEhh) refers to lib.o(i._ZN12cHwSPImaster6Device5startEv) for cHwSPImaster::Device::start()
    lib.o(i._ZN12cHwSPImaster6Device8writeExtEhh) refers to lib.o(i._ZN12cHwSPImaster6Device4stopEv) for cHwSPImaster::Device::stop()
    lib.o(i._ZN12cHwSPImaster6Device8writeExtEhh) refers to lib.o(i._ZN7cSystem15enableInterruptEv) for cSystem::enableInterrupt()
    lib.o(.ARM.exidx) refers to lib.o(i._ZN12cHwSPImaster6Device8writeExtEhh) for i._ZN12cHwSPImaster6Device8writeExtEhh
    lib.o(i._ZN12cHwSPImaster6Device8writeExtEht) refers to lib.o(i._ZN7cSystem16disableInterruptEv) for cSystem::disableInterrupt()
    lib.o(i._ZN12cHwSPImaster6Device8writeExtEht) refers to lib.o(i._ZN12cHwSPImaster6Device5startEv) for cHwSPImaster::Device::start()
    lib.o(i._ZN12cHwSPImaster6Device8writeExtEht) refers to lib.o(i._ZN12cHwSPImaster6Device4stopEv) for cHwSPImaster::Device::stop()
    lib.o(i._ZN12cHwSPImaster6Device8writeExtEht) refers to lib.o(i._ZN7cSystem15enableInterruptEv) for cSystem::enableInterrupt()
    lib.o(.ARM.exidx) refers to lib.o(i._ZN12cHwSPImaster6Device8writeExtEht) for i._ZN12cHwSPImaster6Device8writeExtEht
    lib.o(i._ZN7cHwUART14isTxBufferFullEv) refers to lib.o(t._ZN5cFifoIhE6isFullEv) for cFifo<unsigned char>::isFull()
    lib.o(.ARM.exidx) refers to lib.o(i._ZN7cHwUART14isTxBufferFullEv) for i._ZN7cHwUART14isTxBufferFullEv
    lib.o(i._ZN7cHwUART5isrRxEv) refers to lib.o(t._ZN5cFifoIhElsERKh) for cFifo<unsigned char>::operator <<(const unsigned char&)
    lib.o(.ARM.exidx) refers to lib.o(i._ZN7cHwUART5isrRxEv) for i._ZN7cHwUART5isrRxEv
    lib.o(i._ZN7cHwUART5isrTxEv) refers to lib.o(i._ZN7cSystem16disableInterruptEv) for cSystem::disableInterrupt()
    lib.o(i._ZN7cHwUART5isrTxEv) refers to lib.o(i._ZN7cSystem15enableInterruptEv) for cSystem::enableInterrupt()
    lib.o(i._ZN7cHwUART5isrTxEv) refers to lib.o(t._ZN5cFifoIhErsERh) for cFifo<unsigned char>::operator >>(unsigned char&)
    lib.o(.ARM.exidx) refers to lib.o(i._ZN7cHwUART5isrTxEv) for i._ZN7cHwUART5isrTxEv
    lib.o(.ARM.exidx) refers to lib.o(i._ZN12cDataPointerC1Ev) for i._ZN12cDataPointerC1Ev
    lib.o(.ARM.exidx) refers to lib.o(i._ZN12cDataPointerC1EPht) for i._ZN12cDataPointerC1EPht
    lib.o(.ARM.exidx) refers to lib.o(i._ZNK12cDataPointer6getPtrEv) for i._ZNK12cDataPointer6getPtrEv
    lib.o(.ARM.exidx) refers to lib.o(i._ZN12cDataPointer7isEmptyEv) for i._ZN12cDataPointer7isEmptyEv
    lib.o(.ARM.exidx) refers to lib.o(i._ZN12cDataPointer7getSizeEv) for i._ZN12cDataPointer7getSizeEv
    lib.o(t._ZN12cDataPointercvPT_IvEEv) refers to lib.o(i._ZNK12cDataPointer6getPtrEv) for cDataPointer::getPtr() const
    lib.o(.ARM.exidx) refers to lib.o(t._ZN12cDataPointercvPT_IvEEv) for t._ZN12cDataPointercvPT_IvEEv
    lib.o(t._ZN12cDataPointercvPT_IN10cHwUSBdesc9cEndpointEEEv) refers to lib.o(i._ZNK12cDataPointer6getPtrEv) for cDataPointer::getPtr() const
    lib.o(.ARM.exidx) refers to lib.o(t._ZN12cDataPointercvPT_IN10cHwUSBdesc9cEndpointEEEv) for t._ZN12cDataPointercvPT_IN10cHwUSBdesc9cEndpointEEEv
    lib.o(.ARM.exidx) refers to lib.o(i._ZN10cHwUSBdesc5getIdEhhhh) for i._ZN10cHwUSBdesc5getIdEhhhh
    lib.o(.ARM.exidx) refers to lib.o(i._ZN10cHwUSBctrl5Setup8valueLowEv) for i._ZN10cHwUSBctrl5Setup8valueLowEv
    lib.o(.ARM.exidx) refers to lib.o(i._ZN10cHwUSBctrl5Setup8indexLowEv) for i._ZN10cHwUSBctrl5Setup8indexLowEv
    lib.o(.ARM.exidx) refers to lib.o(i._ZN10cHwUSBctrl5Setup5valueEv) for i._ZN10cHwUSBctrl5Setup5valueEv
    lib.o(i._ZN10cHwUSBctrl25ReqEndpointStd_ClrFeatureEv) refers to lib.o(i._ZN10cHwUSBctrl5Setup8indexLowEv) for cHwUSBctrl::Setup::indexLow()
    lib.o(i._ZN10cHwUSBctrl25ReqEndpointStd_ClrFeatureEv) refers to lib.o(i._ZN10cHwUSBctrl5Setup5valueEv) for cHwUSBctrl::Setup::value()
    lib.o(i._ZN10cHwUSBctrl25ReqEndpointStd_ClrFeatureEv) refers to lib.o(i._ZN14cHwUSBendpoint8clrStallEv) for cHwUSBendpoint::clrStall()
    lib.o(i._ZN10cHwUSBctrl25ReqEndpointStd_ClrFeatureEv) refers to lib.o(i._ZN14cHwUSBendpoint10clrFeatureEv) for cHwUSBendpoint::clrFeature()
    lib.o(i._ZN10cHwUSBctrl25ReqEndpointStd_ClrFeatureEv) refers to lib.o(i._ZN14cHwUSBendpoint16writeAcknowledgeEv) for cHwUSBendpoint::writeAcknowledge()
    lib.o(.ARM.exidx) refers to lib.o(i._ZN10cHwUSBctrl25ReqEndpointStd_ClrFeatureEv) for i._ZN10cHwUSBctrl25ReqEndpointStd_ClrFeatureEv
    lib.o(.ARM.exidx) refers to lib.o(i._ZN10cHwUSBctrl5Setup7requestEv) for i._ZN10cHwUSBctrl5Setup7requestEv
    lib.o(.ARM.exidx) refers to lib.o(i._ZN10cHwUSBctrl5Setup7reqTypeEv) for i._ZN10cHwUSBctrl5Setup7reqTypeEv
    lib.o(.ARM.exidx) refers to lib.o(i._ZN10cHwUSBctrl5Setup6lengthEv) for i._ZN10cHwUSBctrl5Setup6lengthEv
    lib.o(i._ZN10cHwUSBctrl29ReqInterfaceStd_GetDescriptorEv) refers to lib.o(i._ZN10cHwUSBctrl5Setup8indexLowEv) for cHwUSBctrl::Setup::indexLow()
    lib.o(i._ZN10cHwUSBctrl29ReqInterfaceStd_GetDescriptorEv) refers to lib.o(i._ZN10cHwUSBctrl5Setup8valueLowEv) for cHwUSBctrl::Setup::valueLow()
    lib.o(i._ZN10cHwUSBctrl29ReqInterfaceStd_GetDescriptorEv) refers to lib.o(i._ZN10cHwUSBctrl5Setup6lengthEv) for cHwUSBctrl::Setup::length()
    lib.o(i._ZN10cHwUSBctrl29ReqInterfaceStd_GetDescriptorEv) refers to lib.o(i._ZN10cHwUSBctrl5Setup5valueEv) for cHwUSBctrl::Setup::value()
    lib.o(i._ZN10cHwUSBctrl29ReqInterfaceStd_GetDescriptorEv) refers to lib.o(i._ZN14cHwUSBendpoint12writeDataLenERK12cDataPointert) for cHwUSBendpoint::writeDataLen(const cDataPointer&, unsigned short)
    lib.o(.ARM.exidx) refers to lib.o(i._ZN10cHwUSBctrl29ReqInterfaceStd_GetDescriptorEv) for i._ZN10cHwUSBctrl29ReqInterfaceStd_GetDescriptorEv
    lib.o(i._ZN10cHwUSBctrl5StallEv) refers to lib.o(i._ZN14cHwUSBendpoint5stallEv) for cHwUSBendpoint::stall()
    lib.o(.ARM.exidx) refers to lib.o(i._ZN10cHwUSBctrl5StallEv) for i._ZN10cHwUSBctrl5StallEv
    lib.o(.ARM.exidx) refers to lib.o(i._ZN8cHwUSB_08EPconfigC1Ev) for i._ZN8cHwUSB_08EPconfigC1Ev
    lib.o(t._ZNK8cNetAddrILh4EEeqERKS0_) refers to memcmp.o(.text) for memcmp
    lib.o(.ARM.exidx) refers to lib.o(t._ZNK8cNetAddrILh4EEeqERKS0_) for t._ZNK8cNetAddrILh4EEeqERKS0_
    lib.o(t._ZNK8cNetAddrILh6EEeqERKS0_) refers to memcmp.o(.text) for memcmp
    lib.o(.ARM.exidx) refers to lib.o(t._ZNK8cNetAddrILh6EEeqERKS0_) for t._ZNK8cNetAddrILh6EEeqERKS0_
    lib.o(.ARM.exidx) refers to lib.o(i._ZN15cNetApplication6updateEv) for i._ZN15cNetApplication6updateEv
    lib.o(t._ZN8cNetTYPEItEaSEt) refers to lib.o(i._Z4htont) for hton(unsigned short)
    lib.o(.ARM.exidx) refers to lib.o(t._ZN8cNetTYPEItEaSEt) for t._ZN8cNetTYPEItEaSEt
    lib.o(t._ZN8cNetTYPEItEcvtEv) refers to lib.o(i._Z4ntoht) for ntoh(unsigned short)
    lib.o(.ARM.exidx) refers to lib.o(t._ZN8cNetTYPEItEcvtEv) for t._ZN8cNetTYPEItEcvtEv
    lib.o(i._ZN13cNetTransport6Socket11openDefaultEv) refers to lib.o(t._ZN8cNetTYPEItEcvtEv) for cNetTYPE<unsigned short>::operator unsigned short()
    lib.o(.ARM.exidx) refers to lib.o(i._ZN13cNetTransport6Socket11openDefaultEv) for i._ZN13cNetTransport6Socket11openDefaultEv
    lib.o(.ARM.exidx) refers to lib.o(i._ZN13cNetTransport6Socket8isServerEv) for i._ZN13cNetTransport6Socket8isServerEv
    lib.o(.ARM.exidx) refers to lib.o(i._ZN13cNetTransport6Socket6updateEv) for i._ZN13cNetTransport6Socket6updateEv
    lib.o(.ARM.exidx) refers to lib.o(i._ZN13cNetTransport6Socket4fillEPKct) for i._ZN13cNetTransport6Socket4fillEPKct
    lib.o(.ARM.exidx) refers to lib.o(i._ZN7cNetUDP7getAddrEv) for i._ZN7cNetUDP7getAddrEv
    lib.o(.ARM.exidx) refers to lib.o(i._ZN7cNetUDP10getAddrPhyEv) for i._ZN7cNetUDP10getAddrPhyEv
    lib.o(t._ZN8cNetTYPEIjEaSEj) refers to lib.o(i._Z4htonj) for hton(unsigned)
    lib.o(.ARM.exidx) refers to lib.o(t._ZN8cNetTYPEIjEaSEj) for t._ZN8cNetTYPEIjEaSEj
    lib.o(t._ZN8cNetTYPEIjEcvjEv) refers to lib.o(i._Z4ntohj) for ntoh(unsigned)
    lib.o(.ARM.exidx) refers to lib.o(t._ZN8cNetTYPEIjEcvjEv) for t._ZN8cNetTYPEIjEcvjEv
    lib.o(.ARM.exidx) refers to lib.o(i._ZN8cNetDHCP8OnUpdateEv) for i._ZN8cNetDHCP8OnUpdateEv
    lib.o(.ARM.exidx) refers to lib.o(i._ZN7cNetTCP7getAddrEv) for i._ZN7cNetTCP7getAddrEv
    lib.o(.ARM.exidx) refers to lib.o(i._ZN7cNetTCP10getAddrPhyEv) for i._ZN7cNetTCP10getAddrPhyEv
    lib.o(.ARM.exidx) refers to lib.o(i._ZN7cNetTCP6Header13setDataOffsetEh) for i._ZN7cNetTCP6Header13setDataOffsetEh
    lib.o(.ARM.exidx) refers to lib.o(i._ZN7cNetTCP6Header13getDataOffsetEv) for i._ZN7cNetTCP6Header13getDataOffsetEv
    lib.o(i._ZN12cDevAnalogIn3getEv) refers to fflt_clz.o(x$fpl$ffltu) for __aeabi_ui2f
    lib.o(i._ZN12cDevAnalogIn3getEv) refers to fmul.o(x$fpl$fmul) for __aeabi_fmul
    lib.o(i._ZN12cDevAnalogIn3getEv) refers to faddsub_clz.o(x$fpl$fadd) for __aeabi_fadd
    lib.o(.ARM.exidx) refers to lib.o(i._ZN12cDevAnalogIn3getEv) for i._ZN12cDevAnalogIn3getEv
    lib.o(.ARM.exidx) refers to lib.o(i._ZN12cDevAnalogIncvfEv) for i._ZN12cDevAnalogIncvfEv
    lib.o(.ARM.exidx) refers to lib.o(i._ZN13cDevAnalogOutaSEf) for i._ZN13cDevAnalogOutaSEf
    lib.o(.ARM.exidx) refers to lib.o(i._ZN11cDevDigital3setEv) for i._ZN11cDevDigital3setEv
    lib.o(.ARM.exidx) refers to lib.o(i._ZN11cDevDigital3clrEv) for i._ZN11cDevDigital3clrEv
    lib.o(.ARM.exidx) refers to lib.o(i._ZN11cDevDigital6toggleEv) for i._ZN11cDevDigital6toggleEv
    lib.o(.ARM.exidx) refers to lib.o(i._ZN11cDevDigital8getEventEv) for i._ZN11cDevDigital8getEventEv
    lib.o(.ARM.exidx) refers to lib.o(i._ZN11cDevDigitalaSEb) for i._ZN11cDevDigitalaSEb
    lib.o(.ARM.exidx) refers to lib.o(i._ZN11cDevDigitalaSERS_) for i._ZN11cDevDigitalaSERS_
    lib.o(.ARM.exidx) refers to lib.o(i._ZN11cDevDigitalcvbEv) for i._ZN11cDevDigitalcvbEv
    lib.o(.ARM.exidx) refers to lib.o(i._ZN20cDevDigitalIndicator3setEv) for i._ZN20cDevDigitalIndicator3setEv
    lib.o(.ARM.exidx) refers to lib.o(i._ZN20cDevDigitalIndicator7triggerEt) for i._ZN20cDevDigitalIndicator7triggerEt
    lib.o(.ARM.exidx) refers to lib.o(i._ZN10cHwDisplay16getNumberOfLinesEv) for i._ZN10cHwDisplay16getNumberOfLinesEv
    lib.o(.ARM.exidx) refers to lib.o(i._ZN10cHwDisplay18getNumberOfColumnsEv) for i._ZN10cHwDisplay18getNumberOfColumnsEv
    lib.o(.ARM.exidx) refers to lib.o(i._ZN17cHwDisplayGraphic7refreshEv) for i._ZN17cHwDisplayGraphic7refreshEv
    lib.o(.ARM.exidx) refers to lib.o(i._ZN17cHwDisplayGraphic14getDefaultFontEv) for i._ZN17cHwDisplayGraphic14getDefaultFontEv
    lib.o(.ARM.exidx) refers to lib.o(i._ZN17cHwDisplayGraphic8getWidthEv) for i._ZN17cHwDisplayGraphic8getWidthEv
    lib.o(.ARM.exidx) refers to lib.o(i._ZN17cHwDisplayGraphic9getHeightEv) for i._ZN17cHwDisplayGraphic9getHeightEv
    lib.o(.ARM.exidx) refers to lib.o(i._ZN12cTaskHandler12getCycleTimeEv) for i._ZN12cTaskHandler12getCycleTimeEv
    lib.o(.ARM.exidx) refers to lib.o(i._ZN12cTaskHandler7getTicsEv) for i._ZN12cTaskHandler7getTicsEv
    lib.o(i._ZN12cTaskHandler3runEv) refers to lib.o(i._ZN7cSystem16disableInterruptEv) for cSystem::disableInterrupt()
    lib.o(i._ZN12cTaskHandler3runEv) refers to lib.o(i._ZN7cSystem15enableInterruptEv) for cSystem::enableInterrupt()
    lib.o(i._ZN12cTaskHandler3runEv) refers to lib.o(i._ZN5cList9updateAllEv) for cList::updateAll()
    lib.o(.ARM.exidx) refers to lib.o(i._ZN12cTaskHandler3runEv) for i._ZN12cTaskHandler3runEv
    lib.o(.ARM.exidx) refers to lib.o(i._ZN12cTaskHandler6updateEv) for i._ZN12cTaskHandler6updateEv
    lib.o(.ARM.exidx) refers to lib.o(i._ZN7cHwPort3Pin3setEv) for i._ZN7cHwPort3Pin3setEv
    lib.o(.ARM.exidx) refers to lib.o(i._ZN7cHwPort3Pin3clrEv) for i._ZN7cHwPort3Pin3clrEv
    lib.o(.constdata__ZTVN5cList4ItemE) refers to lib.o(.constdata__ZTIN5cList4ItemE) for typeinfo for cList::Item
    lib.o(.constdata__ZTVN5cList4ItemE) refers to lib.o(i._ZN5cList4Item6updateEv) for cList::Item::update()
    lib.o(.constdata__ZTVN7cHwPort3PinE) refers to lib.o(.constdata__ZTIN7cHwPort3PinE) for typeinfo for cHwPort::Pin
    lib.o(.constdata__ZTVN7cHwPort3PinE) refers to lib.o(i._ZN7cHwPort3Pin7setModeENS_4ModeE) for cHwPort::Pin::setMode(cHwPort::Mode)
    lib.o(.constdata__ZTVN7cHwPort3PinE) refers to lib.o(i._ZN7cHwPort3Pin3setEv) for cHwPort::Pin::set()
    lib.o(.constdata__ZTVN7cHwPort3PinE) refers to lib.o(i._ZN7cHwPort3Pin3setEb) for cHwPort::Pin::set(bool)
    lib.o(.constdata__ZTVN7cHwPort3PinE) refers to lib.o(i._ZN7cHwPort3Pin3clrEv) for cHwPort::Pin::clr()
    lib.o(.constdata__ZTVN7cHwPort3PinE) refers to lib.o(i._ZN7cHwPort3Pin3getEv) for cHwPort::Pin::get()
    lib.o(.constdata__ZTV7cHwPort) refers to lib.o(.constdata__ZTI7cHwPort) for typeinfo for cHwPort
    lib.o(.constdata__ZTV7cHwPort) refers to lib.o(i.__cxa_pure_virtual) for __cxa_pure_virtual
    lib.o(.constdata__ZTV10cHwEncoder) refers to lib.o(.constdata__ZTI10cHwEncoder) for typeinfo for cHwEncoder
    lib.o(.constdata__ZTV10cHwEncoder) refers to lib.o(i.__cxa_pure_virtual) for __cxa_pure_virtual
    lib.o(.constdata__ZTI8cHwTimer) refers to lib_rtti_impl.o(.constdata__ZTVN10__cxxabiv117__class_type_infoE) for vtable for __cxxabiv1::__class_type_info
    lib.o(.constdata__ZTI8cHwTimer) refers to lib.o(.constdata__ZTS8cHwTimer) for typeinfo name for cHwTimer
    lib.o(.constdata__ZTV6cHwRTC) refers to lib.o(.constdata__ZTI6cHwRTC) for typeinfo for cHwRTC
    lib.o(.constdata__ZTV6cHwRTC) refers to lib.o(i.__cxa_pure_virtual) for __cxa_pure_virtual
    lib.o(.constdata__ZTV12cHwUSBinterf) refers to lib.o(.constdata__ZTI12cHwUSBinterf) for typeinfo for cHwUSBinterf
    lib.o(.constdata__ZTV12cHwUSBinterf) refers to lib.o(i.__cxa_pure_virtual) for __cxa_pure_virtual
    lib.o(.constdata__ZTV12cHwUSBinterf) refers to lib.o(i._ZN12cHwUSBinterf13GetDescriptorEt) for cHwUSBinterf::GetDescriptor(unsigned short)
    lib.o(.constdata__ZTV12cHwUSBinterf) refers to lib.o(i._ZN12cHwUSBinterf10clrFeatureEv) for cHwUSBinterf::clrFeature()
    lib.o(.constdata__ZTV12cHwUSBinterf) refers to lib.o(i._ZN12cHwUSBinterf10setFeatureEv) for cHwUSBinterf::setFeature()
    lib.o(.constdata__ZTV15cNetApplication) refers to lib.o(.constdata__ZTI15cNetApplication) for typeinfo for cNetApplication
    lib.o(.constdata__ZTV15cNetApplication) refers to lib.o(i._ZN15cNetApplication6updateEv) for cNetApplication::update()
    lib.o(.constdata__ZTV15cNetApplication) refers to lib.o(i.__cxa_pure_virtual) for __cxa_pure_virtual
    lib.o(.constdata__ZTV15cNetApplication) refers to lib.o(i._ZN15cNetApplication10setTimeoutEtt) for cNetApplication::setTimeout(unsigned short, unsigned short)
    lib.o(.constdata__ZTIN13cNetTransport6SocketE) refers to lib_rtti_impl.o(.constdata__ZTVN10__cxxabiv120__si_class_type_infoE) for vtable for __cxxabiv1::__si_class_type_info
    lib.o(.constdata__ZTIN13cNetTransport6SocketE) refers to lib.o(.constdata__ZTSN13cNetTransport6SocketE) for typeinfo name for cNetTransport::Socket
    lib.o(.constdata__ZTIN13cNetTransport6SocketE) refers to lib.o(.constdata__ZTIN5cList4ItemE) for typeinfo for cList::Item
    lib.o(.constdata__ZTVN6cNetIP13cTimeOutTimerE) refers to lib.o(.constdata__ZTIN6cNetIP13cTimeOutTimerE) for typeinfo for cNetIP::cTimeOutTimer
    lib.o(.constdata__ZTVN6cNetIP13cTimeOutTimerE) refers to lib.o(i._ZN6cNetIP13cTimeOutTimer6updateEv) for cNetIP::cTimeOutTimer::update()
    lib.o(.constdata__ZTI11cDevDigital) refers to lib_rtti_impl.o(.constdata__ZTVN10__cxxabiv117__class_type_infoE) for vtable for __cxxabiv1::__class_type_info
    lib.o(.constdata__ZTI11cDevDigital) refers to lib.o(.constdata__ZTS11cDevDigital) for typeinfo name for cDevDigital
    lib.o(.constdata__ZTV10cHwDisplay) refers to lib.o(.constdata__ZTI10cHwDisplay) for typeinfo for cHwDisplay
    lib.o(.constdata__ZTV10cHwDisplay) refers to lib.o(i.__cxa_pure_virtual) for __cxa_pure_virtual
    lib.o(.constdata__ZTV10cHwDisplay) refers to lib.o(i._ZN10cHwDisplay16getNumberOfLinesEv) for cHwDisplay::getNumberOfLines()
    lib.o(.constdata__ZTV10cHwDisplay) refers to lib.o(i._ZN10cHwDisplay18getNumberOfColumnsEv) for cHwDisplay::getNumberOfColumns()
    lib.o(.constdata__ZTV11cDevDisplay) refers to lib.o(.constdata__ZTI11cDevDisplay) for typeinfo for cDevDisplay
    lib.o(.constdata__ZTV11cDevDisplay) refers to lib.o(i.__cxa_pure_virtual) for __cxa_pure_virtual
    lib.o(.constdata__ZTI17cHwDisplayGraphic) refers to lib_rtti_impl.o(.constdata__ZTVN10__cxxabiv120__si_class_type_infoE) for vtable for __cxxabiv1::__si_class_type_info
    lib.o(.constdata__ZTI17cHwDisplayGraphic) refers to lib.o(.constdata__ZTS17cHwDisplayGraphic) for typeinfo name for cHwDisplayGraphic
    lib.o(.constdata__ZTI17cHwDisplayGraphic) refers to lib.o(.constdata__ZTI10cHwDisplay) for typeinfo for cHwDisplay
    lib.o(.constdata__ZTV9cHwMemory) refers to lib.o(.constdata__ZTI9cHwMemory) for typeinfo for cHwMemory
    lib.o(.constdata__ZTV9cHwMemory) refers to lib.o(i.__cxa_pure_virtual) for __cxa_pure_virtual
    lib.o(.constdata__ZTV9cHwMemory) refers to lib.o(i._ZN9cHwMemory5writeEjh) for cHwMemory::write(unsigned, unsigned char)
    lib.o(.constdata__ZTV9cHwMemory) refers to lib.o(i._ZN9cHwMemory4readEj) for cHwMemory::read(unsigned)
    lib.o(.constdata__ZTV9cHwMemory) refers to lib.o(i._ZN9cHwMemory5clearEj) for cHwMemory::clear(unsigned)
    lib.o(.constdata__ZTV9cHwMemory) refers to lib.o(i._ZN9cHwMemory7getSizeEv) for cHwMemory::getSize()
    lib.o(.constdata__ZTV9cHwMemory) refers to lib.o(i._ZN9cHwMemory7isFlashEv) for cHwMemory::isFlash()
    lib.o(.constdata__ZTI6cHwADC) refers to lib_rtti_impl.o(.constdata__ZTVN10__cxxabiv120__si_class_type_infoE) for vtable for __cxxabiv1::__si_class_type_info
    lib.o(.constdata__ZTI6cHwADC) refers to lib.o(.constdata__ZTS6cHwADC) for typeinfo name for cHwADC
    lib.o(.constdata__ZTI6cHwADC) refers to lib.o(.constdata__ZTIN5cList4ItemE) for typeinfo for cList::Item
    lib.o(.constdata__ZTV6cHwDAC) refers to lib.o(.constdata__ZTI6cHwDAC) for typeinfo for cHwDAC
    lib.o(.constdata__ZTV6cHwDAC) refers to lib.o(i.__cxa_pure_virtual) for __cxa_pure_virtual
    lib.o(.constdata__ZTV6cHwDAC) refers to lib.o(i._ZN6cHwDAC19getNumberOfChannelsEv) for cHwDAC::getNumberOfChannels()
    lib.o(.constdata__ZTV8cHwDAC_0) refers to lib.o(.constdata__ZTI8cHwDAC_0) for typeinfo for cHwDAC_0
    lib.o(.constdata__ZTV8cHwDAC_0) refers to lib.o(i._ZN8cHwDAC_03setEth) for cHwDAC_0::set(unsigned short, unsigned char)
    lib.o(.constdata__ZTV8cHwDAC_0) refers to lib.o(i._ZN8cHwDAC_06enableEh) for cHwDAC_0::enable(unsigned char)
    lib.o(.constdata__ZTV8cHwDAC_0) refers to lib.o(i._ZN6cHwDAC19getNumberOfChannelsEv) for cHwDAC::getNumberOfChannels()
    lib.o(.constdata__ZTV14cHwI2Cmaster_N) refers to lib.o(.constdata__ZTI14cHwI2Cmaster_N) for typeinfo for cHwI2Cmaster_N
    lib.o(.constdata__ZTV14cHwI2Cmaster_N) refers to lib.o(i._ZN12cHwI2Cmaster5writeEhPhhS0_h) for cHwI2Cmaster::write(unsigned char, unsigned char*, unsigned char, unsigned char*, unsigned char)
    lib.o(.constdata__ZTV14cHwI2Cmaster_N) refers to lib.o(i._ZN12cHwI2Cmaster4readEhPhhS0_h) for cHwI2Cmaster::read(unsigned char, unsigned char*, unsigned char, unsigned char*, unsigned char)
    lib.o(.constdata__ZTV14cHwI2Cmaster_N) refers to lib.o(i._ZN14cHwI2Cmaster_N5startEv) for cHwI2Cmaster_N::start()
    lib.o(.constdata__ZTV14cHwI2Cmaster_N) refers to lib.o(i._ZN14cHwI2Cmaster_N4stopEv) for cHwI2Cmaster_N::stop()
    lib.o(.constdata__ZTV14cHwI2Cmaster_N) refers to lib.o(i._ZN14cHwI2Cmaster_N8sendAddrEh) for cHwI2Cmaster_N::sendAddr(unsigned char)
    lib.o(.constdata__ZTV14cHwI2Cmaster_N) refers to lib.o(i._ZN14cHwI2Cmaster_N9writeByteEh) for cHwI2Cmaster_N::writeByte(unsigned char)
    lib.o(.constdata__ZTV14cHwI2Cmaster_N) refers to lib.o(i._ZN14cHwI2Cmaster_N11readByteAckEv) for cHwI2Cmaster_N::readByteAck()
    lib.o(.constdata__ZTV14cHwI2Cmaster_N) refers to lib.o(i._ZN14cHwI2Cmaster_N12readByteNackEv) for cHwI2Cmaster_N::readByteNack()
    lib.o(.constdata__ZTV14cHwI2Cmaster_N) refers to lib.o(i._ZN14cHwI2Cmaster_N11waitForAcknEj) for cHwI2Cmaster_N::waitForAckn(unsigned)
    lib.o(.constdata__ZTI15cHwMemory_Flash) refers to lib_rtti_impl.o(.constdata__ZTVN10__cxxabiv120__si_class_type_infoE) for vtable for __cxxabiv1::__si_class_type_info
    lib.o(.constdata__ZTI15cHwMemory_Flash) refers to lib.o(.constdata__ZTS15cHwMemory_Flash) for typeinfo name for cHwMemory_Flash
    lib.o(.constdata__ZTI15cHwMemory_Flash) refers to lib.o(.constdata__ZTI9cHwMemory) for typeinfo for cHwMemory
    lib.o(.constdata__ZTI9cHwPort_N) refers to lib_rtti_impl.o(.constdata__ZTVN10__cxxabiv120__si_class_type_infoE) for vtable for __cxxabiv1::__si_class_type_info
    lib.o(.constdata__ZTI9cHwPort_N) refers to lib.o(.constdata__ZTS9cHwPort_N) for typeinfo name for cHwPort_N
    lib.o(.constdata__ZTI9cHwPort_N) refers to lib.o(.constdata__ZTI7cHwPort) for typeinfo for cHwPort
    lib.o(.constdata__ZTV12cHwSPImaster) refers to lib.o(.constdata__ZTI12cHwSPImaster) for typeinfo for cHwSPImaster
    lib.o(.constdata__ZTV12cHwSPImaster) refers to lib.o(i.__cxa_pure_virtual) for __cxa_pure_virtual
    lib.o(.constdata__ZTV9cHwUART_N) refers to lib.o(.constdata__ZTI9cHwUART_N) for typeinfo for cHwUART_N
    lib.o(.constdata__ZTV9cHwUART_N) refers to lib.o(i._ZN7cHwUART3setEh) for cHwUART::set(unsigned char)
    lib.o(.constdata__ZTV9cHwUART_N) refers to lib.o(i._ZN7cHwUART3setEPKhh) for cHwUART::set(const unsigned char*, unsigned char)
    lib.o(.constdata__ZTV9cHwUART_N) refers to lib.o(i._ZN7cHwUART3setEPKc) for cHwUART::set(const char*)
    lib.o(.constdata__ZTV9cHwUART_N) refers to lib.o(i._ZN7cHwUART14isTxBufferFullEv) for cHwUART::isTxBufferFull()
    lib.o(.constdata__ZTV9cHwUART_N) refers to lib.o(i._ZN7cHwUART3getEPh) for cHwUART::get(unsigned char*)
    lib.o(.constdata__ZTV9cHwUART_N) refers to lib.o(i._ZN7cHwUART3getEv) for cHwUART::get()
    lib.o(.constdata__ZTV9cHwUART_N) refers to lib.o(i._ZN7cHwUART5isrRxEv) for cHwUART::isrRx()
    lib.o(.constdata__ZTV9cHwUART_N) refers to lib.o(i._ZN7cHwUART5isrTxEv) for cHwUART::isrTx()
    lib.o(.constdata__ZTV9cHwUART_N) refers to lib.o(i._ZN7cHwUART12transmitByteEh) for cHwUART::transmitByte(unsigned char)
    lib.o(.constdata__ZTV9cHwUART_N) refers to lib.o(i._ZN9cHwUART_N7setByteEh) for cHwUART_N::setByte(unsigned char)
    lib.o(.constdata__ZTV9cHwUART_N) refers to lib.o(i._ZN9cHwUART_N7getByteEv) for cHwUART_N::getByte()
    lib.o(.constdata__ZTI7cHwUART) refers to lib_rtti_impl.o(.constdata__ZTVN10__cxxabiv117__class_type_infoE) for vtable for __cxxabiv1::__class_type_info
    lib.o(.constdata__ZTI7cHwUART) refers to lib.o(.constdata__ZTS7cHwUART) for typeinfo name for cHwUART
    lib.o(.constdata__ZTI8cHwUSB_0) refers to lib_rtti_impl.o(.constdata__ZTVN10__cxxabiv120__si_class_type_infoE) for vtable for __cxxabiv1::__si_class_type_info
    lib.o(.constdata__ZTI8cHwUSB_0) refers to lib.o(.constdata__ZTS8cHwUSB_0) for typeinfo name for cHwUSB_0
    lib.o(.constdata__ZTI8cHwUSB_0) refers to lib.o(.constdata__ZTI6cHwUSB) for typeinfo for cHwUSB
    lib.o(.constdata__ZTI6cHwUSB) refers to lib_rtti_impl.o(.constdata__ZTVN10__cxxabiv117__class_type_infoE) for vtable for __cxxabiv1::__class_type_info
    lib.o(.constdata__ZTI6cHwUSB) refers to lib.o(.constdata__ZTS6cHwUSB) for typeinfo name for cHwUSB
    lib.o(.constdata__ZTI11cHwEthernet) refers to lib_rtti_impl.o(.constdata__ZTVN10__cxxabiv117__class_type_infoE) for vtable for __cxxabiv1::__class_type_info
    lib.o(.constdata__ZTI11cHwEthernet) refers to lib.o(.constdata__ZTS11cHwEthernet) for typeinfo name for cHwEthernet
    lib.o(.constdata__ZTI12cHwI2Cmaster) refers to lib_rtti_impl.o(.constdata__ZTVN10__cxxabiv117__class_type_infoE) for vtable for __cxxabiv1::__class_type_info
    lib.o(.constdata__ZTI12cHwI2Cmaster) refers to lib.o(.constdata__ZTS12cHwI2Cmaster) for typeinfo name for cHwI2Cmaster
    lib.o(.constdata__ZTI17cHwI2Cmaster_Emul) refers to lib_rtti_impl.o(.constdata__ZTVN10__cxxabiv120__si_class_type_infoE) for vtable for __cxxabiv1::__si_class_type_info
    lib.o(.constdata__ZTI17cHwI2Cmaster_Emul) refers to lib.o(.constdata__ZTS17cHwI2Cmaster_Emul) for typeinfo name for cHwI2Cmaster_Emul
    lib.o(.constdata__ZTI17cHwI2Cmaster_Emul) refers to lib.o(.constdata__ZTI12cHwI2Cmaster) for typeinfo for cHwI2Cmaster
    lib.o(.constdata__ZTIN12cHwSPImaster6DeviceE) refers to lib_rtti_impl.o(.constdata__ZTVN10__cxxabiv117__class_type_infoE) for vtable for __cxxabiv1::__class_type_info
    lib.o(.constdata__ZTIN12cHwSPImaster6DeviceE) refers to lib.o(.constdata__ZTSN12cHwSPImaster6DeviceE) for typeinfo name for cHwSPImaster::Device
    lib.o(.constdata__ZTV8cHwTouch) refers to lib.o(.constdata__ZTI8cHwTouch) for typeinfo for cHwTouch
    lib.o(.constdata__ZTV8cHwTouch) refers to lib.o(i.__cxa_pure_virtual) for __cxa_pure_virtual
    lib.o(.constdata__ZTV8cHwTouch) refers to lib.o(i._ZN8cHwTouch7getPosXEv) for cHwTouch::getPosX()
    lib.o(.constdata__ZTV8cHwTouch) refers to lib.o(i._ZN8cHwTouch7getPosYEv) for cHwTouch::getPosY()
    lib.o(.constdata__ZTV8cHwTouch) refers to lib.o(i._ZN8cHwTouch9isTouchedEv) for cHwTouch::isTouched()
    lib.o(.constdata__ZTI10cHwUSBdesc) refers to lib_rtti_impl.o(.constdata__ZTVN10__cxxabiv117__class_type_infoE) for vtable for __cxxabiv1::__class_type_info
    lib.o(.constdata__ZTI10cHwUSBdesc) refers to lib.o(.constdata__ZTS10cHwUSBdesc) for typeinfo name for cHwUSBdesc
    lib.o(.constdata__ZTI10cHwUSBctrl) refers to lib_rtti_impl.o(.constdata__ZTVN10__cxxabiv117__class_type_infoE) for vtable for __cxxabiv1::__class_type_info
    lib.o(.constdata__ZTI10cHwUSBctrl) refers to lib.o(.constdata__ZTS10cHwUSBctrl) for typeinfo name for cHwUSBctrl
    lib.o(.constdata__ZTI7cNetTCP) refers to lib_rtti_impl.o(.constdata__ZTVN10__cxxabiv120__si_class_type_infoE) for vtable for __cxxabiv1::__si_class_type_info
    lib.o(.constdata__ZTI7cNetTCP) refers to lib.o(.constdata__ZTS7cNetTCP) for typeinfo name for cNetTCP
    lib.o(.constdata__ZTI7cNetTCP) refers to lib.o(.constdata__ZTI13cNetTransport) for typeinfo for cNetTransport
    lib.o(.constdata__ZTI7cNetUDP) refers to lib_rtti_impl.o(.constdata__ZTVN10__cxxabiv120__si_class_type_infoE) for vtable for __cxxabiv1::__si_class_type_info
    lib.o(.constdata__ZTI7cNetUDP) refers to lib.o(.constdata__ZTS7cNetUDP) for typeinfo name for cNetUDP
    lib.o(.constdata__ZTI7cNetUDP) refers to lib.o(.constdata__ZTI13cNetTransport) for typeinfo for cNetTransport
    lib.o(.constdata__ZTI13cNetTransport) refers to lib_rtti_impl.o(.constdata__ZTVN10__cxxabiv117__class_type_infoE) for vtable for __cxxabiv1::__class_type_info
    lib.o(.constdata__ZTI13cNetTransport) refers to lib.o(.constdata__ZTS13cNetTransport) for typeinfo name for cNetTransport
    lib.o(.constdata__ZTIN7cNetTCP6SocketE) refers to lib_rtti_impl.o(.constdata__ZTVN10__cxxabiv120__si_class_type_infoE) for vtable for __cxxabiv1::__si_class_type_info
    lib.o(.constdata__ZTIN7cNetTCP6SocketE) refers to lib.o(.constdata__ZTSN7cNetTCP6SocketE) for typeinfo name for cNetTCP::Socket
    lib.o(.constdata__ZTIN7cNetTCP6SocketE) refers to lib.o(.constdata__ZTIN13cNetTransport6SocketE) for typeinfo for cNetTransport::Socket
    lib.o(.constdata__ZTIN7cNetUDP6SocketE) refers to lib_rtti_impl.o(.constdata__ZTVN10__cxxabiv120__si_class_type_infoE) for vtable for __cxxabiv1::__si_class_type_info
    lib.o(.constdata__ZTIN7cNetUDP6SocketE) refers to lib.o(.constdata__ZTSN7cNetUDP6SocketE) for typeinfo name for cNetUDP::Socket
    lib.o(.constdata__ZTIN7cNetUDP6SocketE) refers to lib.o(.constdata__ZTIN13cNetTransport6SocketE) for typeinfo for cNetTransport::Socket
    lib.o(.constdata__ZTV12cDevAnalogIn) refers to lib.o(.constdata__ZTI12cDevAnalogIn) for typeinfo for cDevAnalogIn
    lib.o(.constdata__ZTV12cDevAnalogIn) refers to lib.o(i._ZN12cDevAnalogIn3getEv) for cDevAnalogIn::get()
    lib.o(.constdata__ZTV12cDevAnalogIn) refers to lib.o(i._ZN12cDevAnalogIncvfEv) for cDevAnalogIn::operator float()
    lib.o(.constdata__ZTV12cDevAnalogIn) refers to lib.o(i.__cxa_pure_virtual) for __cxa_pure_virtual
    lib.o(.constdata__ZTI13cDevAnalogOut) refers to lib_rtti_impl.o(.constdata__ZTVN10__cxxabiv121__vmi_class_type_infoE) for vtable for __cxxabiv1::__vmi_class_type_info
    lib.o(.constdata__ZTI13cDevAnalogOut) refers to lib.o(.constdata__ZTS13cDevAnalogOut) for typeinfo name for cDevAnalogOut
    lib.o(.constdata__ZTI13cDevAnalogOut) refers to lib.o(.constdata__ZTI10cDevAnalog) for typeinfo for cDevAnalog
    lib.o(.constdata__ZTI20cDevDigitalIndicator) refers to lib_rtti_impl.o(.constdata__ZTVN10__cxxabiv120__si_class_type_infoE) for vtable for __cxxabiv1::__si_class_type_info
    lib.o(.constdata__ZTI20cDevDigitalIndicator) refers to lib.o(.constdata__ZTS20cDevDigitalIndicator) for typeinfo name for cDevDigitalIndicator
    lib.o(.constdata__ZTI20cDevDigitalIndicator) refers to lib.o(.constdata__ZTIN5cList4ItemE) for typeinfo for cList::Item
    lib.o(.constdata__ZTI18cDevDisplayGraphic) refers to lib_rtti_impl.o(.constdata__ZTVN10__cxxabiv120__si_class_type_infoE) for vtable for __cxxabiv1::__si_class_type_info
    lib.o(.constdata__ZTI18cDevDisplayGraphic) refers to lib.o(.constdata__ZTS18cDevDisplayGraphic) for typeinfo name for cDevDisplayGraphic
    lib.o(.constdata__ZTI18cDevDisplayGraphic) refers to lib.o(.constdata__ZTI11cDevDisplay) for typeinfo for cDevDisplay
    lib.o(.constdata__ZTI10cDevTextIO) refers to lib_rtti_impl.o(.constdata__ZTVN10__cxxabiv117__class_type_infoE) for vtable for __cxxabiv1::__class_type_info
    lib.o(.constdata__ZTI10cDevTextIO) refers to lib.o(.constdata__ZTS10cDevTextIO) for typeinfo name for cDevTextIO
    lib.o(.constdata__ZTV15cDevTextIO_UART) refers to lib.o(.constdata__ZTI15cDevTextIO_UART) for typeinfo for cDevTextIO_UART
    lib.o(.constdata__ZTV15cDevTextIO_UART) refers to lib.o(i._ZN10cDevTextIO6printfEPKcz) for cDevTextIO::printf(const char*, ...)
    lib.o(.constdata__ZTV15cDevTextIO_UART) refers to lib.o(i._ZN15cDevTextIO_UART3setEPhh) for cDevTextIO_UART::set(unsigned char*, unsigned char)
    lib.o(.constdata__ZTV15cDevTextIO_UART) refers to lib.o(i._ZN15cDevTextIO_UART3getEPh) for cDevTextIO_UART::get(unsigned char*)
    lib.o(.constdata__ZTI18cDevControlEncoder) refers to lib_rtti_impl.o(.constdata__ZTVN10__cxxabiv120__si_class_type_infoE) for vtable for __cxxabiv1::__si_class_type_info
    lib.o(.constdata__ZTI18cDevControlEncoder) refers to lib.o(.constdata__ZTS18cDevControlEncoder) for typeinfo name for cDevControlEncoder
    lib.o(.constdata__ZTI18cDevControlEncoder) refers to lib.o(.constdata__ZTIN5cList4ItemE) for typeinfo for cList::Item
    lib.o(.constdata__ZTV6cTimer) refers to lib.o(.constdata__ZTI6cTimer) for typeinfo for cTimer
    lib.o(.constdata__ZTV6cTimer) refers to lib.o(i.__cxa_pure_virtual) for __cxa_pure_virtual
    lib.o(.constdata__ZTI12cTaskHandler) refers to lib_rtti_impl.o(.constdata__ZTVN10__cxxabiv120__si_class_type_infoE) for vtable for __cxxabiv1::__si_class_type_info
    lib.o(.constdata__ZTI12cTaskHandler) refers to lib.o(.constdata__ZTS12cTaskHandler) for typeinfo name for cTaskHandler
    lib.o(.constdata__ZTI12cTaskHandler) refers to lib.o(.constdata__ZTIN5cList4ItemE) for typeinfo for cList::Item
    lib.o(.constdata__ZTVN12cTaskHandler4TaskE) refers to lib.o(.constdata__ZTIN12cTaskHandler4TaskE) for typeinfo for cTaskHandler::Task
    lib.o(.constdata__ZTVN12cTaskHandler4TaskE) refers to lib.o(i.__cxa_pure_virtual) for __cxa_pure_virtual
    lib.o(.constdata__ZTI8cHwADC_0) refers to lib_rtti_impl.o(.constdata__ZTVN10__cxxabiv120__si_class_type_infoE) for vtable for __cxxabiv1::__si_class_type_info
    lib.o(.constdata__ZTI8cHwADC_0) refers to lib.o(.constdata__ZTS8cHwADC_0) for typeinfo name for cHwADC_0
    lib.o(.constdata__ZTI8cHwADC_0) refers to lib.o(.constdata__ZTI6cHwADC) for typeinfo for cHwADC
    lib.o(.constdata__ZTI12cHwEncoder_N) refers to lib_rtti_impl.o(.constdata__ZTVN10__cxxabiv120__si_class_type_infoE) for vtable for __cxxabiv1::__si_class_type_info
    lib.o(.constdata__ZTI12cHwEncoder_N) refers to lib.o(.constdata__ZTS12cHwEncoder_N) for typeinfo name for cHwEncoder_N
    lib.o(.constdata__ZTI12cHwEncoder_N) refers to lib.o(.constdata__ZTI10cHwEncoder) for typeinfo for cHwEncoder
    lib.o(.constdata__ZTIN12cHwI2Cmaster6DeviceE) refers to lib_rtti_impl.o(.constdata__ZTVN10__cxxabiv117__class_type_infoE) for vtable for __cxxabiv1::__class_type_info
    lib.o(.constdata__ZTIN12cHwI2Cmaster6DeviceE) refers to lib.o(.constdata__ZTSN12cHwI2Cmaster6DeviceE) for typeinfo name for cHwI2Cmaster::Device
    lib.o(.constdata__ZTI16cHwMemory_EEPROM) refers to lib_rtti_impl.o(.constdata__ZTVN10__cxxabiv120__si_class_type_infoE) for vtable for __cxxabiv1::__si_class_type_info
    lib.o(.constdata__ZTI16cHwMemory_EEPROM) refers to lib.o(.constdata__ZTS16cHwMemory_EEPROM) for typeinfo name for cHwMemory_EEPROM
    lib.o(.constdata__ZTI16cHwMemory_EEPROM) refers to lib.o(.constdata__ZTI9cHwMemory) for typeinfo for cHwMemory
    lib.o(.constdata__ZTI13cHwMemory_RAM) refers to lib_rtti_impl.o(.constdata__ZTVN10__cxxabiv120__si_class_type_infoE) for vtable for __cxxabiv1::__si_class_type_info
    lib.o(.constdata__ZTI13cHwMemory_RAM) refers to lib.o(.constdata__ZTS13cHwMemory_RAM) for typeinfo name for cHwMemory_RAM
    lib.o(.constdata__ZTI13cHwMemory_RAM) refers to lib.o(.constdata__ZTI9cHwMemory) for typeinfo for cHwMemory
    lib.o(.constdata__ZTI8cHwRTC_0) refers to lib_rtti_impl.o(.constdata__ZTVN10__cxxabiv120__si_class_type_infoE) for vtable for __cxxabiv1::__si_class_type_info
    lib.o(.constdata__ZTI8cHwRTC_0) refers to lib.o(.constdata__ZTS8cHwRTC_0) for typeinfo name for cHwRTC_0
    lib.o(.constdata__ZTI8cHwRTC_0) refers to lib.o(.constdata__ZTI6cHwRTC) for typeinfo for cHwRTC
    lib.o(.constdata__ZTI14cHwSPImaster_N) refers to lib_rtti_impl.o(.constdata__ZTVN10__cxxabiv120__si_class_type_infoE) for vtable for __cxxabiv1::__si_class_type_info
    lib.o(.constdata__ZTI14cHwSPImaster_N) refers to lib.o(.constdata__ZTS14cHwSPImaster_N) for typeinfo name for cHwSPImaster_N
    lib.o(.constdata__ZTI14cHwSPImaster_N) refers to lib.o(.constdata__ZTI12cHwSPImaster) for typeinfo for cHwSPImaster
    lib.o(.constdata__ZTI10cHwTimer_N) refers to lib_rtti_impl.o(.constdata__ZTVN10__cxxabiv120__si_class_type_infoE) for vtable for __cxxabiv1::__si_class_type_info
    lib.o(.constdata__ZTI10cHwTimer_N) refers to lib.o(.constdata__ZTS10cHwTimer_N) for typeinfo name for cHwTimer_N
    lib.o(.constdata__ZTI10cHwTimer_N) refers to lib.o(.constdata__ZTI8cHwTimer) for typeinfo for cHwTimer
    lib.o(.constdata__ZTI8cNetDHCP) refers to lib_rtti_impl.o(.constdata__ZTVN10__cxxabiv120__si_class_type_infoE) for vtable for __cxxabiv1::__si_class_type_info
    lib.o(.constdata__ZTI8cNetDHCP) refers to lib.o(.constdata__ZTS8cNetDHCP) for typeinfo name for cNetDHCP
    lib.o(.constdata__ZTI8cNetDHCP) refers to lib.o(.constdata__ZTI15cNetApplication) for typeinfo for cNetApplication
    lib.o(.constdata__ZTI15cDevAnalogInADC) refers to lib_rtti_impl.o(.constdata__ZTVN10__cxxabiv120__si_class_type_infoE) for vtable for __cxxabiv1::__si_class_type_info
    lib.o(.constdata__ZTI15cDevAnalogInADC) refers to lib.o(.constdata__ZTS15cDevAnalogInADC) for typeinfo name for cDevAnalogInADC
    lib.o(.constdata__ZTI15cDevAnalogInADC) refers to lib.o(.constdata__ZTI12cDevAnalogIn) for typeinfo for cDevAnalogIn
    lib.o(.constdata__ZTI16cDevAnalogOutDAC) refers to lib_rtti_impl.o(.constdata__ZTVN10__cxxabiv120__si_class_type_infoE) for vtable for __cxxabiv1::__si_class_type_info
    lib.o(.constdata__ZTI16cDevAnalogOutDAC) refers to lib.o(.constdata__ZTS16cDevAnalogOutDAC) for typeinfo name for cDevAnalogOutDAC
    lib.o(.constdata__ZTI16cDevAnalogOutDAC) refers to lib.o(.constdata__ZTI13cDevAnalogOut) for typeinfo for cDevAnalogOut
    lib.o(.constdata__ZTI16cDevAnalogOutPWM) refers to lib_rtti_impl.o(.constdata__ZTVN10__cxxabiv120__si_class_type_infoE) for vtable for __cxxabiv1::__si_class_type_info
    lib.o(.constdata__ZTI16cDevAnalogOutPWM) refers to lib.o(.constdata__ZTS16cDevAnalogOutPWM) for typeinfo name for cDevAnalogOutPWM
    lib.o(.constdata__ZTI16cDevAnalogOutPWM) refers to lib.o(.constdata__ZTI13cDevAnalogOut) for typeinfo for cDevAnalogOut
    lib.o(.constdata__ZTI20cDevAnalogOutPWMemul) refers to lib_rtti_impl.o(.constdata__ZTVN10__cxxabiv121__vmi_class_type_infoE) for vtable for __cxxabiv1::__vmi_class_type_info
    lib.o(.constdata__ZTI20cDevAnalogOutPWMemul) refers to lib.o(.constdata__ZTS20cDevAnalogOutPWMemul) for typeinfo name for cDevAnalogOutPWMemul
    lib.o(.constdata__ZTI20cDevAnalogOutPWMemul) refers to lib.o(.constdata__ZTI13cDevAnalogOut) for typeinfo for cDevAnalogOut
    lib.o(.constdata__ZTI20cDevAnalogOutPWMemul) refers to lib.o(.constdata__ZTIN5cList4ItemE) for typeinfo for cList::Item
    lib.o(.constdata__ZTI15cDevDisplayChar) refers to lib_rtti_impl.o(.constdata__ZTVN10__cxxabiv120__si_class_type_infoE) for vtable for __cxxabiv1::__si_class_type_info
    lib.o(.constdata__ZTI15cDevDisplayChar) refers to lib.o(.constdata__ZTS15cDevDisplayChar) for typeinfo name for cDevDisplayChar
    lib.o(.constdata__ZTI15cDevDisplayChar) refers to lib.o(.constdata__ZTI11cDevDisplay) for typeinfo for cDevDisplay
    lib.o(.constdata__ZTI26cDevControlEncoderJoystick) refers to lib_rtti_impl.o(.constdata__ZTVN10__cxxabiv120__si_class_type_infoE) for vtable for __cxxabiv1::__si_class_type_info
    lib.o(.constdata__ZTI26cDevControlEncoderJoystick) refers to lib.o(.constdata__ZTS26cDevControlEncoderJoystick) for typeinfo name for cDevControlEncoderJoystick
    lib.o(.constdata__ZTI26cDevControlEncoderJoystick) refers to lib.o(.constdata__ZTI18cDevControlEncoder) for typeinfo for cDevControlEncoder
    lib.o(.constdata__ZTI28cDevControlEncoderRotaryKnob) refers to lib_rtti_impl.o(.constdata__ZTVN10__cxxabiv120__si_class_type_infoE) for vtable for __cxxabiv1::__si_class_type_info
    lib.o(.constdata__ZTI28cDevControlEncoderRotaryKnob) refers to lib.o(.constdata__ZTS28cDevControlEncoderRotaryKnob) for typeinfo name for cDevControlEncoderRotaryKnob
    lib.o(.constdata__ZTI28cDevControlEncoderRotaryKnob) refers to lib.o(.constdata__ZTI18cDevControlEncoder) for typeinfo for cDevControlEncoder
    lib.o(.constdata__ZTI18cDevControlPointer) refers to lib_rtti_impl.o(.constdata__ZTVN10__cxxabiv117__class_type_infoE) for vtable for __cxxabiv1::__class_type_info
    lib.o(.constdata__ZTI18cDevControlPointer) refers to lib.o(.constdata__ZTS18cDevControlPointer) for typeinfo name for cDevControlPointer
    lib.o(.constdata__ZTIN12cTaskHandler5TimerE) refers to lib_rtti_impl.o(.constdata__ZTVN10__cxxabiv120__si_class_type_infoE) for vtable for __cxxabiv1::__si_class_type_info
    lib.o(.constdata__ZTIN12cTaskHandler5TimerE) refers to lib.o(.constdata__ZTSN12cTaskHandler5TimerE) for typeinfo name for cTaskHandler::Timer
    lib.o(.constdata__ZTIN12cTaskHandler5TimerE) refers to lib.o(.constdata__ZTI6cTimer) for typeinfo for cTimer
    lib.o(.constdata__ZTI7cHwPort) refers to lib_rtti_impl.o(.constdata__ZTVN10__cxxabiv117__class_type_infoE) for vtable for __cxxabiv1::__class_type_info
    lib.o(.constdata__ZTI7cHwPort) refers to lib.o(.constdata__ZTS7cHwPort) for typeinfo name for cHwPort
    lib.o(.constdata__ZTIN7cHwPort3PinE) refers to lib_rtti_impl.o(.constdata__ZTVN10__cxxabiv117__class_type_infoE) for vtable for __cxxabiv1::__class_type_info
    lib.o(.constdata__ZTIN7cHwPort3PinE) refers to lib.o(.constdata__ZTSN7cHwPort3PinE) for typeinfo name for cHwPort::Pin
    lib.o(.constdata__ZTI15cNetApplication) refers to lib_rtti_impl.o(.constdata__ZTVN10__cxxabiv120__si_class_type_infoE) for vtable for __cxxabiv1::__si_class_type_info
    lib.o(.constdata__ZTI15cNetApplication) refers to lib.o(.constdata__ZTS15cNetApplication) for typeinfo name for cNetApplication
    lib.o(.constdata__ZTI15cNetApplication) refers to lib.o(.constdata__ZTIN5cList4ItemE) for typeinfo for cList::Item
    lib.o(.constdata__ZTI9cHwMemory) refers to lib_rtti_impl.o(.constdata__ZTVN10__cxxabiv117__class_type_infoE) for vtable for __cxxabiv1::__class_type_info
    lib.o(.constdata__ZTI9cHwMemory) refers to lib.o(.constdata__ZTS9cHwMemory) for typeinfo name for cHwMemory
    lib.o(.constdata__ZTI14cHwI2Cmaster_N) refers to lib_rtti_impl.o(.constdata__ZTVN10__cxxabiv120__si_class_type_infoE) for vtable for __cxxabiv1::__si_class_type_info
    lib.o(.constdata__ZTI14cHwI2Cmaster_N) refers to lib.o(.constdata__ZTS14cHwI2Cmaster_N) for typeinfo name for cHwI2Cmaster_N
    lib.o(.constdata__ZTI14cHwI2Cmaster_N) refers to lib.o(.constdata__ZTI12cHwI2Cmaster) for typeinfo for cHwI2Cmaster
    lib.o(.constdata__ZTI12cHwSPImaster) refers to lib_rtti_impl.o(.constdata__ZTVN10__cxxabiv117__class_type_infoE) for vtable for __cxxabiv1::__class_type_info
    lib.o(.constdata__ZTI12cHwSPImaster) refers to lib.o(.constdata__ZTS12cHwSPImaster) for typeinfo name for cHwSPImaster
    lib.o(.constdata__ZTI12cHwUSBinterf) refers to lib_rtti_impl.o(.constdata__ZTVN10__cxxabiv117__class_type_infoE) for vtable for __cxxabiv1::__class_type_info
    lib.o(.constdata__ZTI12cHwUSBinterf) refers to lib.o(.constdata__ZTS12cHwUSBinterf) for typeinfo name for cHwUSBinterf
    lib.o(.constdata__ZTI12cDevAnalogIn) refers to lib_rtti_impl.o(.constdata__ZTVN10__cxxabiv121__vmi_class_type_infoE) for vtable for __cxxabiv1::__vmi_class_type_info
    lib.o(.constdata__ZTI12cDevAnalogIn) refers to lib.o(.constdata__ZTS12cDevAnalogIn) for typeinfo name for cDevAnalogIn
    lib.o(.constdata__ZTI12cDevAnalogIn) refers to lib.o(.constdata__ZTI10cDevAnalog) for typeinfo for cDevAnalog
    lib.o(.constdata__ZTI6cHwDAC) refers to lib_rtti_impl.o(.constdata__ZTVN10__cxxabiv117__class_type_infoE) for vtable for __cxxabiv1::__class_type_info
    lib.o(.constdata__ZTI6cHwDAC) refers to lib.o(.constdata__ZTS6cHwDAC) for typeinfo name for cHwDAC
    lib.o(.constdata__ZTI10cHwDisplay) refers to lib_rtti_impl.o(.constdata__ZTVN10__cxxabiv117__class_type_infoE) for vtable for __cxxabiv1::__class_type_info
    lib.o(.constdata__ZTI10cHwDisplay) refers to lib.o(.constdata__ZTS10cHwDisplay) for typeinfo name for cHwDisplay
    lib.o(.constdata__ZTI8cHwTouch) refers to lib_rtti_impl.o(.constdata__ZTVN10__cxxabiv117__class_type_infoE) for vtable for __cxxabiv1::__class_type_info
    lib.o(.constdata__ZTI8cHwTouch) refers to lib.o(.constdata__ZTS8cHwTouch) for typeinfo name for cHwTouch
    lib.o(.constdata__ZTIN5cList4ItemE) refers to lib_rtti_impl.o(.constdata__ZTVN10__cxxabiv117__class_type_infoE) for vtable for __cxxabiv1::__class_type_info
    lib.o(.constdata__ZTIN5cList4ItemE) refers to lib.o(.constdata__ZTSN5cList4ItemE) for typeinfo name for cList::Item
    lib.o(.constdata__ZTI6cTimer) refers to lib_rtti_impl.o(.constdata__ZTVN10__cxxabiv117__class_type_infoE) for vtable for __cxxabiv1::__class_type_info
    lib.o(.constdata__ZTI6cTimer) refers to lib.o(.constdata__ZTS6cTimer) for typeinfo name for cTimer
    lib.o(.constdata__ZTI8cHwDAC_0) refers to lib_rtti_impl.o(.constdata__ZTVN10__cxxabiv120__si_class_type_infoE) for vtable for __cxxabiv1::__si_class_type_info
    lib.o(.constdata__ZTI8cHwDAC_0) refers to lib.o(.constdata__ZTS8cHwDAC_0) for typeinfo name for cHwDAC_0
    lib.o(.constdata__ZTI8cHwDAC_0) refers to lib.o(.constdata__ZTI6cHwDAC) for typeinfo for cHwDAC
    lib.o(.constdata__ZTI10cHwEncoder) refers to lib_rtti_impl.o(.constdata__ZTVN10__cxxabiv117__class_type_infoE) for vtable for __cxxabiv1::__class_type_info
    lib.o(.constdata__ZTI10cHwEncoder) refers to lib.o(.constdata__ZTS10cHwEncoder) for typeinfo name for cHwEncoder
    lib.o(.constdata__ZTI6cHwRTC) refers to lib_rtti_impl.o(.constdata__ZTVN10__cxxabiv117__class_type_infoE) for vtable for __cxxabiv1::__class_type_info
    lib.o(.constdata__ZTI6cHwRTC) refers to lib.o(.constdata__ZTS6cHwRTC) for typeinfo name for cHwRTC
    lib.o(.constdata__ZTI9cHwUART_N) refers to lib_rtti_impl.o(.constdata__ZTVN10__cxxabiv120__si_class_type_infoE) for vtable for __cxxabiv1::__si_class_type_info
    lib.o(.constdata__ZTI9cHwUART_N) refers to lib.o(.constdata__ZTS9cHwUART_N) for typeinfo name for cHwUART_N
    lib.o(.constdata__ZTI9cHwUART_N) refers to lib.o(.constdata__ZTI7cHwUART) for typeinfo for cHwUART
    lib.o(.constdata__ZTIN6cNetIP13cTimeOutTimerE) refers to lib_rtti_impl.o(.constdata__ZTVN10__cxxabiv120__si_class_type_infoE) for vtable for __cxxabiv1::__si_class_type_info
    lib.o(.constdata__ZTIN6cNetIP13cTimeOutTimerE) refers to lib.o(.constdata__ZTSN6cNetIP13cTimeOutTimerE) for typeinfo name for cNetIP::cTimeOutTimer
    lib.o(.constdata__ZTIN6cNetIP13cTimeOutTimerE) refers to lib.o(.constdata__ZTIN5cList4ItemE) for typeinfo for cList::Item
    lib.o(.constdata__ZTI11cDevDisplay) refers to lib_rtti_impl.o(.constdata__ZTVN10__cxxabiv117__class_type_infoE) for vtable for __cxxabiv1::__class_type_info
    lib.o(.constdata__ZTI11cDevDisplay) refers to lib.o(.constdata__ZTS11cDevDisplay) for typeinfo name for cDevDisplay
    lib.o(.constdata__ZTI15cDevTextIO_UART) refers to lib_rtti_impl.o(.constdata__ZTVN10__cxxabiv120__si_class_type_infoE) for vtable for __cxxabiv1::__si_class_type_info
    lib.o(.constdata__ZTI15cDevTextIO_UART) refers to lib.o(.constdata__ZTS15cDevTextIO_UART) for typeinfo name for cDevTextIO_UART
    lib.o(.constdata__ZTI15cDevTextIO_UART) refers to lib.o(.constdata__ZTI10cDevTextIO) for typeinfo for cDevTextIO
    lib.o(.constdata__ZTIN12cTaskHandler4TaskE) refers to lib_rtti_impl.o(.constdata__ZTVN10__cxxabiv120__si_class_type_infoE) for vtable for __cxxabiv1::__si_class_type_info
    lib.o(.constdata__ZTIN12cTaskHandler4TaskE) refers to lib.o(.constdata__ZTSN12cTaskHandler4TaskE) for typeinfo name for cTaskHandler::Task
    lib.o(.constdata__ZTIN12cTaskHandler4TaskE) refers to lib.o(.constdata__ZTIN5cList4ItemE) for typeinfo for cList::Item
    lib.o(.constdata__ZTI10cDevAnalog) refers to lib_rtti_impl.o(.constdata__ZTVN10__cxxabiv117__class_type_infoE) for vtable for __cxxabiv1::__class_type_info
    lib.o(.constdata__ZTI10cDevAnalog) refers to lib.o(.constdata__ZTS10cDevAnalog) for typeinfo name for cDevAnalog
    lib.o(.ARM.exidx) refers to lib.o(i._ZN5cList4Item6updateEv) for i._ZN5cList4Item6updateEv
    lib.o(.ARM.exidx) refers to lib.o(i._ZN6cHwDAC19getNumberOfChannelsEv) for i._ZN6cHwDAC19getNumberOfChannelsEv
    lib.o(.ARM.exidx) refers to lib.o(i._ZN8cHwDAC_03setEth) for i._ZN8cHwDAC_03setEth
    lib.o(i._ZN8cHwDAC_06enableEh) refers to lib.o(i._ZN12cHwPinConfig3setENS_8FunctionEj) for cHwPinConfig::set(cHwPinConfig::Function, unsigned)
    lib.o(.ARM.exidx) refers to lib.o(i._ZN8cHwDAC_06enableEh) for i._ZN8cHwDAC_06enableEh
    lib.o(.ARM.exidx) refers to lib.o(i._ZN14cHwI2Cmaster_N11waitForAcknEj) for i._ZN14cHwI2Cmaster_N11waitForAcknEj
    lib.o(.ARM.exidx) refers to lib.o(i._ZN14cHwI2Cmaster_N5startEv) for i._ZN14cHwI2Cmaster_N5startEv
    lib.o(.ARM.exidx) refers to lib.o(i._ZN14cHwI2Cmaster_N4stopEv) for i._ZN14cHwI2Cmaster_N4stopEv
    lib.o(.ARM.exidx) refers to lib.o(i._ZN14cHwI2Cmaster_N8sendAddrEh) for i._ZN14cHwI2Cmaster_N8sendAddrEh
    lib.o(.ARM.exidx) refers to lib.o(i._ZN14cHwI2Cmaster_N9writeByteEh) for i._ZN14cHwI2Cmaster_N9writeByteEh
    lib.o(.ARM.exidx) refers to lib.o(i._ZN14cHwI2Cmaster_N11readByteAckEv) for i._ZN14cHwI2Cmaster_N11readByteAckEv
    lib.o(.ARM.exidx) refers to lib.o(i._ZN14cHwI2Cmaster_N12readByteNackEv) for i._ZN14cHwI2Cmaster_N12readByteNackEv
    lib.o(.ARM.exidx) refers to lib.o(i._ZN9cHwUART_N7getByteEv) for i._ZN9cHwUART_N7getByteEv
    lib.o(.ARM.exidx) refers to lib.o(i._ZN9cHwUART_N7setByteEh) for i._ZN9cHwUART_N7setByteEh
    lib.o(i._ZN12cHwUSBinterf13GetDescriptorEt) refers to lib.o(i._ZN12cDataPointerC1Ev) for cDataPointer::cDataPointer()
    lib.o(.ARM.exidx) refers to lib.o(i._ZN12cHwUSBinterf13GetDescriptorEt) for i._ZN12cHwUSBinterf13GetDescriptorEt
    lib.o(.ARM.exidx) refers to lib.o(i._ZN12cHwUSBinterf10clrFeatureEv) for i._ZN12cHwUSBinterf10clrFeatureEv
    lib.o(.ARM.exidx) refers to lib.o(i._ZN12cHwUSBinterf10setFeatureEv) for i._ZN12cHwUSBinterf10setFeatureEv
    lib.o(.ARM.exidx) refers to lib.o(i._ZN6cNetIP13cTimeOutTimer6updateEv) for i._ZN6cNetIP13cTimeOutTimer6updateEv
    lib.o(.ARM.exidx) refers to lib.o(i._ZN15cDevTextIO_UART3setEPhh) for i._ZN15cDevTextIO_UART3setEPhh
    lib.o(.ARM.exidx) refers to lib.o(i._ZN15cDevTextIO_UART3getEPh) for i._ZN15cDevTextIO_UART3getEPh
    lib.o(.ARM.exidx) refers to lib.o(i._ZN8cHwTouch7getPosXEv) for i._ZN8cHwTouch7getPosXEv
    lib.o(.ARM.exidx) refers to lib.o(i._ZN8cHwTouch7getPosYEv) for i._ZN8cHwTouch7getPosYEv
    lib.o(.ARM.exidx) refers to lib.o(i._ZN8cHwTouch9isTouchedEv) for i._ZN8cHwTouch9isTouchedEv
    rtos.o(.constdata__ZTVN5cRTOS4TaskE) refers to rtos.o(.constdata__ZTIN5cRTOS4TaskE) for typeinfo for cRTOS::Task
    rtos.o(.constdata__ZTVN5cRTOS4TaskE) refers to rtos.o(i._ZN5cRTOS4TaskD2Ev) for cRTOS::Task::~Task__sub_object()
    rtos.o(.constdata__ZTVN5cRTOS4TaskE) refers to rtos.o(i._ZN5cRTOS4TaskD0Ev) for cRTOS::Task::~Task__deallocating()
    rtos.o(.constdata__ZTVN5cRTOS4TaskE) refers to rtos.o(i._ZN5cRTOS4Task4StopEv) for cRTOS::Task::Stop()
    rtos.o(.constdata__ZTVN5cRTOS4TaskE) refers to rtos.o(i._ZN5cRTOS4Task5PauseEt) for cRTOS::Task::Pause(unsigned short)
    rtos.o(.constdata__ZTVN5cRTOS4TaskE) refers to rtos.o(i._ZN5cRTOS4Task5StartEv) for cRTOS::Task::Start()
    rtos.o(.constdata__ZTVN5cRTOS4TaskE) refers to rtos.o(i._ZN5cRTOS4Task6FinishEv) for cRTOS::Task::Finish()
    rtos.o(.constdata__ZTVN5cRTOS4TaskE) refers to rtos.o(i._ZN5cRTOS4Task8isActiveEv) for cRTOS::Task::isActive()
    rtos.o(.constdata__ZTVN5cRTOS4TaskE) refers to lib.o(i.__cxa_pure_virtual) for __cxa_pure_virtual
    rtos.o(.constdata__ZTVN5cRTOS4TaskE) refers to rtos.o(i._ZN5cRTOS4Task7OnStartEv) for cRTOS::Task::OnStart()
    rtos.o(.constdata__ZTVN5cRTOS4TaskE) refers to rtos.o(i._ZN5cRTOS4Task6OnStopEv) for cRTOS::Task::OnStop()
    rtos.o(.constdata__ZTVN5cRTOS5TimerE) refers to rtos.o(.constdata__ZTIN5cRTOS5TimerE) for typeinfo for cRTOS::Timer
    rtos.o(.constdata__ZTVN5cRTOS5TimerE) refers to rtos.o(i._ZN5cRTOS5Timer7getTicsEv) for cRTOS::Timer::getTics()
    rtos.o(.constdata__ZTVN5cRTOS5TimerE) refers to rtos.o(i._ZN5cRTOS5Timer12getTimeOfTicEv) for cRTOS::Timer::getTimeOfTic()
    rtos.o(i._ZN11cHwRTOS_MCU10getSysTimeEv) refers to lludivv7m.o(.text) for __aeabi_uldivmod
    rtos.o(i._ZN11cHwRTOS_MCU10getSysTimeEv) refers to lib.o(.data) for cHwRTOS_MCU::sysTic
    rtos.o(.ARM.exidx) refers to rtos.o(i._ZN11cHwRTOS_MCU10getSysTimeEv) for i._ZN11cHwRTOS_MCU10getSysTimeEv
    rtos.o(i._ZdlPv) refers to h1_free.o(.text) for free
    rtos.o(.ARM.exidx) refers to rtos.o(i._ZdlPv) for i._ZdlPv
    rtos.o(i._ZN11cHwRTOS_MCU5startEPcjPvPFjS1_E) refers to rtos.o(i._ZN11cHwRTOS_MCU10deleteFuncEv) for cHwRTOS_MCU::deleteFunc()
    rtos.o(.ARM.exidx) refers to rtos.o(i._ZN11cHwRTOS_MCU5startEPcjPvPFjS1_E) for i._ZN11cHwRTOS_MCU5startEPcjPvPFjS1_E
    rtos.o(.ARM.exidx) refers to rtos.o(i._ZN5cRTOS4Task8isActiveEv) for i._ZN5cRTOS4Task8isActiveEv
    rtos.o(.ARM.exidx) refers to rtos.o(i._ZN5cRTOS4Task7OnStartEv) for i._ZN5cRTOS4Task7OnStartEv
    rtos.o(.ARM.exidx) refers to rtos.o(i._ZN5cRTOS4Task6OnStopEv) for i._ZN5cRTOS4Task6OnStopEv
    rtos.o(.ARM.exidx) refers to rtos.o(i._ZN11cHwRTOS_MCU10deleteFuncEv) for i._ZN11cHwRTOS_MCU10deleteFuncEv
    rtos.o(.constdata__ZTV5cRTOS) refers to rtos.o(.constdata__ZTI5cRTOS) for typeinfo for cRTOS
    rtos.o(.constdata__ZTV5cRTOS) refers to lib.o(i.__cxa_pure_virtual) for __cxa_pure_virtual
    rtos.o(.constdata__ZTIN5cRTOS4TaskE) refers to lib_rtti_impl.o(.constdata__ZTVN10__cxxabiv117__class_type_infoE) for vtable for __cxxabiv1::__class_type_info
    rtos.o(.constdata__ZTIN5cRTOS4TaskE) refers to rtos.o(.constdata__ZTSN5cRTOS4TaskE) for typeinfo name for cRTOS::Task
    rtos.o(.constdata__ZTIN5cRTOS5TimerE) refers to lib_rtti_impl.o(.constdata__ZTVN10__cxxabiv120__si_class_type_infoE) for vtable for __cxxabiv1::__si_class_type_info
    rtos.o(.constdata__ZTIN5cRTOS5TimerE) refers to rtos.o(.constdata__ZTSN5cRTOS5TimerE) for typeinfo name for cRTOS::Timer
    rtos.o(.constdata__ZTIN5cRTOS5TimerE) refers to lib.o(.constdata__ZTI6cTimer) for typeinfo for cTimer
    rtos.o(.constdata__ZTI5cRTOS) refers to lib_rtti_impl.o(.constdata__ZTVN10__cxxabiv117__class_type_infoE) for vtable for __cxxabiv1::__class_type_info
    rtos.o(.constdata__ZTI5cRTOS) refers to rtos.o(.constdata__ZTS5cRTOS) for typeinfo name for cRTOS
    disp_dip204spi.o(.constdata__ZTV17cHwDisp_DIP204spi) refers to disp_dip204spi.o(.constdata__ZTI17cHwDisp_DIP204spi) for typeinfo for cHwDisp_DIP204spi
    disp_dip204spi.o(.constdata__ZTV17cHwDisp_DIP204spi) refers to disp_dip204spi.o(i._ZN17cHwDisp_DIP204spi5clearEv) for cHwDisp_DIP204spi::clear()
    disp_dip204spi.o(.constdata__ZTV17cHwDisp_DIP204spi) refers to disp_dip204spi.o(i._ZN17cHwDisp_DIP204spi7refreshEv) for cHwDisp_DIP204spi::refresh()
    disp_dip204spi.o(.constdata__ZTV17cHwDisp_DIP204spi) refers to disp_dip204spi.o(i._ZN17cHwDisp_DIP204spi11gotoTextPosEhh) for cHwDisp_DIP204spi::gotoTextPos(unsigned char, unsigned char)
    disp_dip204spi.o(.constdata__ZTV17cHwDisp_DIP204spi) refers to disp_dip204spi.o(i._ZN17cHwDisp_DIP204spi7putCharEc) for cHwDisp_DIP204spi::putChar(char)
    disp_dip204spi.o(.constdata__ZTV17cHwDisp_DIP204spi) refers to lib.o(i._ZN10cHwDisplay16getNumberOfLinesEv) for cHwDisplay::getNumberOfLines()
    disp_dip204spi.o(.constdata__ZTV17cHwDisp_DIP204spi) refers to lib.o(i._ZN10cHwDisplay18getNumberOfColumnsEv) for cHwDisplay::getNumberOfColumns()
    disp_dip204spi.o(.ARM.exidx) refers to disp_dip204spi.o(i._ZN17cHwDisp_DIP204spi7refreshEv) for i._ZN17cHwDisp_DIP204spi7refreshEv
    disp_dip204spi.o(.constdata__ZTI17cHwDisp_DIP204spi) refers to lib_rtti_impl.o(.constdata__ZTVN10__cxxabiv120__si_class_type_infoE) for vtable for __cxxabiv1::__si_class_type_info
    disp_dip204spi.o(.constdata__ZTI17cHwDisp_DIP204spi) refers to disp_dip204spi.o(.constdata__ZTS17cHwDisp_DIP204spi) for typeinfo name for cHwDisp_DIP204spi
    disp_dip204spi.o(.constdata__ZTI17cHwDisp_DIP204spi) refers to lib.o(.constdata__ZTI10cHwDisplay) for typeinfo for cHwDisplay
    lib_rtti_impl.o(.constdata__ZTVN10__cxxabiv123__fundamental_type_infoE) refers to lib_rtti_impl.o(.constdata__ZTIN10__cxxabiv123__fundamental_type_infoE) for typeinfo for __cxxabiv1::__fundamental_type_info
    lib_rtti_impl.o(.constdata__ZTVN10__cxxabiv123__fundamental_type_infoE) refers to lib_rtti_impl.o(i._ZN10__cxxabiv123__fundamental_type_infoD1Ev) for __cxxabiv1::__fundamental_type_info::~__fundamental_type_info()
    lib_rtti_impl.o(.constdata__ZTVN10__cxxabiv123__fundamental_type_infoE) refers to lib_rtti_impl.o(i._ZN10__cxxabiv123__fundamental_type_infoD0Ev) for __cxxabiv1::__fundamental_type_info::~__fundamental_type_info__deallocating()
    lib_rtti_impl.o(.constdata__ZTVN10__cxxabiv117__array_type_infoE) refers to lib_rtti_impl.o(.constdata__ZTIN10__cxxabiv117__array_type_infoE) for typeinfo for __cxxabiv1::__array_type_info
    lib_rtti_impl.o(.constdata__ZTVN10__cxxabiv117__array_type_infoE) refers to lib_rtti_impl.o(i._ZN10__cxxabiv117__array_type_infoD1Ev) for __cxxabiv1::__array_type_info::~__array_type_info()
    lib_rtti_impl.o(.constdata__ZTVN10__cxxabiv117__array_type_infoE) refers to lib_rtti_impl.o(i._ZN10__cxxabiv117__array_type_infoD0Ev) for __cxxabiv1::__array_type_info::~__array_type_info__deallocating()
    lib_rtti_impl.o(.constdata__ZTVN10__cxxabiv120__function_type_infoE) refers to lib_rtti_impl.o(.constdata__ZTIN10__cxxabiv120__function_type_infoE) for typeinfo for __cxxabiv1::__function_type_info
    lib_rtti_impl.o(.constdata__ZTVN10__cxxabiv120__function_type_infoE) refers to lib_rtti_impl.o(i._ZN10__cxxabiv120__function_type_infoD1Ev) for __cxxabiv1::__function_type_info::~__function_type_info()
    lib_rtti_impl.o(.constdata__ZTVN10__cxxabiv120__function_type_infoE) refers to lib_rtti_impl.o(i._ZN10__cxxabiv120__function_type_infoD0Ev) for __cxxabiv1::__function_type_info::~__function_type_info__deallocating()
    lib_rtti_impl.o(.constdata__ZTVN10__cxxabiv116__enum_type_infoE) refers to lib_rtti_impl.o(.constdata__ZTIN10__cxxabiv116__enum_type_infoE) for typeinfo for __cxxabiv1::__enum_type_info
    lib_rtti_impl.o(.constdata__ZTVN10__cxxabiv116__enum_type_infoE) refers to lib_rtti_impl.o(i._ZN10__cxxabiv116__enum_type_infoD1Ev) for __cxxabiv1::__enum_type_info::~__enum_type_info()
    lib_rtti_impl.o(.constdata__ZTVN10__cxxabiv116__enum_type_infoE) refers to lib_rtti_impl.o(i._ZN10__cxxabiv116__enum_type_infoD0Ev) for __cxxabiv1::__enum_type_info::~__enum_type_info__deallocating()
    lib_rtti_impl.o(.constdata__ZTVN10__cxxabiv117__class_type_infoE) refers to lib_rtti_impl.o(.constdata__ZTIN10__cxxabiv117__class_type_infoE) for typeinfo for __cxxabiv1::__class_type_info
    lib_rtti_impl.o(.constdata__ZTVN10__cxxabiv117__class_type_infoE) refers to lib_rtti_impl.o(i._ZN10__cxxabiv117__class_type_infoD1Ev) for __cxxabiv1::__class_type_info::~__class_type_info()
    lib_rtti_impl.o(.constdata__ZTVN10__cxxabiv117__class_type_infoE) refers to lib_rtti_impl.o(i._ZN10__cxxabiv117__class_type_infoD0Ev) for __cxxabiv1::__class_type_info::~__class_type_info__deallocating()
    lib_rtti_impl.o(.constdata__ZTVN10__cxxabiv120__si_class_type_infoE) refers to lib_rtti_impl.o(.constdata__ZTIN10__cxxabiv120__si_class_type_infoE) for typeinfo for __cxxabiv1::__si_class_type_info
    lib_rtti_impl.o(.constdata__ZTVN10__cxxabiv120__si_class_type_infoE) refers to lib_rtti_impl.o(i._ZN10__cxxabiv120__si_class_type_infoD1Ev) for __cxxabiv1::__si_class_type_info::~__si_class_type_info()
    lib_rtti_impl.o(.constdata__ZTVN10__cxxabiv120__si_class_type_infoE) refers to lib_rtti_impl.o(i._ZN10__cxxabiv120__si_class_type_infoD0Ev) for __cxxabiv1::__si_class_type_info::~__si_class_type_info__deallocating()
    lib_rtti_impl.o(.constdata__ZTVN10__cxxabiv121__vmi_class_type_infoE) refers to lib_rtti_impl.o(.constdata__ZTIN10__cxxabiv121__vmi_class_type_infoE) for typeinfo for __cxxabiv1::__vmi_class_type_info
    lib_rtti_impl.o(.constdata__ZTVN10__cxxabiv121__vmi_class_type_infoE) refers to lib_rtti_impl.o(i._ZN10__cxxabiv121__vmi_class_type_infoD1Ev) for __cxxabiv1::__vmi_class_type_info::~__vmi_class_type_info()
    lib_rtti_impl.o(.constdata__ZTVN10__cxxabiv121__vmi_class_type_infoE) refers to lib_rtti_impl.o(i._ZN10__cxxabiv121__vmi_class_type_infoD0Ev) for __cxxabiv1::__vmi_class_type_info::~__vmi_class_type_info__deallocating()
    lib_rtti_impl.o(.constdata__ZTVN10__cxxabiv117__pbase_type_infoE) refers to lib_rtti_impl.o(.constdata__ZTIN10__cxxabiv117__pbase_type_infoE) for typeinfo for __cxxabiv1::__pbase_type_info
    lib_rtti_impl.o(.constdata__ZTVN10__cxxabiv117__pbase_type_infoE) refers to lib_rtti_impl.o(i._ZN10__cxxabiv117__pbase_type_infoD1Ev) for __cxxabiv1::__pbase_type_info::~__pbase_type_info()
    lib_rtti_impl.o(.constdata__ZTVN10__cxxabiv117__pbase_type_infoE) refers to lib_rtti_impl.o(i._ZN10__cxxabiv117__pbase_type_infoD0Ev) for __cxxabiv1::__pbase_type_info::~__pbase_type_info__deallocating()
    lib_rtti_impl.o(.constdata__ZTVN10__cxxabiv119__pointer_type_infoE) refers to lib_rtti_impl.o(.constdata__ZTIN10__cxxabiv119__pointer_type_infoE) for typeinfo for __cxxabiv1::__pointer_type_info
    lib_rtti_impl.o(.constdata__ZTVN10__cxxabiv119__pointer_type_infoE) refers to lib_rtti_impl.o(i._ZN10__cxxabiv119__pointer_type_infoD1Ev) for __cxxabiv1::__pointer_type_info::~__pointer_type_info()
    lib_rtti_impl.o(.constdata__ZTVN10__cxxabiv119__pointer_type_infoE) refers to lib_rtti_impl.o(i._ZN10__cxxabiv119__pointer_type_infoD0Ev) for __cxxabiv1::__pointer_type_info::~__pointer_type_info__deallocating()
    lib_rtti_impl.o(.constdata__ZTVN10__cxxabiv129__pointer_to_member_type_infoE) refers to lib_rtti_impl.o(.constdata__ZTIN10__cxxabiv129__pointer_to_member_type_infoE) for typeinfo for __cxxabiv1::__pointer_to_member_type_info
    lib_rtti_impl.o(.constdata__ZTVN10__cxxabiv129__pointer_to_member_type_infoE) refers to lib_rtti_impl.o(i._ZN10__cxxabiv129__pointer_to_member_type_infoD1Ev) for __cxxabiv1::__pointer_to_member_type_info::~__pointer_to_member_type_info()
    lib_rtti_impl.o(.constdata__ZTVN10__cxxabiv129__pointer_to_member_type_infoE) refers to lib_rtti_impl.o(i._ZN10__cxxabiv129__pointer_to_member_type_infoD0Ev) for __cxxabiv1::__pointer_to_member_type_info::~__pointer_to_member_type_info__deallocating()
    lib_rtti_impl.o(.ARM.exidx) refers to lib_rtti_impl.o(i._ZNSt9type_infodlEPv) for i._ZNSt9type_infodlEPv
    lib_rtti_impl.o(.constdata__ZTIN10__cxxabiv123__fundamental_type_infoE) refers to lib_rtti_impl.o(.constdata__ZTVN10__cxxabiv120__si_class_type_infoE) for vtable for __cxxabiv1::__si_class_type_info
    lib_rtti_impl.o(.constdata__ZTIN10__cxxabiv123__fundamental_type_infoE) refers to lib_rtti_impl.o(.constdata__ZTSN10__cxxabiv123__fundamental_type_infoE) for typeinfo name for __cxxabiv1::__fundamental_type_info
    lib_rtti_impl.o(.constdata__ZTIN10__cxxabiv123__fundamental_type_infoE) refers to type_info_dtor.o(.constdata__ZTISt9type_info) for typeinfo for std::type_info
    lib_rtti_impl.o(.constdata__ZTIN10__cxxabiv117__array_type_infoE) refers to lib_rtti_impl.o(.constdata__ZTVN10__cxxabiv120__si_class_type_infoE) for vtable for __cxxabiv1::__si_class_type_info
    lib_rtti_impl.o(.constdata__ZTIN10__cxxabiv117__array_type_infoE) refers to lib_rtti_impl.o(.constdata__ZTSN10__cxxabiv117__array_type_infoE) for typeinfo name for __cxxabiv1::__array_type_info
    lib_rtti_impl.o(.constdata__ZTIN10__cxxabiv117__array_type_infoE) refers to type_info_dtor.o(.constdata__ZTISt9type_info) for typeinfo for std::type_info
    lib_rtti_impl.o(.constdata__ZTIN10__cxxabiv120__function_type_infoE) refers to lib_rtti_impl.o(.constdata__ZTVN10__cxxabiv120__si_class_type_infoE) for vtable for __cxxabiv1::__si_class_type_info
    lib_rtti_impl.o(.constdata__ZTIN10__cxxabiv120__function_type_infoE) refers to lib_rtti_impl.o(.constdata__ZTSN10__cxxabiv120__function_type_infoE) for typeinfo name for __cxxabiv1::__function_type_info
    lib_rtti_impl.o(.constdata__ZTIN10__cxxabiv120__function_type_infoE) refers to type_info_dtor.o(.constdata__ZTISt9type_info) for typeinfo for std::type_info
    lib_rtti_impl.o(.constdata__ZTIN10__cxxabiv116__enum_type_infoE) refers to lib_rtti_impl.o(.constdata__ZTVN10__cxxabiv120__si_class_type_infoE) for vtable for __cxxabiv1::__si_class_type_info
    lib_rtti_impl.o(.constdata__ZTIN10__cxxabiv116__enum_type_infoE) refers to lib_rtti_impl.o(.constdata__ZTSN10__cxxabiv116__enum_type_infoE) for typeinfo name for __cxxabiv1::__enum_type_info
    lib_rtti_impl.o(.constdata__ZTIN10__cxxabiv116__enum_type_infoE) refers to type_info_dtor.o(.constdata__ZTISt9type_info) for typeinfo for std::type_info
    lib_rtti_impl.o(.constdata__ZTIN10__cxxabiv117__class_type_infoE) refers to lib_rtti_impl.o(.constdata__ZTVN10__cxxabiv120__si_class_type_infoE) for vtable for __cxxabiv1::__si_class_type_info
    lib_rtti_impl.o(.constdata__ZTIN10__cxxabiv117__class_type_infoE) refers to lib_rtti_impl.o(.constdata__ZTSN10__cxxabiv117__class_type_infoE) for typeinfo name for __cxxabiv1::__class_type_info
    lib_rtti_impl.o(.constdata__ZTIN10__cxxabiv117__class_type_infoE) refers to type_info_dtor.o(.constdata__ZTISt9type_info) for typeinfo for std::type_info
    lib_rtti_impl.o(.constdata__ZTIN10__cxxabiv120__si_class_type_infoE) refers to lib_rtti_impl.o(.constdata__ZTVN10__cxxabiv120__si_class_type_infoE) for vtable for __cxxabiv1::__si_class_type_info
    lib_rtti_impl.o(.constdata__ZTIN10__cxxabiv120__si_class_type_infoE) refers to lib_rtti_impl.o(.constdata__ZTSN10__cxxabiv120__si_class_type_infoE) for typeinfo name for __cxxabiv1::__si_class_type_info
    lib_rtti_impl.o(.constdata__ZTIN10__cxxabiv120__si_class_type_infoE) refers to lib_rtti_impl.o(.constdata__ZTIN10__cxxabiv117__class_type_infoE) for typeinfo for __cxxabiv1::__class_type_info
    lib_rtti_impl.o(.constdata__ZTIN10__cxxabiv121__vmi_class_type_infoE) refers to lib_rtti_impl.o(.constdata__ZTVN10__cxxabiv120__si_class_type_infoE) for vtable for __cxxabiv1::__si_class_type_info
    lib_rtti_impl.o(.constdata__ZTIN10__cxxabiv121__vmi_class_type_infoE) refers to lib_rtti_impl.o(.constdata__ZTSN10__cxxabiv121__vmi_class_type_infoE) for typeinfo name for __cxxabiv1::__vmi_class_type_info
    lib_rtti_impl.o(.constdata__ZTIN10__cxxabiv121__vmi_class_type_infoE) refers to lib_rtti_impl.o(.constdata__ZTIN10__cxxabiv117__class_type_infoE) for typeinfo for __cxxabiv1::__class_type_info
    lib_rtti_impl.o(.constdata__ZTIN10__cxxabiv117__pbase_type_infoE) refers to lib_rtti_impl.o(.constdata__ZTVN10__cxxabiv120__si_class_type_infoE) for vtable for __cxxabiv1::__si_class_type_info
    lib_rtti_impl.o(.constdata__ZTIN10__cxxabiv117__pbase_type_infoE) refers to lib_rtti_impl.o(.constdata__ZTSN10__cxxabiv117__pbase_type_infoE) for typeinfo name for __cxxabiv1::__pbase_type_info
    lib_rtti_impl.o(.constdata__ZTIN10__cxxabiv117__pbase_type_infoE) refers to type_info_dtor.o(.constdata__ZTISt9type_info) for typeinfo for std::type_info
    lib_rtti_impl.o(.constdata__ZTIN10__cxxabiv119__pointer_type_infoE) refers to lib_rtti_impl.o(.constdata__ZTVN10__cxxabiv120__si_class_type_infoE) for vtable for __cxxabiv1::__si_class_type_info
    lib_rtti_impl.o(.constdata__ZTIN10__cxxabiv119__pointer_type_infoE) refers to lib_rtti_impl.o(.constdata__ZTSN10__cxxabiv119__pointer_type_infoE) for typeinfo name for __cxxabiv1::__pointer_type_info
    lib_rtti_impl.o(.constdata__ZTIN10__cxxabiv119__pointer_type_infoE) refers to lib_rtti_impl.o(.constdata__ZTIN10__cxxabiv117__pbase_type_infoE) for typeinfo for __cxxabiv1::__pbase_type_info
    lib_rtti_impl.o(.constdata__ZTIN10__cxxabiv129__pointer_to_member_type_infoE) refers to lib_rtti_impl.o(.constdata__ZTVN10__cxxabiv120__si_class_type_infoE) for vtable for __cxxabiv1::__si_class_type_info
    lib_rtti_impl.o(.constdata__ZTIN10__cxxabiv129__pointer_to_member_type_infoE) refers to lib_rtti_impl.o(.constdata__ZTSN10__cxxabiv129__pointer_to_member_type_infoE) for typeinfo name for __cxxabiv1::__pointer_to_member_type_info
    lib_rtti_impl.o(.constdata__ZTIN10__cxxabiv129__pointer_to_member_type_infoE) refers to lib_rtti_impl.o(.constdata__ZTIN10__cxxabiv117__pbase_type_infoE) for typeinfo for __cxxabiv1::__pbase_type_info
    lib_rtti_impl.o(i.__ARM_common_noexcept_landing) refers to arm_exceptions_callterm.o(.text) for __cxa_call_terminate
    lib_rtti_impl.o(.ARM.exidx) refers to lib_rtti_impl.o(i.__ARM_common_noexcept_landing) for i.__ARM_common_noexcept_landing
    type_info_dtor.o(.constdata__ZTVSt9type_info) refers to type_info_dtor.o(.constdata__ZTISt9type_info) for typeinfo for std::type_info
    type_info_dtor.o(.constdata__ZTVSt9type_info) refers to type_info_dtor.o(i._ZNSt9type_infoD1Ev) for std::type_info::~type_info()
    type_info_dtor.o(.constdata__ZTVSt9type_info) refers to type_info_dtor.o(i._ZNSt9type_infoD0Ev) for std::type_info::~type_info__deallocating()
    type_info_dtor.o(.constdata__ZTISt9type_info) refers to lib_rtti_impl.o(.constdata__ZTVN10__cxxabiv117__class_type_infoE) for vtable for __cxxabiv1::__class_type_info
    type_info_dtor.o(.constdata__ZTISt9type_info) refers to type_info_dtor.o(.constdata__ZTSSt9type_info) for typeinfo name for std::type_info


==============================================================================

Removing Unused input sections from the image.

    Removing main.o(.rev16_text), (4 bytes).
    Removing main.o(.revsh_text), (4 bytes).
    Removing main.o(.rrx_text), (6 bytes).
    Removing main.o(.ARM.exidx), (8 bytes).
    Removing main.o(.ARM.exidx), (8 bytes).
    Removing lib.o(.rev16_text), (4 bytes).
    Removing lib.o(.revsh_text), (4 bytes).
    Removing lib.o(.rrx_text), (6 bytes).
    Removing lib.o(i._Z4htonj), (26 bytes).
    Removing lib.o(i._Z4htont), (12 bytes).
    Removing lib.o(i._Z4ntohj), (12 bytes).
    Removing lib.o(i._Z4ntoht), (12 bytes).
    Removing lib.o(i._Z8ChecksumPhtj), (64 bytes).
    Removing lib.o(i._ZN10cDevAnalogC1Ehff), (8 bytes).
    Removing lib.o(i._ZN10cDevMemory4readEPhtt), (44 bytes).
    Removing lib.o(i._ZN10cDevMemory5clearEv), (32 bytes).
    Removing lib.o(i._ZN10cDevMemory5writeEPhtt), (68 bytes).
    Removing lib.o(i._ZN10cDevMemory7isValidEv), (26 bytes).
    Removing lib.o(i._ZN10cDevMemory8allocateEt), (12 bytes).
    Removing lib.o(i._ZN10cDevMemory8setValidEv), (34 bytes).
    Removing lib.o(i._ZN10cDevMemoryC1ER9cHwMemoryt), (10 bytes).
    Removing lib.o(i._ZN10cDevTextIO6printfEPKcz), (52 bytes).
    Removing lib.o(i._ZN10cDevTextIO9getStringEv), (232 bytes).
    Removing lib.o(i._ZN10cDevTextIOC2EhhPKcS1_), (68 bytes).
    Removing lib.o(i._ZN10cHwTimer_N6setPWMEth), (50 bytes).
    Removing lib.o(i._ZN10cHwTimer_N9enablePWMEhN8cHwTimer4ModeE), (350 bytes).
    Removing lib.o(i._ZN10cHwUSBctrl2inEv), (52 bytes).
    Removing lib.o(i._ZN10cHwUSBctrl3outEv), (54 bytes).
    Removing lib.o(i._ZN10cHwUSBctrl5setupEv), (84 bytes).
    Removing lib.o(i._ZN10cHwUSBctrlC1ER6cHwUSB), (96 bytes).
    Removing lib.o(i._ZN10cHwUSBdesc16getDescriptorHIDEhhh), (68 bytes).
    Removing lib.o(i._ZN10cHwUSBdesc17getMaxPacketSize0Ev), (56 bytes).
    Removing lib.o(i._ZN10cHwUSBdesc19getDescriptorConfigEh), (62 bytes).
    Removing lib.o(i._ZN10cHwUSBdesc19getDescriptorDeviceEv), (60 bytes).
    Removing lib.o(i._ZN10cHwUSBdesc19getDescriptorStringEh), (62 bytes).
    Removing lib.o(i._ZN10cHwUSBdesc21getConfigDeviceStatusEh), (88 bytes).
    Removing lib.o(i._ZN10cHwUSBdesc21getDescriptorEndpointEhhh), (68 bytes).
    Removing lib.o(i._ZN10cHwUSBdesc22getDescriptorHIDreportEhhh), (72 bytes).
    Removing lib.o(i._ZN10cHwUSBdesc22getDescriptorInterfaceEhh), (64 bytes).
    Removing lib.o(i._ZN11cDevDigital7setModeENS_4ModeE), (18 bytes).
    Removing lib.o(i._ZN11cHwEthernet5getIPEv), (72 bytes).
    Removing lib.o(i._ZN11cHwEthernet5setIPEP6cNetIP), (6 bytes).
    Removing lib.o(i._ZN11cHwEthernet6setARPEP7cNetARP), (6 bytes).
    Removing lib.o(i._ZN11cHwEthernet6updateEv), (84 bytes).
    Removing lib.o(i._ZN11cHwEthernet7isNewIPEv), (40 bytes).
    Removing lib.o(i._ZN11cHwEthernetC2ERK8cNetAddrILh6EE), (28 bytes).
    Removing lib.o(i._ZN11cHwI2CslaveC1ERNS_11DataHandlerEh), (6 bytes).
    Removing lib.o(i._ZN11cHwRTOS_MCUC1Ev), (2 bytes).
    Removing lib.o(i._ZN11cHwSPIslaveC1ERNS_11DataHandlerE), (4 bytes).
    Removing lib.o(i._ZN12cDevAnalogIn9calibrateEffff), (76 bytes).
    Removing lib.o(i._ZN12cDevAnalogInC2Ehff), (64 bytes).
    Removing lib.o(i._ZN12cHwEncoder_N3getEv), (18 bytes).
    Removing lib.o(i._ZN12cHwEncoder_NC1ENS_7TimerIdEN10cHwEncoder4ModeE), (268 bytes).
    Removing lib.o(i._ZN12cHwI2Cmaster4readEhPhhS0_h), (170 bytes).
    Removing lib.o(i._ZN12cHwI2Cmaster5writeEhPhhS0_h), (132 bytes).
    Removing lib.o(i._ZN12cHwI2Cmaster6Device4readEPhh), (38 bytes).
    Removing lib.o(i._ZN12cHwI2Cmaster6Device4readEh), (46 bytes).
    Removing lib.o(i._ZN12cHwI2Cmaster6Device4readEhPhh), (38 bytes).
    Removing lib.o(i._ZN12cHwI2Cmaster6Device4readEt), (58 bytes).
    Removing lib.o(i._ZN12cHwI2Cmaster6Device4readEtPhh), (50 bytes).
    Removing lib.o(i._ZN12cHwI2Cmaster6Device4readEv), (42 bytes).
    Removing lib.o(i._ZN12cHwI2Cmaster6Device5writeEPhh), (40 bytes).
    Removing lib.o(i._ZN12cHwI2Cmaster6Device5writeEh), (36 bytes).
    Removing lib.o(i._ZN12cHwI2Cmaster6Device5writeEhPhh), (38 bytes).
    Removing lib.o(i._ZN12cHwI2Cmaster6Device5writeEhh), (38 bytes).
    Removing lib.o(i._ZN12cHwI2Cmaster6Device5writeEtPhh), (50 bytes).
    Removing lib.o(i._ZN12cHwI2Cmaster6Device5writeEth), (52 bytes).
    Removing lib.o(i._ZN12cHwI2Cmaster6Device7isErrorEv), (10 bytes).
    Removing lib.o(i._ZN12cHwI2CmasterC2Eh), (16 bytes).
    Removing lib.o(i._ZN12cHwSPImaster6Device10transceiveEh), (42 bytes).
    Removing lib.o(i._ZN12cHwUSBinterfC2ER6cHwUSBhh), (204 bytes).
    Removing lib.o(i._ZN12cTaskHandler4TaskC2ERS_), (40 bytes).
    Removing lib.o(i._ZN12cTaskHandler5Timer12getTimeOfTicEv), (14 bytes).
    Removing lib.o(i._ZN12cTaskHandler5Timer7getTicsEv), (14 bytes).
    Removing lib.o(i._ZN12cTaskHandler5TimerC1ERS_tt), (48 bytes).
    Removing lib.o(i._ZN12cTaskHandler7addTaskEPNS_4TaskE), (34 bytes).
    Removing lib.o(i._ZN12cTaskHandlerC1EP8cHwTimer), (80 bytes).
    Removing lib.o(i._ZN12cTaskHandlerC1EPS_), (72 bytes).
    Removing lib.o(i._ZN13cDevAnalogOut3setEf), (92 bytes).
    Removing lib.o(i._ZN13cDevAnalogOutC2Ehff), (92 bytes).
    Removing lib.o(i._ZN13cHwMemory_RAM4lockEv), (2 bytes).
    Removing lib.o(i._ZN13cHwMemory_RAM6unlockEv), (2 bytes).
    Removing lib.o(i._ZN13cHwMemory_RAMC1Ev), (52 bytes).
    Removing lib.o(i._ZN13cNetTransport6Socket11getRemoteIPEv), (6 bytes).
    Removing lib.o(i._ZN13cNetTransport6SocketC2ERS_R15cNetApplication8cNetAddrILh4EEt), (136 bytes).
    Removing lib.o(i._ZN13cNetTransport6updateEv), (36 bytes).
    Removing lib.o(i._ZN13cNetTransport7processEv), (36 bytes).
    Removing lib.o(i._ZN13cNetTransport7timeoutEv), (36 bytes).
    Removing lib.o(i._ZN13cNetTransportC2Ev), (24 bytes).
    Removing lib.o(i._ZN14cHwDisplayFont7setCharEh), (42 bytes).
    Removing lib.o(i._ZN14cHwDisplayFont8getPixelEhh), (48 bytes).
    Removing lib.o(i._ZN14cHwDisplayFontC1EPK24cHwDisplayFontPropertiesPKh), (10 bytes).
    Removing lib.o(i._ZN14cHwI2Cmaster_NC1ENS_6I2C_IDEN12cHwI2Cmaster4MODEEh), (236 bytes).
    Removing lib.o(i._ZN14cHwSPImaster_N17transceiveByteExtEhh), (6 bytes).
    Removing lib.o(i._ZN14cHwUSBendpoint10clrFeatureEv), (18 bytes).
    Removing lib.o(i._ZN14cHwUSBendpoint12writeDataLenERK12cDataPointert), (68 bytes).
    Removing lib.o(i._ZN14cHwUSBendpoint15readAcknowledgeEv), (20 bytes).
    Removing lib.o(i._ZN14cHwUSBendpoint16setConfigurationEv), (20 bytes).
    Removing lib.o(i._ZN14cHwUSBendpoint16writeAcknowledgeEv), (20 bytes).
    Removing lib.o(i._ZN14cHwUSBendpoint2inEv), (50 bytes).
    Removing lib.o(i._ZN14cHwUSBendpoint3outEv), (60 bytes).
    Removing lib.o(i._ZN14cHwUSBendpoint5stallEv), (16 bytes).
    Removing lib.o(i._ZN14cHwUSBendpoint6inCtrlEv), (40 bytes).
    Removing lib.o(i._ZN14cHwUSBendpoint7outCtrlEv), (46 bytes).
    Removing lib.o(i._ZN14cHwUSBendpoint8clrStallEv), (16 bytes).
    Removing lib.o(i._ZN14cHwUSBendpoint8readDataEv), (60 bytes).
    Removing lib.o(i._ZN14cHwUSBendpoint9writeDataERK12cDataPointer), (24 bytes).
    Removing lib.o(i._ZN14cHwUSBendpoint9writeDataEv), (68 bytes).
    Removing lib.o(i._ZN14cHwUSBendpointC1ER6cHwUSBP12cHwUSBinterfhth), (48 bytes).
    Removing lib.o(i._ZN14cHwUSBendpointC1ER6cHwUSBht), (42 bytes).
    Removing lib.o(i._ZN15cDevAnalogInADC6enableEv), (18 bytes).
    Removing lib.o(i._ZN15cDevAnalogInADC6getRawEv), (16 bytes).
    Removing lib.o(i._ZN15cDevAnalogInADCC1ER6cHwADChffh), (60 bytes).
    Removing lib.o(i._ZN15cDevDisplayChar5clearEv), (14 bytes).
    Removing lib.o(i._ZN15cDevDisplayChar6printfEhhPKc), (52 bytes).
    Removing lib.o(i._ZN15cDevTextIO_UARTC1ER7cHwUARThhPKcS3_), (52 bytes).
    Removing lib.o(i._ZN15cHwMemory_Flash4lockEv), (20 bytes).
    Removing lib.o(i._ZN15cHwMemory_Flash5clearEj), (136 bytes).
    Removing lib.o(i._ZN15cHwMemory_Flash6unlockEv), (36 bytes).
    Removing lib.o(i._ZN15cHwMemory_Flash8readByteEj), (20 bytes).
    Removing lib.o(i._ZN15cHwMemory_Flash9writeByteEjh), (140 bytes).
    Removing lib.o(i._ZN15cHwMemory_FlashC1EPjj), (40 bytes).
    Removing lib.o(i._ZN16cDevAnalogOutDAC6setRawEt), (20 bytes).
    Removing lib.o(i._ZN16cDevAnalogOutDACC1ER6cHwDAChff), (56 bytes).
    Removing lib.o(i._ZN16cDevAnalogOutPWM6setRawEt), (20 bytes).
    Removing lib.o(i._ZN16cDevAnalogOutPWMC1ER8cHwTimerNS0_4ModeEhff), (60 bytes).
    Removing lib.o(i._ZN16cHwMemory_EEPROM4lockEv), (20 bytes).
    Removing lib.o(i._ZN16cHwMemory_EEPROM6unlockEv), (36 bytes).
    Removing lib.o(i._ZN16cHwMemory_EEPROM8readByteEj), (8 bytes).
    Removing lib.o(i._ZN16cHwMemory_EEPROM9writeByteEjh), (52 bytes).
    Removing lib.o(i._ZN16cHwMemory_EEPROMC1Ejj), (44 bytes).
    Removing lib.o(i._ZN17cHwDisplayGraphic11gotoTextPosEhh), (44 bytes).
    Removing lib.o(i._ZN17cHwDisplayGraphic12gotoPixelPosEtt), (6 bytes).
    Removing lib.o(i._ZN17cHwDisplayGraphic12putRectangleEtttt), (74 bytes).
    Removing lib.o(i._ZN17cHwDisplayGraphic12setBackColorEt), (4 bytes).
    Removing lib.o(i._ZN17cHwDisplayGraphic12setTextColorEt), (4 bytes).
    Removing lib.o(i._ZN17cHwDisplayGraphic13setPaintColorEt), (4 bytes).
    Removing lib.o(i._ZN17cHwDisplayGraphic7putCharEc), (206 bytes).
    Removing lib.o(i._ZN17cHwDisplayGraphic7setFontE14cHwDisplayFonth), (20 bytes).
    Removing lib.o(i._ZN17cHwDisplayGraphic7setZoomEh), (6 bytes).
    Removing lib.o(i._ZN17cHwDisplayGraphic8putPixelEtt), (28 bytes).
    Removing lib.o(i._ZN17cHwDisplayGraphic9putBitmapEttttPKt), (86 bytes).
    Removing lib.o(i._ZN17cHwDisplayGraphicC2E14cHwDisplayFonth), (68 bytes).
    Removing lib.o(i._ZN17cHwI2Cmaster_Emul11readByteAckEv), (142 bytes).
    Removing lib.o(i._ZN17cHwI2Cmaster_Emul11waitForAcknEv), (44 bytes).
    Removing lib.o(i._ZN17cHwI2Cmaster_Emul12readByteNackEv), (158 bytes).
    Removing lib.o(i._ZN17cHwI2Cmaster_Emul4stopEv), (86 bytes).
    Removing lib.o(i._ZN17cHwI2Cmaster_Emul4waitEv), (12 bytes).
    Removing lib.o(i._ZN17cHwI2Cmaster_Emul5startEv), (78 bytes).
    Removing lib.o(i._ZN17cHwI2Cmaster_Emul8sendAddrEh), (18 bytes).
    Removing lib.o(i._ZN17cHwI2Cmaster_Emul9writeByteEh), (160 bytes).
    Removing lib.o(i._ZN17cHwI2Cmaster_EmulC1ERN7cHwPort3PinES2_N12cHwI2Cmaster4MODEE), (124 bytes).
    Removing lib.o(i._ZN18cDevControlPointer3getEv), (274 bytes).
    Removing lib.o(i._ZN18cDevControlPointerC1ER8cHwTouch), (24 bytes).
    Removing lib.o(i._ZN18cDevDisplayGraphic10drawBitmapEttttPKt), (40 bytes).
    Removing lib.o(i._ZN18cDevDisplayGraphic10drawCircleEtttt), (166 bytes).
    Removing lib.o(i._ZN18cDevDisplayGraphic12setBackColorEt), (18 bytes).
    Removing lib.o(i._ZN18cDevDisplayGraphic12setTextColorEt), (18 bytes).
    Removing lib.o(i._ZN18cDevDisplayGraphic13drawRectangleEttttt), (50 bytes).
    Removing lib.o(i._ZN18cDevDisplayGraphic14getDefaultFontEv), (18 bytes).
    Removing lib.o(i._ZN18cDevDisplayGraphic5clearEv), (14 bytes).
    Removing lib.o(i._ZN18cDevDisplayGraphic6printfEhhhPKcz), (98 bytes).
    Removing lib.o(i._ZN18cDevDisplayGraphic7refreshEv), (14 bytes).
    Removing lib.o(i._ZN18cDevDisplayGraphic7setFontE14cHwDisplayFonth), (26 bytes).
    Removing lib.o(i._ZN18cDevDisplayGraphic7setZoomEh), (18 bytes).
    Removing lib.o(i._ZN18cDevDisplayGraphic8drawLineEtttttt), (414 bytes).
    Removing lib.o(i._ZN18cDevDisplayGraphic8drawTextEttPKc), (52 bytes).
    Removing lib.o(i._ZN18cDevDisplayGraphic8drawTextEtthPKcz), (98 bytes).
    Removing lib.o(i._ZN18cDevDisplayGraphic9drawFrameEtttttt), (114 bytes).
    Removing lib.o(i._ZN18cDevDisplayGraphic9drawPixelEttt), (38 bytes).
    Removing lib.o(i._ZN18cDevDisplayGraphicC1ER17cHwDisplayGraphic), (36 bytes).
    Removing lib.o(i._ZN20cDevAnalogOutPWMemul6setRawEt), (32 bytes).
    Removing lib.o(i._ZN20cDevAnalogOutPWMemul6updateEv), (66 bytes).
    Removing lib.o(i._ZN20cDevAnalogOutPWMemulC1ER8cHwTimerR11cDevDigitalhff), (112 bytes).
    Removing lib.o(i._ZN20cDevDigitalIndicator6updateEv), (130 bytes).
    Removing lib.o(i._ZN20cDevDigitalIndicatorC1ER11cDevDigitalR8cHwTimer), (148 bytes).
    Removing lib.o(i._ZN26cDevControlEncoderJoystick12getIncrementEv), (102 bytes).
    Removing lib.o(i._ZN26cDevControlEncoderJoystickC1EP11cDevDigitalS1_S1_P8cHwTimert), (92 bytes).
    Removing lib.o(i._ZN4cCRCC1ENS_4MODEEtt), (78 bytes).
    Removing lib.o(i._ZN4cCRCD1Ev), (26 bytes).
    Removing lib.o(i._ZN4cCRCclEPKhj), (70 bytes).
    Removing lib.o(i._ZN4cCRCclEh), (50 bytes).
    Removing lib.o(i._ZN5cList4Item7getNextEv), (6 bytes).
    Removing lib.o(i._ZN5cList4Item7getPrevERS_), (48 bytes).
    Removing lib.o(i._ZN5cList8getFirstEv), (6 bytes).
    Removing lib.o(i._ZN5cListixEt), (24 bytes).
    Removing lib.o(i._ZN6cHwRTCC2Ev), (12 bytes).
    Removing lib.o(i._ZN6cHwUSB12eventHandlerEhh), (94 bytes).
    Removing lib.o(i._ZN6cHwUSBC2ER10cHwUSBdesc), (36 bytes).
    Removing lib.o(i._ZN6cNetIP6createE8cNetAddrILh6EES0_ILh4EEtt), (174 bytes).
    Removing lib.o(i._ZN6cNetIP6updateEv), (86 bytes).
    Removing lib.o(i._ZN6cNetIP7processEv), (96 bytes).
    Removing lib.o(i._ZN6cNetIPC1ER11cHwEthernetRK8cNetAddrILh4EER8cHwTimer), (144 bytes).
    Removing lib.o(i._ZN6cTimer3setEtt), (36 bytes).
    Removing lib.o(i._ZN6cTimer4stopEv), (6 bytes).
    Removing lib.o(i._ZN6cTimer5startEtt), (26 bytes).
    Removing lib.o(i._ZN6cTimer5startEv), (20 bytes).
    Removing lib.o(i._ZN6cTimer7timeoutEtt), (30 bytes).
    Removing lib.o(i._ZN6cTimer7timeoutEv), (58 bytes).
    Removing lib.o(i._ZN6cTimer9isRunningEv), (26 bytes).
    Removing lib.o(i._ZN6cTimerC2Ev), (16 bytes).
    Removing lib.o(i._ZN7cHwPort3PinC1ERS_hNS_4ModeE), (52 bytes).
    Removing lib.o(i._ZN7cHwUART12transmitByteEh), (54 bytes).
    Removing lib.o(i._ZN7cHwUART3getEPh), (34 bytes).
    Removing lib.o(i._ZN7cHwUART3getEv), (30 bytes).
    Removing lib.o(i._ZN7cHwUART3setEPKc), (28 bytes).
    Removing lib.o(i._ZN7cHwUART3setEPKhh), (34 bytes).
    Removing lib.o(i._ZN7cHwUART3setEh), (18 bytes).
    Removing lib.o(i._ZN7cHwUARTC2Ehh), (48 bytes).
    Removing lib.o(i._ZN7cNetARP6setTCPEP7cNetTCP), (4 bytes).
    Removing lib.o(i._ZN7cNetARP6setUDPEP7cNetUDP), (4 bytes).
    Removing lib.o(i._ZN7cNetARP7processEv), (218 bytes).
    Removing lib.o(i._ZN7cNetARP7requestER8cNetAddrILh4EE), (148 bytes).
    Removing lib.o(i._ZN7cNetARPC1ER11cHwEthernetR8cNetAddrILh4EE), (34 bytes).
    Removing lib.o(i._ZN7cNetTCP6Socket10fillBufferEc), (80 bytes).
    Removing lib.o(i._ZN7cNetTCP6Socket10getDataPtrEv), (12 bytes).
    Removing lib.o(i._ZN7cNetTCP6Socket11isConnectedEv), (26 bytes).
    Removing lib.o(i._ZN7cNetTCP6Socket13setDataLengthEt), (12 bytes).
    Removing lib.o(i._ZN7cNetTCP6Socket3getEPc), (42 bytes).
    Removing lib.o(i._ZN7cNetTCP6Socket4openE8cNetAddrILh4EEt), (208 bytes).
    Removing lib.o(i._ZN7cNetTCP6Socket4sendEv), (70 bytes).
    Removing lib.o(i._ZN7cNetTCP6Socket5clearEv), (14 bytes).
    Removing lib.o(i._ZN7cNetTCP6Socket5closeEv), (78 bytes).
    Removing lib.o(i._ZN7cNetTCP6Socket6updateEv), (76 bytes).
    Removing lib.o(i._ZN7cNetTCP6Socket7isReadyEv), (36 bytes).
    Removing lib.o(i._ZN7cNetTCP6Socket7processEv), (702 bytes).
    Removing lib.o(i._ZN7cNetTCP6Socket7timeoutEv), (82 bytes).
    Removing lib.o(i._ZN7cNetTCP6SocketC1ERS_R15cNetApplication8cNetAddrILh4EEt), (52 bytes).
    Removing lib.o(i._ZN7cNetTCP6createERNS_6SocketEt), (276 bytes).
    Removing lib.o(i._ZN7cNetTCP9handleARPE8cNetAddrILh4EES0_ILh6EE), (70 bytes).
    Removing lib.o(i._ZN7cNetTCPC1ER6cNetIP), (60 bytes).
    Removing lib.o(i._ZN7cNetUDP6Socket10fillBufferEc), (80 bytes).
    Removing lib.o(i._ZN7cNetUDP6Socket10getDataPtrEv), (12 bytes).
    Removing lib.o(i._ZN7cNetUDP6Socket11isConnectedEv), (18 bytes).
    Removing lib.o(i._ZN7cNetUDP6Socket13setDataLengthEt), (12 bytes).
    Removing lib.o(i._ZN7cNetUDP6Socket3getEPc), (42 bytes).
    Removing lib.o(i._ZN7cNetUDP6Socket4openE8cNetAddrILh4EEt), (96 bytes).
    Removing lib.o(i._ZN7cNetUDP6Socket4sendEv), (36 bytes).
    Removing lib.o(i._ZN7cNetUDP6Socket5clearEv), (14 bytes).
    Removing lib.o(i._ZN7cNetUDP6Socket5closeEv), (8 bytes).
    Removing lib.o(i._ZN7cNetUDP6Socket6updateEv), (36 bytes).
    Removing lib.o(i._ZN7cNetUDP6Socket7isReadyEv), (36 bytes).
    Removing lib.o(i._ZN7cNetUDP6Socket7processEv), (176 bytes).
    Removing lib.o(i._ZN7cNetUDP6Socket7timeoutEv), (52 bytes).
    Removing lib.o(i._ZN7cNetUDP6SocketC1ERS_R15cNetApplication8cNetAddrILh4EEtt), (52 bytes).
    Removing lib.o(i._ZN7cNetUDP6createERNS_6SocketEt), (162 bytes).
    Removing lib.o(i._ZN7cNetUDP9handleARPE8cNetAddrILh4EES0_ILh6EE), (70 bytes).
    Removing lib.o(i._ZN7cNetUDPC1ER6cNetIP), (48 bytes).
    Removing lib.o(i._ZN7cSystem12feedWatchdogEv), (16 bytes).
    Removing lib.o(i._ZN7cSystem13delayMicroSecEt), (48 bytes).
    Removing lib.o(i._ZN7cSystem13delayMilliSecEt), (24 bytes).
    Removing lib.o(i._ZN7cSystem14enableWatchdogENS_4MODEE), (128 bytes).
    Removing lib.o(i._ZN7cSystem5resetEv), (12 bytes).
    Removing lib.o(i._ZN7cSystem5startEv), (10 bytes).
    Removing lib.o(i._ZN7cSystem8enterISREv), (16 bytes).
    Removing lib.o(i._ZN7cSystem8leaveISREv), (24 bytes).
    Removing lib.o(i._ZN8cHwRTC_03getERN6cHwRTC10PropertiesE), (300 bytes).
    Removing lib.o(i._ZN8cHwRTC_03setERKN6cHwRTC10PropertiesE), (260 bytes).
    Removing lib.o(i._ZN8cHwRTC_0C1Ev), (144 bytes).
    Removing lib.o(i._ZN8cHwTimer12getCycleTimeEv), (6 bytes).
    Removing lib.o(i._ZN8cHwTouchC2Ett), (24 bytes).
    Removing lib.o(i._ZN8cHwUSB_010clrStallEPEh), (2 bytes).
    Removing lib.o(i._ZN8cHwUSB_010setAddressEh), (52 bytes).
    Removing lib.o(i._ZN8cHwUSB_010setStallEPEh), (36 bytes).
    Removing lib.o(i._ZN8cHwUSB_05resetEv), (180 bytes).
    Removing lib.o(i._ZN8cHwUSB_05startEv), (48 bytes).
    Removing lib.o(i._ZN8cHwUSB_06readEPEhPht), (140 bytes).
    Removing lib.o(i._ZN8cHwUSB_07writeEPEhPht), (132 bytes).
    Removing lib.o(i._ZN8cHwUSB_08EPconfig10setSTAT_RXEj), (22 bytes).
    Removing lib.o(i._ZN8cHwUSB_08EPconfig10setSTAT_TXEj), (22 bytes).
    Removing lib.o(i._ZN8cHwUSB_08EPconfig4initEjjjt), (116 bytes).
    Removing lib.o(i._ZN8cHwUSB_08EPconfig8bdt_initEhht), (140 bytes).
    Removing lib.o(i._ZN8cHwUSB_08configEPEhth), (148 bytes).
    Removing lib.o(i._ZN8cHwUSB_09configureEh), (2 bytes).
    Removing lib.o(i._ZN8cHwUSB_0C1ER10cHwUSBdesc), (60 bytes).
    Removing lib.o(i._ZN8cNetDHCP13parse_optionsEPhi), (52 bytes).
    Removing lib.o(i._ZN8cNetDHCP4sendEh), (232 bytes).
    Removing lib.o(i._ZN8cNetDHCP7OnErrorEv), (2 bytes).
    Removing lib.o(i._ZN8cNetDHCP9OnReceiveEv), (152 bytes).
    Removing lib.o(i._ZN8cNetDHCP9OnTimeoutEv), (96 bytes).
    Removing lib.o(i._ZN8cNetDHCPC1ER7cNetUDPPKc), (132 bytes).
    Removing lib.o(i._ZN8cNetICMP7processEv), (164 bytes).
    Removing lib.o(i._ZN8cNetICMPC1ER6cNetIP), (10 bytes).
    Removing lib.o(i._ZN9cHwMemoryC2Ejh), (20 bytes).
    Removing lib.o(i._ZN9cHwPort_N7setModeEjN7cHwPort4ModeE), (46 bytes).
    Removing lib.o(i._ZN9cHwUART_NC1ENS_8USART_IdEN7cHwUART4ModeEhh), (368 bytes).
    Removing lib.o(i._ZNK14cHwDisplayFont12getCharWidthEv), (8 bytes).
    Removing lib.o(i._ZNK14cHwDisplayFont13getCharHeightEv), (8 bytes).
    Removing lib.o(i._ZThn16_N20cDevAnalogOutPWMemul6updateEv), (14 bytes).
    Removing lib.o(.ARM.exidx), (8 bytes).
    Removing lib.o(.ARM.exidx), (8 bytes).
    Removing lib.o(.ARM.exidx), (8 bytes).
    Removing lib.o(.ARM.exidx), (8 bytes).
    Removing lib.o(.ARM.exidx), (8 bytes).
    Removing lib.o(.ARM.exidx), (8 bytes).
    Removing lib.o(.ARM.exidx), (8 bytes).
    Removing lib.o(.ARM.exidx), (8 bytes).
    Removing lib.o(.ARM.exidx), (8 bytes).
    Removing lib.o(.ARM.exidx), (8 bytes).
    Removing lib.o(.ARM.exidx), (8 bytes).
    Removing lib.o(.ARM.exidx), (8 bytes).
    Removing lib.o(.ARM.exidx), (8 bytes).
    Removing lib.o(.ARM.exidx), (8 bytes).
    Removing lib.o(.ARM.exidx), (8 bytes).
    Removing lib.o(.ARM.exidx), (8 bytes).
    Removing lib.o(.ARM.exidx), (8 bytes).
    Removing lib.o(.ARM.exidx), (8 bytes).
    Removing lib.o(.ARM.exidx), (8 bytes).
    Removing lib.o(.ARM.exidx), (8 bytes).
    Removing lib.o(.ARM.exidx), (8 bytes).
    Removing lib.o(.ARM.exidx), (8 bytes).
    Removing lib.o(.ARM.exidx), (8 bytes).
    Removing lib.o(.ARM.exidx), (8 bytes).
    Removing lib.o(.ARM.exidx), (8 bytes).
    Removing lib.o(.ARM.exidx), (8 bytes).
    Removing lib.o(.ARM.exidx), (8 bytes).
    Removing lib.o(.ARM.exidx), (8 bytes).
    Removing lib.o(.ARM.exidx), (8 bytes).
    Removing lib.o(.ARM.exidx), (8 bytes).
    Removing lib.o(.ARM.exidx), (8 bytes).
    Removing lib.o(.ARM.exidx), (8 bytes).
    Removing lib.o(.ARM.exidx), (8 bytes).
    Removing lib.o(.ARM.exidx), (8 bytes).
    Removing lib.o(.ARM.exidx), (8 bytes).
    Removing lib.o(.ARM.exidx), (8 bytes).
    Removing lib.o(.ARM.exidx), (8 bytes).
    Removing lib.o(.ARM.exidx), (8 bytes).
    Removing lib.o(.ARM.exidx), (8 bytes).
    Removing lib.o(.ARM.exidx), (8 bytes).
    Removing lib.o(.ARM.exidx), (8 bytes).
    Removing lib.o(.ARM.exidx), (8 bytes).
    Removing lib.o(.ARM.exidx), (8 bytes).
    Removing lib.o(.ARM.exidx), (8 bytes).
    Removing lib.o(.ARM.exidx), (8 bytes).
    Removing lib.o(.ARM.exidx), (8 bytes).
    Removing lib.o(.ARM.exidx), (8 bytes).
    Removing lib.o(.ARM.exidx), (8 bytes).
    Removing lib.o(.ARM.exidx), (8 bytes).
    Removing lib.o(.ARM.exidx), (8 bytes).
    Removing lib.o(.ARM.exidx), (8 bytes).
    Removing lib.o(.ARM.exidx), (8 bytes).
    Removing lib.o(.ARM.exidx), (8 bytes).
    Removing lib.o(.ARM.exidx), (8 bytes).
    Removing lib.o(.ARM.exidx), (8 bytes).
    Removing lib.o(.ARM.exidx), (8 bytes).
    Removing lib.o(.ARM.exidx), (8 bytes).
    Removing lib.o(.ARM.exidx), (8 bytes).
    Removing lib.o(.ARM.exidx), (8 bytes).
    Removing lib.o(.ARM.exidx), (8 bytes).
    Removing lib.o(.ARM.exidx), (8 bytes).
    Removing lib.o(.ARM.exidx), (8 bytes).
    Removing lib.o(.ARM.exidx), (8 bytes).
    Removing lib.o(.ARM.exidx), (8 bytes).
    Removing lib.o(.ARM.exidx), (8 bytes).
    Removing lib.o(.ARM.exidx), (8 bytes).
    Removing lib.o(.ARM.exidx), (8 bytes).
    Removing lib.o(.ARM.exidx), (8 bytes).
    Removing lib.o(.ARM.exidx), (8 bytes).
    Removing lib.o(.ARM.exidx), (8 bytes).
    Removing lib.o(.ARM.exidx), (8 bytes).
    Removing lib.o(.ARM.exidx), (8 bytes).
    Removing lib.o(.ARM.exidx), (8 bytes).
    Removing lib.o(.ARM.exidx), (8 bytes).
    Removing lib.o(.ARM.exidx), (8 bytes).
    Removing lib.o(.ARM.exidx), (8 bytes).
    Removing lib.o(.ARM.exidx), (8 bytes).
    Removing lib.o(.ARM.exidx), (8 bytes).
    Removing lib.o(.ARM.exidx), (8 bytes).
    Removing lib.o(.ARM.exidx), (8 bytes).
    Removing lib.o(.ARM.exidx), (8 bytes).
    Removing lib.o(.ARM.exidx), (8 bytes).
    Removing lib.o(.ARM.exidx), (8 bytes).
    Removing lib.o(.ARM.exidx), (8 bytes).
    Removing lib.o(.ARM.exidx), (8 bytes).
    Removing lib.o(.ARM.exidx), (8 bytes).
    Removing lib.o(.ARM.exidx), (8 bytes).
    Removing lib.o(.ARM.exidx), (8 bytes).
    Removing lib.o(.ARM.exidx), (8 bytes).
    Removing lib.o(.ARM.exidx), (8 bytes).
    Removing lib.o(.ARM.exidx), (8 bytes).
    Removing lib.o(.ARM.exidx), (8 bytes).
    Removing lib.o(.ARM.exidx), (8 bytes).
    Removing lib.o(.ARM.exidx), (8 bytes).
    Removing lib.o(.ARM.exidx), (8 bytes).
    Removing lib.o(.ARM.exidx), (8 bytes).
    Removing lib.o(.ARM.exidx), (8 bytes).
    Removing lib.o(.ARM.exidx), (8 bytes).
    Removing lib.o(.ARM.exidx), (8 bytes).
    Removing lib.o(.ARM.exidx), (8 bytes).
    Removing lib.o(.ARM.exidx), (8 bytes).
    Removing lib.o(.ARM.exidx), (8 bytes).
    Removing lib.o(.ARM.exidx), (8 bytes).
    Removing lib.o(.ARM.exidx), (8 bytes).
    Removing lib.o(.ARM.exidx), (8 bytes).
    Removing lib.o(.ARM.exidx), (8 bytes).
    Removing lib.o(.ARM.exidx), (8 bytes).
    Removing lib.o(.ARM.exidx), (8 bytes).
    Removing lib.o(.ARM.exidx), (8 bytes).
    Removing lib.o(.ARM.exidx), (8 bytes).
    Removing lib.o(.ARM.exidx), (8 bytes).
    Removing lib.o(.ARM.exidx), (8 bytes).
    Removing lib.o(.ARM.exidx), (8 bytes).
    Removing lib.o(.ARM.exidx), (8 bytes).
    Removing lib.o(.ARM.exidx), (8 bytes).
    Removing lib.o(.ARM.exidx), (8 bytes).
    Removing lib.o(.ARM.exidx), (8 bytes).
    Removing lib.o(.ARM.exidx), (8 bytes).
    Removing lib.o(.ARM.exidx), (8 bytes).
    Removing lib.o(.ARM.exidx), (8 bytes).
    Removing lib.o(.ARM.exidx), (8 bytes).
    Removing lib.o(.ARM.exidx), (8 bytes).
    Removing lib.o(.ARM.exidx), (8 bytes).
    Removing lib.o(.ARM.exidx), (8 bytes).
    Removing lib.o(.ARM.exidx), (8 bytes).
    Removing lib.o(.ARM.exidx), (8 bytes).
    Removing lib.o(.ARM.exidx), (8 bytes).
    Removing lib.o(.ARM.exidx), (8 bytes).
    Removing lib.o(.ARM.exidx), (8 bytes).
    Removing lib.o(.ARM.exidx), (8 bytes).
    Removing lib.o(.ARM.exidx), (8 bytes).
    Removing lib.o(.ARM.exidx), (8 bytes).
    Removing lib.o(.ARM.exidx), (8 bytes).
    Removing lib.o(.ARM.exidx), (8 bytes).
    Removing lib.o(.ARM.exidx), (8 bytes).
    Removing lib.o(.ARM.exidx), (8 bytes).
    Removing lib.o(.ARM.exidx), (8 bytes).
    Removing lib.o(.ARM.exidx), (8 bytes).
    Removing lib.o(.ARM.exidx), (8 bytes).
    Removing lib.o(.ARM.exidx), (8 bytes).
    Removing lib.o(.ARM.exidx), (8 bytes).
    Removing lib.o(.ARM.exidx), (8 bytes).
    Removing lib.o(.ARM.exidx), (8 bytes).
    Removing lib.o(.ARM.exidx), (8 bytes).
    Removing lib.o(.ARM.exidx), (8 bytes).
    Removing lib.o(.ARM.exidx), (8 bytes).
    Removing lib.o(.ARM.exidx), (8 bytes).
    Removing lib.o(.ARM.exidx), (8 bytes).
    Removing lib.o(.ARM.exidx), (8 bytes).
    Removing lib.o(.ARM.exidx), (8 bytes).
    Removing lib.o(.ARM.exidx), (8 bytes).
    Removing lib.o(.ARM.exidx), (8 bytes).
    Removing lib.o(.ARM.exidx), (8 bytes).
    Removing lib.o(.ARM.exidx), (8 bytes).
    Removing lib.o(.ARM.exidx), (8 bytes).
    Removing lib.o(.ARM.exidx), (8 bytes).
    Removing lib.o(.ARM.exidx), (8 bytes).
    Removing lib.o(.ARM.exidx), (8 bytes).
    Removing lib.o(.ARM.exidx), (8 bytes).
    Removing lib.o(.ARM.exidx), (8 bytes).
    Removing lib.o(.ARM.exidx), (8 bytes).
    Removing lib.o(.ARM.exidx), (8 bytes).
    Removing lib.o(.ARM.exidx), (8 bytes).
    Removing lib.o(.ARM.exidx), (8 bytes).
    Removing lib.o(.ARM.exidx), (8 bytes).
    Removing lib.o(.ARM.exidx), (8 bytes).
    Removing lib.o(.ARM.exidx), (8 bytes).
    Removing lib.o(.ARM.exidx), (8 bytes).
    Removing lib.o(.ARM.exidx), (8 bytes).
    Removing lib.o(.ARM.exidx), (8 bytes).
    Removing lib.o(.ARM.exidx), (8 bytes).
    Removing lib.o(.ARM.exidx), (8 bytes).
    Removing lib.o(.ARM.exidx), (8 bytes).
    Removing lib.o(.ARM.exidx), (8 bytes).
    Removing lib.o(.ARM.exidx), (8 bytes).
    Removing lib.o(.ARM.exidx), (8 bytes).
    Removing lib.o(.ARM.exidx), (8 bytes).
    Removing lib.o(.ARM.exidx), (8 bytes).
    Removing lib.o(.ARM.exidx), (8 bytes).
    Removing lib.o(.ARM.exidx), (8 bytes).
    Removing lib.o(.ARM.exidx), (8 bytes).
    Removing lib.o(.ARM.exidx), (8 bytes).
    Removing lib.o(.ARM.exidx), (8 bytes).
    Removing lib.o(.ARM.exidx), (8 bytes).
    Removing lib.o(.ARM.exidx), (8 bytes).
    Removing lib.o(.ARM.exidx), (8 bytes).
    Removing lib.o(.ARM.exidx), (8 bytes).
    Removing lib.o(.ARM.exidx), (8 bytes).
    Removing lib.o(.ARM.exidx), (8 bytes).
    Removing lib.o(.ARM.exidx), (8 bytes).
    Removing lib.o(.ARM.exidx), (8 bytes).
    Removing lib.o(.ARM.exidx), (8 bytes).
    Removing lib.o(.ARM.exidx), (8 bytes).
    Removing lib.o(.ARM.exidx), (8 bytes).
    Removing lib.o(.ARM.exidx), (8 bytes).
    Removing lib.o(.ARM.exidx), (8 bytes).
    Removing lib.o(.ARM.exidx), (8 bytes).
    Removing lib.o(.ARM.exidx), (8 bytes).
    Removing lib.o(.ARM.exidx), (8 bytes).
    Removing lib.o(.ARM.exidx), (8 bytes).
    Removing lib.o(.ARM.exidx), (8 bytes).
    Removing lib.o(.ARM.exidx), (8 bytes).
    Removing lib.o(.ARM.exidx), (8 bytes).
    Removing lib.o(.ARM.exidx), (8 bytes).
    Removing lib.o(.ARM.exidx), (8 bytes).
    Removing lib.o(.ARM.exidx), (8 bytes).
    Removing lib.o(.ARM.exidx), (8 bytes).
    Removing lib.o(.ARM.exidx), (8 bytes).
    Removing lib.o(.ARM.exidx), (8 bytes).
    Removing lib.o(.ARM.exidx), (8 bytes).
    Removing lib.o(.ARM.exidx), (8 bytes).
    Removing lib.o(.ARM.exidx), (8 bytes).
    Removing lib.o(.ARM.exidx), (8 bytes).
    Removing lib.o(.ARM.exidx), (8 bytes).
    Removing lib.o(.ARM.exidx), (8 bytes).
    Removing lib.o(.ARM.exidx), (8 bytes).
    Removing lib.o(.ARM.exidx), (8 bytes).
    Removing lib.o(.ARM.exidx), (8 bytes).
    Removing lib.o(.ARM.exidx), (8 bytes).
    Removing lib.o(.ARM.exidx), (8 bytes).
    Removing lib.o(.ARM.exidx), (8 bytes).
    Removing lib.o(.ARM.exidx), (8 bytes).
    Removing lib.o(.ARM.exidx), (8 bytes).
    Removing lib.o(.ARM.exidx), (8 bytes).
    Removing lib.o(.ARM.exidx), (8 bytes).
    Removing lib.o(.ARM.exidx), (8 bytes).
    Removing lib.o(.ARM.exidx), (8 bytes).
    Removing lib.o(.ARM.exidx), (8 bytes).
    Removing lib.o(.ARM.exidx), (8 bytes).
    Removing lib.o(.ARM.exidx), (8 bytes).
    Removing lib.o(.ARM.exidx), (8 bytes).
    Removing lib.o(.ARM.exidx), (8 bytes).
    Removing lib.o(.ARM.exidx), (8 bytes).
    Removing lib.o(.ARM.exidx), (8 bytes).
    Removing lib.o(.ARM.exidx), (8 bytes).
    Removing lib.o(.ARM.exidx), (8 bytes).
    Removing lib.o(.ARM.exidx), (8 bytes).
    Removing lib.o(.ARM.exidx), (8 bytes).
    Removing lib.o(.ARM.exidx), (8 bytes).
    Removing lib.o(.ARM.exidx), (8 bytes).
    Removing lib.o(.ARM.exidx), (8 bytes).
    Removing lib.o(.ARM.exidx), (8 bytes).
    Removing lib.o(.ARM.exidx), (8 bytes).
    Removing lib.o(.ARM.exidx), (8 bytes).
    Removing lib.o(.ARM.exidx), (8 bytes).
    Removing lib.o(.ARM.exidx), (8 bytes).
    Removing lib.o(.ARM.exidx), (8 bytes).
    Removing lib.o(.ARM.exidx), (8 bytes).
    Removing lib.o(.ARM.exidx), (8 bytes).
    Removing lib.o(.ARM.exidx), (8 bytes).
    Removing lib.o(.ARM.exidx), (8 bytes).
    Removing lib.o(.ARM.exidx), (8 bytes).
    Removing lib.o(.ARM.exidx), (8 bytes).
    Removing lib.o(.ARM.exidx), (8 bytes).
    Removing lib.o(.ARM.exidx), (8 bytes).
    Removing lib.o(.ARM.exidx), (8 bytes).
    Removing lib.o(.ARM.exidx), (8 bytes).
    Removing lib.o(.ARM.exidx), (8 bytes).
    Removing lib.o(.ARM.exidx), (8 bytes).
    Removing lib.o(.ARM.exidx), (8 bytes).
    Removing lib.o(.ARM.exidx), (8 bytes).
    Removing lib.o(.ARM.exidx), (8 bytes).
    Removing lib.o(.ARM.exidx), (8 bytes).
    Removing lib.o(.ARM.exidx), (8 bytes).
    Removing lib.o(.ARM.exidx), (8 bytes).
    Removing lib.o(.ARM.exidx), (8 bytes).
    Removing lib.o(.ARM.exidx), (8 bytes).
    Removing lib.o(.ARM.exidx), (8 bytes).
    Removing lib.o(.ARM.exidx), (8 bytes).
    Removing lib.o(.ARM.exidx), (8 bytes).
    Removing lib.o(.ARM.exidx), (8 bytes).
    Removing lib.o(.ARM.exidx), (8 bytes).
    Removing lib.o(.ARM.exidx), (8 bytes).
    Removing lib.o(.ARM.exidx), (8 bytes).
    Removing lib.o(.ARM.exidx), (8 bytes).
    Removing lib.o(.ARM.exidx), (8 bytes).
    Removing lib.o(.ARM.exidx), (8 bytes).
    Removing lib.o(.ARM.exidx), (8 bytes).
    Removing lib.o(.ARM.exidx), (8 bytes).
    Removing lib.o(.ARM.exidx), (8 bytes).
    Removing lib.o(.ARM.exidx), (8 bytes).
    Removing lib.o(.ARM.exidx), (8 bytes).
    Removing lib.o(.ARM.exidx), (8 bytes).
    Removing lib.o(.ARM.exidx), (8 bytes).
    Removing lib.o(.ARM.exidx), (8 bytes).
    Removing lib.o(.ARM.exidx), (8 bytes).
    Removing lib.o(.ARM.exidx), (8 bytes).
    Removing lib.o(.ARM.exidx), (8 bytes).
    Removing lib.o(.ARM.exidx), (8 bytes).
    Removing lib.o(.ARM.exidx), (8 bytes).
    Removing lib.o(.ARM.exidx), (8 bytes).
    Removing lib.o(.ARM.exidx), (8 bytes).
    Removing lib.o(.ARM.exidx), (8 bytes).
    Removing lib.o(.ARM.exidx), (8 bytes).
    Removing lib.o(.ARM.exidx), (8 bytes).
    Removing lib.o(.ARM.exidx), (8 bytes).
    Removing lib.o(.ARM.exidx), (8 bytes).
    Removing lib.o(.ARM.exidx), (8 bytes).
    Removing lib.o(.ARM.exidx), (8 bytes).
    Removing lib.o(.ARM.exidx), (8 bytes).
    Removing lib.o(.ARM.exidx), (8 bytes).
    Removing lib.o(.ARM.exidx), (8 bytes).
    Removing lib.o(.ARM.exidx), (8 bytes).
    Removing lib.o(.ARM.exidx), (8 bytes).
    Removing lib.o(.ARM.exidx), (8 bytes).
    Removing lib.o(.ARM.exidx), (8 bytes).
    Removing lib.o(.ARM.exidx), (8 bytes).
    Removing lib.o(.ARM.exidx), (8 bytes).
    Removing lib.o(.ARM.exidx), (8 bytes).
    Removing lib.o(.ARM.exidx), (8 bytes).
    Removing lib.o(.ARM.exidx), (8 bytes).
    Removing lib.o(.ARM.exidx), (8 bytes).
    Removing lib.o(.ARM.exidx), (8 bytes).
    Removing lib.o(.ARM.exidx), (8 bytes).
    Removing lib.o(.ARM.exidx), (8 bytes).
    Removing lib.o(.ARM.exidx), (8 bytes).
    Removing lib.o(.ARM.exidx), (8 bytes).
    Removing lib.o(.ARM.exidx), (8 bytes).
    Removing lib.o(.ARM.exidx), (8 bytes).
    Removing lib.o(.ARM.exidx), (8 bytes).
    Removing lib.o(.ARM.exidx), (8 bytes).
    Removing lib.o(.ARM.exidx), (8 bytes).
    Removing lib.o(.ARM.exidx), (8 bytes).
    Removing lib.o(.ARM.exidx), (8 bytes).
    Removing lib.o(.ARM.exidx), (8 bytes).
    Removing lib.o(.ARM.exidx), (8 bytes).
    Removing lib.o(.ARM.exidx), (8 bytes).
    Removing lib.o(.ARM.exidx), (8 bytes).
    Removing lib.o(.ARM.exidx), (8 bytes).
    Removing lib.o(.ARM.exidx), (8 bytes).
    Removing lib.o(.ARM.exidx), (8 bytes).
    Removing lib.o(.ARM.exidx), (8 bytes).
    Removing lib.o(.ARM.exidx), (8 bytes).
    Removing lib.o(.ARM.exidx), (8 bytes).
    Removing lib.o(.ARM.exidx), (8 bytes).
    Removing lib.o(.ARM.exidx), (8 bytes).
    Removing lib.o(.ARM.exidx), (8 bytes).
    Removing lib.o(.ARM.exidx), (8 bytes).
    Removing lib.o(.ARM.exidx), (8 bytes).
    Removing lib.o(.ARM.exidx), (8 bytes).
    Removing lib.o(.constdata), (20 bytes).
    Removing rtos.o(.rev16_text), (4 bytes).
    Removing rtos.o(.revsh_text), (4 bytes).
    Removing rtos.o(.rrx_text), (6 bytes).
    Removing rtos.o(i._ZN5cRTOS4StopERNS_4TaskE), (48 bytes).
    Removing rtos.o(i._ZN5cRTOS4Task4StopEv), (30 bytes).
    Removing rtos.o(i._ZN5cRTOS4Task5PauseEt), (32 bytes).
    Removing rtos.o(i._ZN5cRTOS4Task5StartEv), (30 bytes).
    Removing rtos.o(i._ZN5cRTOS4Task6FinishEv), (34 bytes).
    Removing rtos.o(i._ZN5cRTOS4Task7starterEPv), (24 bytes).
    Removing rtos.o(i._ZN5cRTOS4TaskC2ERS_j), (44 bytes).
    Removing rtos.o(i._ZN5cRTOS4TaskD0Ev), (18 bytes).
    Removing rtos.o(i._ZN5cRTOS4TaskD2Ev), (32 bytes).
    Removing rtos.o(i._ZN5cRTOS5PauseERNS_4TaskE), (24 bytes).
    Removing rtos.o(i._ZN5cRTOS5StartERNS_4TaskE), (56 bytes).
    Removing rtos.o(i._ZN5cRTOS5Timer12getTimeOfTicEv), (8 bytes).
    Removing rtos.o(i._ZN5cRTOS5Timer7getTicsEv), (10 bytes).
    Removing rtos.o(i._ZN5cRTOS5TimerC1Et), (36 bytes).
    Removing rtos.o(i._ZN5cRTOSC2Ev), (20 bytes).
    Removing rtos.o(.ARM.exidx), (8 bytes).
    Removing rtos.o(.ARM.exidx), (8 bytes).
    Removing rtos.o(.ARM.exidx), (8 bytes).
    Removing rtos.o(.ARM.exidx), (8 bytes).
    Removing rtos.o(.ARM.exidx), (8 bytes).
    Removing rtos.o(.ARM.exidx), (8 bytes).
    Removing rtos.o(.ARM.exidx), (8 bytes).
    Removing rtos.o(.ARM.exidx), (8 bytes).
    Removing rtos.o(.ARM.exidx), (8 bytes).
    Removing rtos.o(.ARM.exidx), (8 bytes).
    Removing rtos.o(.ARM.exidx), (8 bytes).
    Removing rtos.o(.ARM.exidx), (8 bytes).
    Removing rtos.o(.ARM.exidx), (8 bytes).
    Removing rtos.o(.ARM.exidx), (8 bytes).
    Removing rtos.o(.ARM.exidx), (8 bytes).
    Removing rtos.o(.data), (4 bytes).
    Removing disp_dip204spi.o(.rev16_text), (4 bytes).
    Removing disp_dip204spi.o(.revsh_text), (4 bytes).
    Removing disp_dip204spi.o(.rrx_text), (6 bytes).
    Removing disp_dip204spi.o(.ARM.exidx), (8 bytes).
    Removing disp_dip204spi.o(.ARM.exidx), (8 bytes).
    Removing disp_dip204spi.o(.ARM.exidx), (8 bytes).
    Removing disp_dip204spi.o(.ARM.exidx), (8 bytes).
    Removing disp_dip204spi.o(.ARM.exidx), (8 bytes).
    Removing disp_dip204spi.o(.ARM.exidx), (8 bytes).
    Removing disp_dip204spi.o(.ARM.exidx), (8 bytes).
    Removing disp_dip204spi.o(.ARM.exidx), (8 bytes).
    Removing main.o(.ARM.exidx), (8 bytes).
    Removing lib.o(.constdata__ZTVN12cHwI2Cmaster6DeviceE), (60 bytes).
    Removing lib.o(.constdata__ZTV10cHwUSBdesc), (64 bytes).
    Removing lib.o(.constdata__ZTV6cHwUSB), (48 bytes).
    Removing lib.o(.constdata__ZTV8cHwUSB_0), (48 bytes).
    Removing lib.o(.constdata__ZTVN13cNetTransport6SocketE), (88 bytes).
    Removing lib.o(.constdata__ZTV13cNetTransport), (28 bytes).
    Removing lib.o(.constdata__ZTV7cNetUDP), (32 bytes).
    Removing lib.o(.constdata__ZTV8cNetDHCP), (32 bytes).
    Removing lib.o(.constdata__ZTV7cNetTCP), (32 bytes).
    Removing lib.o(.constdata__ZTV20cDevDigitalIndicator), (24 bytes).
    Removing lib.o(.constdata__ZTV17cHwDisplayGraphic), (92 bytes).
    Removing lib.o(.constdata__ZTV18cDevDisplayGraphic), (72 bytes).
    Removing lib.o(.constdata__ZTV12cHwEncoder_N), (12 bytes).
    Removing lib.o(.constdata__ZTV12cHwI2Cmaster), (40 bytes).
    Removing lib.o(.constdata__ZTV16cHwMemory_EEPROM), (44 bytes).
    Removing lib.o(.constdata__ZTV15cHwMemory_Flash), (44 bytes).
    Removing lib.o(.constdata__ZTV13cHwMemory_RAM), (44 bytes).
    Removing lib.o(.constdata__ZTV8cHwRTC_0), (16 bytes).
    Removing lib.o(.constdata__ZTV7cHwUART), (52 bytes).
    Removing lib.o(.constdata__ZTV11cHwEthernet), (28 bytes).
    Removing lib.o(.constdata__ZTV17cHwI2Cmaster_Emul), (48 bytes).
    Removing lib.o(.constdata__ZTV10cHwUSBctrl), (24 bytes).
    Removing lib.o(.constdata__ZTVN7cNetUDP6SocketE), (88 bytes).
    Removing lib.o(.constdata__ZTVN7cNetTCP6SocketE), (88 bytes).
    Removing lib.o(.constdata__ZTV15cDevAnalogInADC), (24 bytes).
    Removing lib.o(.constdata__ZTV13cDevAnalogOut), (20 bytes).
    Removing lib.o(.constdata__ZTV16cDevAnalogOutDAC), (20 bytes).
    Removing lib.o(.constdata__ZTV16cDevAnalogOutPWM), (20 bytes).
    Removing lib.o(.constdata__ZTV20cDevAnalogOutPWMemul), (36 bytes).
    Removing lib.o(.constdata__ZTV10cDevTextIO), (20 bytes).
    Removing lib.o(.constdata__ZTV26cDevControlEncoderJoystick), (20 bytes).
    Removing lib.o(.constdata__ZTV18cDevControlPointer), (12 bytes).
    Removing lib.o(.constdata__ZTV12cTaskHandler), (28 bytes).
    Removing lib.o(.constdata__ZTVN12cTaskHandler5TimerE), (16 bytes).
    Removing lib.o(t._Z5RANGEIsET_S0_S0_S0_), (22 bytes).
    Removing lib.o(.ARM.exidx), (8 bytes).
    Removing lib.o(.ARM.exidx), (8 bytes).
    Removing lib.o(.ARM.exidx), (8 bytes).
    Removing lib.o(.ARM.exidx), (8 bytes).
    Removing lib.o(t._ZN5cFifoIhEC1Eh), (34 bytes).
    Removing lib.o(.ARM.exidx), (8 bytes).
    Removing lib.o(t._ZN5cFifoIhE6isFullEv), (32 bytes).
    Removing lib.o(.ARM.exidx), (8 bytes).
    Removing lib.o(t._ZN5cFifoIhElsERKh), (64 bytes).
    Removing lib.o(.ARM.exidx), (8 bytes).
    Removing lib.o(t._ZN5cFifoIhErsERh), (60 bytes).
    Removing lib.o(.ARM.exidx), (8 bytes).
    Removing lib.o(i._ZN12cDataPointeraSERKS_), (26 bytes).
    Removing lib.o(.ARM.exidx), (8 bytes).
    Removing lib.o(i._ZN12cDataPointer5shiftEt), (28 bytes).
    Removing lib.o(.ARM.exidx), (8 bytes).
    Removing lib.o(i._ZN10cHwUSBctrl11ReqEndpointEv), (186 bytes).
    Removing lib.o(.ARM.exidx), (8 bytes).
    Removing lib.o(i._ZN10cHwUSBctrl17ReqInterfaceClassEv), (234 bytes).
    Removing lib.o(.ARM.exidx), (8 bytes).
    Removing lib.o(i._ZN10cHwUSBctrl12ReqInterfaceEv), (150 bytes).
    Removing lib.o(.ARM.exidx), (8 bytes).
    Removing lib.o(i._ZN10cHwUSBctrl29ReqDeviceStd_SetConfigurationEv), (280 bytes).
    Removing lib.o(.ARM.exidx), (8 bytes).
    Removing lib.o(i._ZN10cHwUSBctrl26ReqDeviceStd_GetDescriptorEv), (240 bytes).
    Removing lib.o(.ARM.exidx), (8 bytes).
    Removing lib.o(i._ZN10cHwUSBctrl9ReqDeviceEv), (216 bytes).
    Removing lib.o(.ARM.exidx), (8 bytes).
    Removing lib.o(i._ZN15cNetApplication10setTimeoutEtt), (18 bytes).
    Removing lib.o(.ARM.exidx), (8 bytes).
    Removing lib.o(i._ZN13cNetTransport6Socket10setTimeoutEtt), (18 bytes).
    Removing lib.o(.ARM.exidx), (8 bytes).
    Removing lib.o(i._ZN13cNetTransport6Socket4fillEc), (18 bytes).
    Removing lib.o(.ARM.exidx), (8 bytes).
    Removing lib.o(i._ZN13cNetTransport6Socket4fillEPKc), (28 bytes).
    Removing lib.o(.ARM.exidx), (8 bytes).
    Removing lib.o(i._ZN4cCRC9tabMethodEh), (42 bytes).
    Removing lib.o(.ARM.exidx), (8 bytes).
    Removing lib.o(i._ZN20cDevDigitalIndicator3clrEv), (14 bytes).
    Removing lib.o(.ARM.exidx), (8 bytes).
    Removing lib.o(.ARM.exidx), (8 bytes).
    Removing lib.o(.ARM.exidx), (8 bytes).
    Removing lib.o(.ARM.exidx), (8 bytes).
    Removing lib.o(.ARM.exidx), (8 bytes).
    Removing lib.o(t._Z3MINItET_S0_S0_), (14 bytes).
    Removing lib.o(.ARM.exidx), (8 bytes).
    Removing lib.o(.ARM.exidx), (8 bytes).
    Removing lib.o(.ARM.exidx), (8 bytes).
    Removing lib.o(i._ZN6cHwADC19getNumberOfChannelsEv), (6 bytes).
    Removing lib.o(.ARM.exidx), (8 bytes).
    Removing lib.o(.ARM.exidx), (8 bytes).
    Removing lib.o(.ARM.exidx), (8 bytes).
    Removing lib.o(.ARM.exidx), (8 bytes).
    Removing lib.o(.ARM.exidx), (8 bytes).
    Removing lib.o(i._ZN9cHwMemory5writeEjh), (28 bytes).
    Removing lib.o(.ARM.exidx), (8 bytes).
    Removing lib.o(i._ZN9cHwMemory4readEj), (28 bytes).
    Removing lib.o(.ARM.exidx), (8 bytes).
    Removing lib.o(i._ZN9cHwMemory5clearEj), (32 bytes).
    Removing lib.o(.ARM.exidx), (8 bytes).
    Removing lib.o(i._ZN9cHwMemory7getSizeEv), (6 bytes).
    Removing lib.o(.ARM.exidx), (8 bytes).
    Removing lib.o(i._ZN9cHwMemory7isFlashEv), (6 bytes).
    Removing lib.o(.ARM.exidx), (8 bytes).
    Removing lib.o(i._ZN13cHwMemory_RAM9writeByteEjh), (38 bytes).
    Removing lib.o(.ARM.exidx), (8 bytes).
    Removing lib.o(i._ZN13cHwMemory_RAM8readByteEj), (24 bytes).
    Removing lib.o(.ARM.exidx), (8 bytes).
    Removing lib.o(.ARM.exidx), (8 bytes).
    Removing lib.o(i._ZN9cHwPort_N3setEjj), (20 bytes).
    Removing lib.o(.ARM.exidx), (8 bytes).
    Removing lib.o(.ARM.exidx), (8 bytes).
    Removing lib.o(.ARM.exidx), (8 bytes).
    Removing lib.o(.ARM.exidx), (8 bytes).
    Removing lib.o(.ARM.exidx), (8 bytes).
    Removing lib.o(i._ZN12cHwSPImaster6Device4readEv), (16 bytes).
    Removing lib.o(.ARM.exidx), (8 bytes).
    Removing lib.o(i._ZN12cHwSPImaster6Device4readEPht), (58 bytes).
    Removing lib.o(.ARM.exidx), (8 bytes).
    Removing lib.o(i._ZN12cHwSPImaster6Device5writeEh), (18 bytes).
    Removing lib.o(.ARM.exidx), (8 bytes).
    Removing lib.o(i._ZN12cHwSPImaster6Device5writeEt), (48 bytes).
    Removing lib.o(.ARM.exidx), (8 bytes).
    Removing lib.o(i._ZN12cHwSPImaster6Device5writeEPht), (56 bytes).
    Removing lib.o(.ARM.exidx), (8 bytes).
    Removing lib.o(i._ZN12cHwSPImaster6Device8writeExtEhh), (42 bytes).
    Removing lib.o(.ARM.exidx), (8 bytes).
    Removing lib.o(i._ZN12cHwSPImaster6Device8writeExtEht), (54 bytes).
    Removing lib.o(.ARM.exidx), (8 bytes).
    Removing lib.o(i._ZN7cHwUART14isTxBufferFullEv), (22 bytes).
    Removing lib.o(.ARM.exidx), (8 bytes).
    Removing lib.o(i._ZN7cHwUART5isrRxEv), (24 bytes).
    Removing lib.o(.ARM.exidx), (8 bytes).
    Removing lib.o(i._ZN7cHwUART5isrTxEv), (68 bytes).
    Removing lib.o(.ARM.exidx), (8 bytes).
    Removing lib.o(i._ZN12cDataPointerC1Ev), (8 bytes).
    Removing lib.o(.ARM.exidx), (8 bytes).
    Removing lib.o(i._ZN12cDataPointerC1EPht), (6 bytes).
    Removing lib.o(.ARM.exidx), (8 bytes).
    Removing lib.o(i._ZNK12cDataPointer6getPtrEv), (6 bytes).
    Removing lib.o(.ARM.exidx), (8 bytes).
    Removing lib.o(i._ZN12cDataPointer7isEmptyEv), (14 bytes).
    Removing lib.o(.ARM.exidx), (8 bytes).
    Removing lib.o(i._ZN12cDataPointer7getSizeEv), (6 bytes).
    Removing lib.o(.ARM.exidx), (8 bytes).
    Removing lib.o(t._ZN12cDataPointercvPT_IvEEv), (12 bytes).
    Removing lib.o(.ARM.exidx), (8 bytes).
    Removing lib.o(t._ZN12cDataPointercvPT_IN10cHwUSBdesc9cEndpointEEEv), (12 bytes).
    Removing lib.o(.ARM.exidx), (8 bytes).
    Removing lib.o(i._ZN10cHwUSBdesc5getIdEhhhh), (32 bytes).
    Removing lib.o(.ARM.exidx), (8 bytes).
    Removing lib.o(i._ZN10cHwUSBctrl5Setup8valueLowEv), (6 bytes).
    Removing lib.o(.ARM.exidx), (8 bytes).
    Removing lib.o(i._ZN10cHwUSBctrl5Setup8indexLowEv), (6 bytes).
    Removing lib.o(.ARM.exidx), (8 bytes).
    Removing lib.o(i._ZN10cHwUSBctrl5Setup5valueEv), (6 bytes).
    Removing lib.o(.ARM.exidx), (8 bytes).
    Removing lib.o(i._ZN10cHwUSBctrl25ReqEndpointStd_ClrFeatureEv), (88 bytes).
    Removing lib.o(.ARM.exidx), (8 bytes).
    Removing lib.o(i._ZN10cHwUSBctrl5Setup7requestEv), (6 bytes).
    Removing lib.o(.ARM.exidx), (8 bytes).
    Removing lib.o(i._ZN10cHwUSBctrl5Setup7reqTypeEv), (10 bytes).
    Removing lib.o(.ARM.exidx), (8 bytes).
    Removing lib.o(i._ZN10cHwUSBctrl5Setup6lengthEv), (6 bytes).
    Removing lib.o(.ARM.exidx), (8 bytes).
    Removing lib.o(i._ZN10cHwUSBctrl29ReqInterfaceStd_GetDescriptorEv), (136 bytes).
    Removing lib.o(.ARM.exidx), (8 bytes).
    Removing lib.o(i._ZN10cHwUSBctrl5StallEv), (14 bytes).
    Removing lib.o(.ARM.exidx), (8 bytes).
    Removing lib.o(i._ZN8cHwUSB_08EPconfigC1Ev), (12 bytes).
    Removing lib.o(.ARM.exidx), (8 bytes).
    Removing lib.o(t._ZNK8cNetAddrILh4EEeqERKS0_), (26 bytes).
    Removing lib.o(.ARM.exidx), (8 bytes).
    Removing lib.o(t._ZNK8cNetAddrILh6EEeqERKS0_), (26 bytes).
    Removing lib.o(.ARM.exidx), (8 bytes).
    Removing lib.o(i._ZN15cNetApplication6updateEv), (34 bytes).
    Removing lib.o(.ARM.exidx), (8 bytes).
    Removing lib.o(t._ZN8cNetTYPEItEaSEt), (16 bytes).
    Removing lib.o(.ARM.exidx), (8 bytes).
    Removing lib.o(t._ZN8cNetTYPEItEcvtEv), (12 bytes).
    Removing lib.o(.ARM.exidx), (8 bytes).
    Removing lib.o(i._ZN13cNetTransport6Socket11openDefaultEv), (28 bytes).
    Removing lib.o(.ARM.exidx), (8 bytes).
    Removing lib.o(i._ZN13cNetTransport6Socket8isServerEv), (8 bytes).
    Removing lib.o(.ARM.exidx), (8 bytes).
    Removing lib.o(i._ZN13cNetTransport6Socket6updateEv), (2 bytes).
    Removing lib.o(.ARM.exidx), (8 bytes).
    Removing lib.o(i._ZN13cNetTransport6Socket4fillEPKct), (36 bytes).
    Removing lib.o(.ARM.exidx), (8 bytes).
    Removing lib.o(i._ZN7cNetUDP7getAddrEv), (8 bytes).
    Removing lib.o(.ARM.exidx), (8 bytes).
    Removing lib.o(i._ZN7cNetUDP10getAddrPhyEv), (18 bytes).
    Removing lib.o(.ARM.exidx), (8 bytes).
    Removing lib.o(t._ZN8cNetTYPEIjEaSEj), (16 bytes).
    Removing lib.o(.ARM.exidx), (8 bytes).
    Removing lib.o(t._ZN8cNetTYPEIjEcvjEv), (12 bytes).
    Removing lib.o(.ARM.exidx), (8 bytes).
    Removing lib.o(i._ZN8cNetDHCP8OnUpdateEv), (2 bytes).
    Removing lib.o(.ARM.exidx), (8 bytes).
    Removing lib.o(i._ZN7cNetTCP7getAddrEv), (8 bytes).
    Removing lib.o(.ARM.exidx), (8 bytes).
    Removing lib.o(i._ZN7cNetTCP10getAddrPhyEv), (18 bytes).
    Removing lib.o(.ARM.exidx), (8 bytes).
    Removing lib.o(i._ZN7cNetTCP6Header13setDataOffsetEh), (26 bytes).
    Removing lib.o(.ARM.exidx), (8 bytes).
    Removing lib.o(i._ZN7cNetTCP6Header13getDataOffsetEv), (18 bytes).
    Removing lib.o(.ARM.exidx), (8 bytes).
    Removing lib.o(i._ZN12cDevAnalogIn3getEv), (40 bytes).
    Removing lib.o(.ARM.exidx), (8 bytes).
    Removing lib.o(i._ZN12cDevAnalogIncvfEv), (14 bytes).
    Removing lib.o(.ARM.exidx), (8 bytes).
    Removing lib.o(i._ZN13cDevAnalogOutaSEf), (20 bytes).
    Removing lib.o(.ARM.exidx), (8 bytes).
    Removing lib.o(i._ZN11cDevDigital3setEv), (16 bytes).
    Removing lib.o(.ARM.exidx), (8 bytes).
    Removing lib.o(i._ZN11cDevDigital3clrEv), (16 bytes).
    Removing lib.o(.ARM.exidx), (8 bytes).
    Removing lib.o(i._ZN11cDevDigital6toggleEv), (26 bytes).
    Removing lib.o(.ARM.exidx), (8 bytes).
    Removing lib.o(.ARM.exidx), (8 bytes).
    Removing lib.o(i._ZN11cDevDigitalaSEb), (20 bytes).
    Removing lib.o(.ARM.exidx), (8 bytes).
    Removing lib.o(i._ZN11cDevDigitalaSERS_), (30 bytes).
    Removing lib.o(.ARM.exidx), (8 bytes).
    Removing lib.o(i._ZN11cDevDigitalcvbEv), (14 bytes).
    Removing lib.o(.ARM.exidx), (8 bytes).
    Removing lib.o(i._ZN20cDevDigitalIndicator3setEv), (14 bytes).
    Removing lib.o(.ARM.exidx), (8 bytes).
    Removing lib.o(i._ZN20cDevDigitalIndicator7triggerEt), (36 bytes).
    Removing lib.o(.ARM.exidx), (8 bytes).
    Removing lib.o(i._ZN10cHwDisplay16getNumberOfLinesEv), (6 bytes).
    Removing lib.o(.ARM.exidx), (8 bytes).
    Removing lib.o(i._ZN10cHwDisplay18getNumberOfColumnsEv), (6 bytes).
    Removing lib.o(.ARM.exidx), (8 bytes).
    Removing lib.o(i._ZN17cHwDisplayGraphic7refreshEv), (2 bytes).
    Removing lib.o(.ARM.exidx), (8 bytes).
    Removing lib.o(i._ZN17cHwDisplayGraphic14getDefaultFontEv), (14 bytes).
    Removing lib.o(.ARM.exidx), (8 bytes).
    Removing lib.o(i._ZN17cHwDisplayGraphic8getWidthEv), (8 bytes).
    Removing lib.o(.ARM.exidx), (8 bytes).
    Removing lib.o(i._ZN17cHwDisplayGraphic9getHeightEv), (8 bytes).
    Removing lib.o(.ARM.exidx), (8 bytes).
    Removing lib.o(i._ZN12cTaskHandler12getCycleTimeEv), (6 bytes).
    Removing lib.o(.ARM.exidx), (8 bytes).
    Removing lib.o(i._ZN12cTaskHandler7getTicsEv), (6 bytes).
    Removing lib.o(.ARM.exidx), (8 bytes).
    Removing lib.o(i._ZN12cTaskHandler3runEv), (36 bytes).
    Removing lib.o(.ARM.exidx), (8 bytes).
    Removing lib.o(i._ZN12cTaskHandler6updateEv), (8 bytes).
    Removing lib.o(.ARM.exidx), (8 bytes).
    Removing lib.o(.ARM.exidx), (8 bytes).
    Removing lib.o(.ARM.exidx), (8 bytes).
    Removing lib.o(.constdata__ZTV10cHwEncoder), (12 bytes).
    Removing lib.o(.constdata__ZTI8cHwTimer), (8 bytes).
    Removing lib.o(.constdata__ZTV6cHwRTC), (16 bytes).
    Removing lib.o(.constdata__ZTV12cHwUSBinterf), (40 bytes).
    Removing lib.o(.constdata__ZTV15cNetApplication), (32 bytes).
    Removing lib.o(.constdata__ZTIN13cNetTransport6SocketE), (12 bytes).
    Removing lib.o(.constdata__ZTVN6cNetIP13cTimeOutTimerE), (12 bytes).
    Removing lib.o(.constdata__ZTI11cDevDigital), (8 bytes).
    Removing lib.o(.constdata__ZTI17cHwDisplayGraphic), (12 bytes).
    Removing lib.o(.constdata__ZTV9cHwMemory), (44 bytes).
    Removing lib.o(.constdata__ZTI6cHwADC), (12 bytes).
    Removing lib.o(.constdata__ZTV14cHwI2Cmaster_N), (44 bytes).
    Removing lib.o(.constdata__ZTI15cHwMemory_Flash), (12 bytes).
    Removing lib.o(.constdata__ZTI9cHwPort_N), (12 bytes).
    Removing lib.o(.constdata__ZTV9cHwUART_N), (52 bytes).
    Removing lib.o(.constdata__ZTI7cHwUART), (8 bytes).
    Removing lib.o(.constdata__ZTI8cHwUSB_0), (12 bytes).
    Removing lib.o(.constdata__ZTI6cHwUSB), (8 bytes).
    Removing lib.o(.constdata__ZTI11cHwEthernet), (8 bytes).
    Removing lib.o(.constdata__ZTI12cHwI2Cmaster), (8 bytes).
    Removing lib.o(.constdata__ZTI17cHwI2Cmaster_Emul), (12 bytes).
    Removing lib.o(.constdata__ZTIN12cHwSPImaster6DeviceE), (8 bytes).
    Removing lib.o(.constdata__ZTV8cHwTouch), (24 bytes).
    Removing lib.o(.constdata__ZTI10cHwUSBdesc), (8 bytes).
    Removing lib.o(.constdata__ZTI10cHwUSBctrl), (8 bytes).
    Removing lib.o(.constdata__ZTI7cNetTCP), (12 bytes).
    Removing lib.o(.constdata__ZTI7cNetUDP), (12 bytes).
    Removing lib.o(.constdata__ZTI13cNetTransport), (8 bytes).
    Removing lib.o(.constdata__ZTIN7cNetTCP6SocketE), (12 bytes).
    Removing lib.o(.constdata__ZTIN7cNetUDP6SocketE), (12 bytes).
    Removing lib.o(.constdata__ZTV12cDevAnalogIn), (24 bytes).
    Removing lib.o(.constdata__ZTI13cDevAnalogOut), (24 bytes).
    Removing lib.o(.constdata__ZTI20cDevDigitalIndicator), (12 bytes).
    Removing lib.o(.constdata__ZTI18cDevDisplayGraphic), (12 bytes).
    Removing lib.o(.constdata__ZTI10cDevTextIO), (8 bytes).
    Removing lib.o(.constdata__ZTV15cDevTextIO_UART), (20 bytes).
    Removing lib.o(.constdata__ZTI18cDevControlEncoder), (12 bytes).
    Removing lib.o(.constdata__ZTV6cTimer), (16 bytes).
    Removing lib.o(.constdata__ZTI12cTaskHandler), (12 bytes).
    Removing lib.o(.constdata__ZTVN12cTaskHandler4TaskE), (12 bytes).
    Removing lib.o(.constdata__ZTI8cHwADC_0), (12 bytes).
    Removing lib.o(.constdata__ZTI12cHwEncoder_N), (12 bytes).
    Removing lib.o(.constdata__ZTIN12cHwI2Cmaster6DeviceE), (8 bytes).
    Removing lib.o(.constdata__ZTI16cHwMemory_EEPROM), (12 bytes).
    Removing lib.o(.constdata__ZTI13cHwMemory_RAM), (12 bytes).
    Removing lib.o(.constdata__ZTI8cHwRTC_0), (12 bytes).
    Removing lib.o(.constdata__ZTI14cHwSPImaster_N), (12 bytes).
    Removing lib.o(.constdata__ZTI10cHwTimer_N), (12 bytes).
    Removing lib.o(.constdata__ZTI8cNetDHCP), (12 bytes).
    Removing lib.o(.constdata__ZTI15cDevAnalogInADC), (12 bytes).
    Removing lib.o(.constdata__ZTI16cDevAnalogOutDAC), (12 bytes).
    Removing lib.o(.constdata__ZTI16cDevAnalogOutPWM), (12 bytes).
    Removing lib.o(.constdata__ZTI20cDevAnalogOutPWMemul), (32 bytes).
    Removing lib.o(.constdata__ZTI15cDevDisplayChar), (12 bytes).
    Removing lib.o(.constdata__ZTI26cDevControlEncoderJoystick), (12 bytes).
    Removing lib.o(.constdata__ZTI28cDevControlEncoderRotaryKnob), (12 bytes).
    Removing lib.o(.constdata__ZTI18cDevControlPointer), (8 bytes).
    Removing lib.o(.constdata__ZTIN12cTaskHandler5TimerE), (12 bytes).
    Removing lib.o(.constdata__ZTI7cHwPort), (8 bytes).
    Removing lib.o(.constdata__ZTIN7cHwPort3PinE), (8 bytes).
    Removing lib.o(.constdata__ZTI15cNetApplication), (12 bytes).
    Removing lib.o(.constdata__ZTI9cHwMemory), (8 bytes).
    Removing lib.o(.constdata__ZTI14cHwI2Cmaster_N), (12 bytes).
    Removing lib.o(.constdata__ZTI12cHwSPImaster), (8 bytes).
    Removing lib.o(.constdata__ZTI12cHwUSBinterf), (8 bytes).
    Removing lib.o(.constdata__ZTI12cDevAnalogIn), (24 bytes).
    Removing lib.o(.constdata__ZTI6cHwDAC), (8 bytes).
    Removing lib.o(.constdata__ZTI10cHwDisplay), (8 bytes).
    Removing lib.o(.constdata__ZTI8cHwTouch), (8 bytes).
    Removing lib.o(.constdata__ZTIN5cList4ItemE), (8 bytes).
    Removing lib.o(.constdata__ZTI6cTimer), (8 bytes).
    Removing lib.o(.constdata__ZTI8cHwDAC_0), (12 bytes).
    Removing lib.o(.constdata__ZTI10cHwEncoder), (8 bytes).
    Removing lib.o(.constdata__ZTI6cHwRTC), (8 bytes).
    Removing lib.o(.constdata__ZTI9cHwUART_N), (12 bytes).
    Removing lib.o(.constdata__ZTIN6cNetIP13cTimeOutTimerE), (12 bytes).
    Removing lib.o(.constdata__ZTI11cDevDisplay), (8 bytes).
    Removing lib.o(.constdata__ZTI15cDevTextIO_UART), (12 bytes).
    Removing lib.o(.constdata__ZTIN12cTaskHandler4TaskE), (12 bytes).
    Removing lib.o(.constdata__ZTS8cHwTimer), (10 bytes).
    Removing lib.o(.constdata__ZTS6cHwADC), (8 bytes).
    Removing lib.o(.constdata__ZTS8cHwADC_0), (10 bytes).
    Removing lib.o(.constdata__ZTS12cHwEncoder_N), (15 bytes).
    Removing lib.o(.constdata__ZTS12cHwI2Cmaster), (15 bytes).
    Removing lib.o(.constdata__ZTSN12cHwI2Cmaster6DeviceE), (24 bytes).
    Removing lib.o(.constdata__ZTS17cHwI2Cmaster_Emul), (20 bytes).
    Removing lib.o(.constdata__ZTS16cHwMemory_EEPROM), (19 bytes).
    Removing lib.o(.constdata__ZTS15cHwMemory_Flash), (18 bytes).
    Removing lib.o(.constdata__ZTS13cHwMemory_RAM), (16 bytes).
    Removing lib.o(.constdata__ZTS9cHwPort_N), (11 bytes).
    Removing lib.o(.constdata__ZTS8cHwRTC_0), (10 bytes).
    Removing lib.o(.constdata__ZTSN12cHwSPImaster6DeviceE), (24 bytes).
    Removing lib.o(.constdata__ZTS14cHwSPImaster_N), (17 bytes).
    Removing lib.o(.constdata__ZTS10cHwTimer_N), (13 bytes).
    Removing lib.o(.constdata__ZTS7cHwUART), (9 bytes).
    Removing lib.o(.constdata__ZTS10cHwUSBdesc), (13 bytes).
    Removing lib.o(.constdata__ZTS10cHwUSBctrl), (13 bytes).
    Removing lib.o(.constdata__ZTS6cHwUSB), (8 bytes).
    Removing lib.o(.constdata__ZTS8cHwUSB_0), (10 bytes).
    Removing lib.o(.constdata__ZTS13cNetTransport), (16 bytes).
    Removing lib.o(.constdata__ZTSN13cNetTransport6SocketE), (25 bytes).
    Removing lib.o(.constdata__ZTS11cHwEthernet), (14 bytes).
    Removing lib.o(.constdata__ZTS7cNetUDP), (9 bytes).
    Removing lib.o(.constdata__ZTSN7cNetUDP6SocketE), (18 bytes).
    Removing lib.o(.constdata__ZTS8cNetDHCP), (10 bytes).
    Removing lib.o(.constdata__ZTS7cNetTCP), (9 bytes).
    Removing lib.o(.constdata__ZTSN7cNetTCP6SocketE), (18 bytes).
    Removing lib.o(.constdata__ZTI10cDevAnalog), (8 bytes).
    Removing lib.o(.constdata__ZTS15cDevAnalogInADC), (18 bytes).
    Removing lib.o(.constdata__ZTS13cDevAnalogOut), (16 bytes).
    Removing lib.o(.constdata__ZTS16cDevAnalogOutDAC), (19 bytes).
    Removing lib.o(.constdata__ZTS11cDevDigital), (14 bytes).
    Removing lib.o(.constdata__ZTS16cDevAnalogOutPWM), (19 bytes).
    Removing lib.o(.constdata__ZTS20cDevAnalogOutPWMemul), (23 bytes).
    Removing lib.o(.constdata__ZTS20cDevDigitalIndicator), (23 bytes).
    Removing lib.o(.constdata__ZTS15cDevDisplayChar), (18 bytes).
    Removing lib.o(.constdata__ZTS17cHwDisplayGraphic), (20 bytes).
    Removing lib.o(.constdata__ZTS18cDevDisplayGraphic), (21 bytes).
    Removing lib.o(.constdata__ZTS10cDevTextIO), (13 bytes).
    Removing lib.o(.constdata__ZTS18cDevControlEncoder), (21 bytes).
    Removing lib.o(.constdata__ZTS26cDevControlEncoderJoystick), (29 bytes).
    Removing lib.o(.constdata__ZTS28cDevControlEncoderRotaryKnob), (31 bytes).
    Removing lib.o(.constdata__ZTS18cDevControlPointer), (21 bytes).
    Removing lib.o(.constdata__ZTS12cTaskHandler), (15 bytes).
    Removing lib.o(.constdata__ZTSN12cTaskHandler5TimerE), (23 bytes).
    Removing lib.o(.constdata__ZTSN5cList4ItemE), (14 bytes).
    Removing lib.o(.constdata__ZTS6cHwDAC), (8 bytes).
    Removing lib.o(.constdata__ZTS8cHwDAC_0), (10 bytes).
    Removing lib.o(.constdata__ZTS7cHwPort), (9 bytes).
    Removing lib.o(.constdata__ZTSN7cHwPort3PinE), (15 bytes).
    Removing lib.o(.constdata__ZTS10cHwEncoder), (13 bytes).
    Removing lib.o(.constdata__ZTS14cHwI2Cmaster_N), (17 bytes).
    Removing lib.o(.constdata__ZTS9cHwMemory), (11 bytes).
    Removing lib.o(.constdata__ZTS6cHwRTC), (8 bytes).
    Removing lib.o(.constdata__ZTS12cHwSPImaster), (15 bytes).
    Removing lib.o(.constdata__ZTS9cHwUART_N), (11 bytes).
    Removing lib.o(.constdata__ZTS12cHwUSBinterf), (15 bytes).
    Removing lib.o(.constdata__ZTS15cNetApplication), (18 bytes).
    Removing lib.o(.constdata__ZTSN6cNetIP13cTimeOutTimerE), (25 bytes).
    Removing lib.o(.constdata__ZTS6cTimer), (8 bytes).
    Removing lib.o(.constdata__ZTS10cDevAnalog), (13 bytes).
    Removing lib.o(.constdata__ZTS12cDevAnalogIn), (15 bytes).
    Removing lib.o(.constdata__ZTS11cDevDisplay), (14 bytes).
    Removing lib.o(.constdata__ZTS10cHwDisplay), (13 bytes).
    Removing lib.o(.constdata__ZTS15cDevTextIO_UART), (18 bytes).
    Removing lib.o(.constdata__ZTS8cHwTouch), (10 bytes).
    Removing lib.o(.constdata__ZTSN12cTaskHandler4TaskE), (22 bytes).
    Removing lib.o(.ARM.exidx), (8 bytes).
    Removing lib.o(i._ZN6cHwDAC19getNumberOfChannelsEv), (6 bytes).
    Removing lib.o(.ARM.exidx), (8 bytes).
    Removing lib.o(.ARM.exidx), (8 bytes).
    Removing lib.o(.ARM.exidx), (8 bytes).
    Removing lib.o(i._ZN14cHwI2Cmaster_N11waitForAcknEj), (50 bytes).
    Removing lib.o(.ARM.exidx), (8 bytes).
    Removing lib.o(i._ZN14cHwI2Cmaster_N5startEv), (44 bytes).
    Removing lib.o(.ARM.exidx), (8 bytes).
    Removing lib.o(i._ZN14cHwI2Cmaster_N4stopEv), (14 bytes).
    Removing lib.o(.ARM.exidx), (8 bytes).
    Removing lib.o(i._ZN14cHwI2Cmaster_N8sendAddrEh), (58 bytes).
    Removing lib.o(.ARM.exidx), (8 bytes).
    Removing lib.o(i._ZN14cHwI2Cmaster_N9writeByteEh), (34 bytes).
    Removing lib.o(.ARM.exidx), (8 bytes).
    Removing lib.o(i._ZN14cHwI2Cmaster_N11readByteAckEv), (42 bytes).
    Removing lib.o(.ARM.exidx), (8 bytes).
    Removing lib.o(i._ZN14cHwI2Cmaster_N12readByteNackEv), (42 bytes).
    Removing lib.o(.ARM.exidx), (8 bytes).
    Removing lib.o(i._ZN9cHwUART_N7getByteEv), (10 bytes).
    Removing lib.o(.ARM.exidx), (8 bytes).
    Removing lib.o(i._ZN9cHwUART_N7setByteEh), (6 bytes).
    Removing lib.o(.ARM.exidx), (8 bytes).
    Removing lib.o(i._ZN12cHwUSBinterf13GetDescriptorEt), (16 bytes).
    Removing lib.o(.ARM.exidx), (8 bytes).
    Removing lib.o(i._ZN12cHwUSBinterf10clrFeatureEv), (2 bytes).
    Removing lib.o(.ARM.exidx), (8 bytes).
    Removing lib.o(i._ZN12cHwUSBinterf10setFeatureEv), (2 bytes).
    Removing lib.o(.ARM.exidx), (8 bytes).
    Removing lib.o(i._ZN6cNetIP13cTimeOutTimer6updateEv), (18 bytes).
    Removing lib.o(.ARM.exidx), (8 bytes).
    Removing lib.o(i._ZN15cDevTextIO_UART3setEPhh), (22 bytes).
    Removing lib.o(.ARM.exidx), (8 bytes).
    Removing lib.o(i._ZN15cDevTextIO_UART3getEPh), (18 bytes).
    Removing lib.o(.ARM.exidx), (8 bytes).
    Removing lib.o(i._ZN8cHwTouch7getPosXEv), (6 bytes).
    Removing lib.o(.ARM.exidx), (8 bytes).
    Removing lib.o(i._ZN8cHwTouch7getPosYEv), (6 bytes).
    Removing lib.o(.ARM.exidx), (8 bytes).
    Removing lib.o(i._ZN8cHwTouch9isTouchedEv), (6 bytes).
    Removing lib.o(.ARM.exidx), (8 bytes).
    Removing rtos.o(.constdata__ZTVN5cRTOS4TaskE), (48 bytes).
    Removing rtos.o(.constdata__ZTVN5cRTOS5TimerE), (16 bytes).
    Removing rtos.o(i._ZN11cHwRTOS_MCU10getSysTimeEv), (40 bytes).
    Removing rtos.o(.ARM.exidx), (8 bytes).
    Removing rtos.o(i._ZdlPv), (14 bytes).
    Removing rtos.o(.ARM.exidx), (8 bytes).
    Removing rtos.o(i._ZN11cHwRTOS_MCU5startEPcjPvPFjS1_E), (108 bytes).
    Removing rtos.o(.ARM.exidx), (8 bytes).
    Removing rtos.o(i._ZN5cRTOS4Task8isActiveEv), (14 bytes).
    Removing rtos.o(.ARM.exidx), (8 bytes).
    Removing rtos.o(i._ZN5cRTOS4Task7OnStartEv), (2 bytes).
    Removing rtos.o(.ARM.exidx), (8 bytes).
    Removing rtos.o(i._ZN5cRTOS4Task6OnStopEv), (2 bytes).
    Removing rtos.o(.ARM.exidx), (8 bytes).
    Removing rtos.o(i._ZN11cHwRTOS_MCU10deleteFuncEv), (4 bytes).
    Removing rtos.o(.ARM.exidx), (8 bytes).
    Removing rtos.o(.constdata__ZTV5cRTOS), (24 bytes).
    Removing rtos.o(.constdata__ZTIN5cRTOS4TaskE), (8 bytes).
    Removing rtos.o(.constdata__ZTIN5cRTOS5TimerE), (12 bytes).
    Removing rtos.o(.constdata__ZTI5cRTOS), (8 bytes).
    Removing rtos.o(.constdata__ZTSN5cRTOS4TaskE), (14 bytes).
    Removing rtos.o(.constdata__ZTSN5cRTOS5TimerE), (15 bytes).
    Removing rtos.o(.constdata__ZTS5cRTOS), (7 bytes).
    Removing disp_dip204spi.o(.ARM.exidx), (8 bytes).
    Removing disp_dip204spi.o(.constdata__ZTI17cHwDisp_DIP204spi), (12 bytes).
    Removing disp_dip204spi.o(.constdata__ZTS17cHwDisp_DIP204spi), (20 bytes).

1137 unused section(s) (total 30468 bytes) removed from the image.

==============================================================================

Image Symbol Table

    Local Symbols

    Symbol Name                              Value     Ov Type        Size  Object(Section)

    ../../../clib/unwind_pr.c                0x00000000   Number         0  unwind_pr0.o ABSOLUTE
    ../../../clib/unwind_pr.c                0x00000000   Number         0  unwind_prcommon.o ABSOLUTE
    ../../../clib/unwinder.c                 0x00000000   Number         0  unwind_activity.o ABSOLUTE
    ../../../clib/unwinder.c                 0x00000000   Number         0  unwinder.o ABSOLUTE
    ../../../clib/unwinder.c                 0x00000000   Number         0  unwinder.o ABSOLUTE
    ../../../clib/unwinder.c                 0x00000000   Number         0  unwind_activity.o ABSOLUTE
    ../../../edgfe/lib_src/arm_exceptions.c  0x00000000   Number         0  arm_exceptions_terminate.o ABSOLUTE
    ../../../edgfe/lib_src/arm_exceptions.c  0x00000000   Number         0  arm_exceptions_support.o ABSOLUTE
    ../../../edgfe/lib_src/arm_exceptions.c  0x00000000   Number         0  arm_exceptions_mem.o ABSOLUTE
    ../../../edgfe/lib_src/arm_exceptions.c  0x00000000   Number         0  arm_exceptions_globs.o ABSOLUTE
    ../../../edgfe/lib_src/arm_exceptions.c  0x00000000   Number         0  arm_exceptions_callterm.o ABSOLUTE
    ../../../edgfe/lib_src/arm_noexceptions.c 0x00000000   Number         0  arm_begincatch_noexceptions.o ABSOLUTE
    ../../../edgfe/lib_src/guard.c           0x00000000   Number         0  cxa_guard_release.o ABSOLUTE
    ../../../edgfe/lib_src/guard.c           0x00000000   Number         0  cxa_guard_acquire.o ABSOLUTE
    ../../../edgfe/lib_src/typeinfo.c        0x00000000   Number         0  lib_rtti_impl.o ABSOLUTE
    ../../../edgfe/lib_src/typeinfo.c        0x00000000   Number         0  type_info_dtor.o ABSOLUTE
    ../../array_helpers.cpp                  0x00000000   Number         0  aeabi_vec_ctor_nocookie_nodtor.o ABSOLUTE
    ../clib/angel/boardlib.s                 0x00000000   Number         0  boardinit1.o ABSOLUTE
    ../clib/angel/boardlib.s                 0x00000000   Number         0  boardinit3.o ABSOLUTE
    ../clib/angel/boardlib.s                 0x00000000   Number         0  boardshut.o ABSOLUTE
    ../clib/angel/boardlib.s                 0x00000000   Number         0  boardinit2.o ABSOLUTE
    ../clib/angel/handlers.s                 0x00000000   Number         0  __scatter_copy.o ABSOLUTE
    ../clib/angel/handlers.s                 0x00000000   Number         0  __scatter_zi.o ABSOLUTE
    ../clib/angel/kernel.s                   0x00000000   Number         0  __rtentry2.o ABSOLUTE
    ../clib/angel/kernel.s                   0x00000000   Number         0  rtexit2.o ABSOLUTE
    ../clib/angel/kernel.s                   0x00000000   Number         0  __rtentry4.o ABSOLUTE
    ../clib/angel/kernel.s                   0x00000000   Number         0  __rtentry.o ABSOLUTE
    ../clib/angel/kernel.s                   0x00000000   Number         0  rtexit.o ABSOLUTE
    ../clib/angel/rt.s                       0x00000000   Number         0  rt_eh_globals_addr.o ABSOLUTE
    ../clib/angel/rt.s                       0x00000000   Number         0  rt_eh_globals_addr_intlibspace.o ABSOLUTE
    ../clib/angel/rt.s                       0x00000000   Number         0  rt_heap_descriptor_intlibspace.o ABSOLUTE
    ../clib/angel/rt.s                       0x00000000   Number         0  rt_errno_addr.o ABSOLUTE
    ../clib/angel/rt.s                       0x00000000   Number         0  rt_errno_addr_intlibspace.o ABSOLUTE
    ../clib/angel/rt.s                       0x00000000   Number         0  rt_raise.o ABSOLUTE
    ../clib/angel/rt.s                       0x00000000   Number         0  rt_locale_intlibspace.o ABSOLUTE
    ../clib/angel/rt.s                       0x00000000   Number         0  aeabi_ldiv0.o ABSOLUTE
    ../clib/angel/rt.s                       0x00000000   Number         0  rt_locale.o ABSOLUTE
    ../clib/angel/rt.s                       0x00000000   Number         0  aeabi_ldiv0_sigfpe.o ABSOLUTE
    ../clib/angel/rt.s                       0x00000000   Number         0  rt_div0.o ABSOLUTE
    ../clib/angel/rt.s                       0x00000000   Number         0  rt_heap_descriptor.o ABSOLUTE
    ../clib/angel/rt.s                       0x00000000   Number         0  rt_ctype_table.o ABSOLUTE
    ../clib/angel/scatter.s                  0x00000000   Number         0  __scatter.o ABSOLUTE
    ../clib/angel/startup.s                  0x00000000   Number         0  __main.o ABSOLUTE
    ../clib/angel/sys.s                      0x00000000   Number         0  indicate_semi.o ABSOLUTE
    ../clib/angel/sys.s                      0x00000000   Number         0  use_no_semi.o ABSOLUTE
    ../clib/angel/sys.s                      0x00000000   Number         0  libspace.o ABSOLUTE
    ../clib/angel/sys.s                      0x00000000   Number         0  sys_stackheap_outer.o ABSOLUTE
    ../clib/angel/sys.s                      0x00000000   Number         0  mutex_dummy.o ABSOLUTE
    ../clib/angel/sysapp.c                   0x00000000   Number         0  sys_command.o ABSOLUTE
    ../clib/angel/sysapp.c                   0x00000000   Number         0  sys_wrch.o ABSOLUTE
    ../clib/angel/sysapp.c                   0x00000000   Number         0  sys_exit.o ABSOLUTE
    ../clib/arm_runtime.c                    0x00000000   Number         0  init_aeabi.o ABSOLUTE
    ../clib/arm_runtime.c                    0x00000000   Number         0  init_aeabi.o ABSOLUTE
    ../clib/armsys.c                         0x00000000   Number         0  argv_veneer.o ABSOLUTE
    ../clib/armsys.c                         0x00000000   Number         0  argv_veneer.o ABSOLUTE
    ../clib/armsys.c                         0x00000000   Number         0  _get_argv_nomalloc.o ABSOLUTE
    ../clib/armsys.c                         0x00000000   Number         0  no_argv.o ABSOLUTE
    ../clib/armsys.c                         0x00000000   Number         0  _get_argv.o ABSOLUTE
    ../clib/bigflt.c                         0x00000000   Number         0  bigflt0.o ABSOLUTE
    ../clib/btod.s                           0x00000000   Number         0  btod.o ABSOLUTE
    ../clib/fenv.c                           0x00000000   Number         0  _rserrno.o ABSOLUTE
    ../clib/heap1.c                          0x00000000   Number         0  h1_extend.o ABSOLUTE
    ../clib/heap1.c                          0x00000000   Number         0  h1_final.o ABSOLUTE
    ../clib/heap1.c                          0x00000000   Number         0  h1_alloc.o ABSOLUTE
    ../clib/heap1.c                          0x00000000   Number         0  h1_free.o ABSOLUTE
    ../clib/heap1.c                          0x00000000   Number         0  h1_final_mt.o ABSOLUTE
    ../clib/heap1.c                          0x00000000   Number         0  h1_alloc_mt.o ABSOLUTE
    ../clib/heap1.c                          0x00000000   Number         0  h1_free_mt.o ABSOLUTE
    ../clib/heap1.c                          0x00000000   Number         0  h1_init.o ABSOLUTE
    ../clib/heap1.c                          0x00000000   Number         0  h1_extend_mt.o ABSOLUTE
    ../clib/heap1.c                          0x00000000   Number         0  h1_init_mt.o ABSOLUTE
    ../clib/heap2.c                          0x00000000   Number         0  fdtree.o ABSOLUTE
    ../clib/heap2.c                          0x00000000   Number         0  heap2.o ABSOLUTE
    ../clib/heap2.c                          0x00000000   Number         0  heap2mt.o ABSOLUTE
    ../clib/heapalloc.c                      0x00000000   Number         0  hguard.o ABSOLUTE
    ../clib/heapalloc.c                      0x00000000   Number         0  free.o ABSOLUTE
    ../clib/heapalloc.c                      0x00000000   Number         0  term_alloc.o ABSOLUTE
    ../clib/heapalloc.c                      0x00000000   Number         0  heapstubs.o ABSOLUTE
    ../clib/heapalloc.c                      0x00000000   Number         0  malloc.o ABSOLUTE
    ../clib/heapalloc.c                      0x00000000   Number         0  init_alloc.o ABSOLUTE
    ../clib/heapalloc.c                      0x00000000   Number         0  maybetermalloc2.o ABSOLUTE
    ../clib/heapalloc.c                      0x00000000   Number         0  maybetermalloc2.o ABSOLUTE
    ../clib/heapalloc.c                      0x00000000   Number         0  maybetermalloc1.o ABSOLUTE
    ../clib/heapalloc.c                      0x00000000   Number         0  maybetermalloc1.o ABSOLUTE
    ../clib/heapalloc.c                      0x00000000   Number         0  hrguard.o ABSOLUTE
    ../clib/heapaux.c                        0x00000000   Number         0  heapauxi.o ABSOLUTE
    ../clib/heapaux.c                        0x00000000   Number         0  heapauxa.o ABSOLUTE
    ../clib/libinit.s                        0x00000000   Number         0  libinit.o ABSOLUTE
    ../clib/libinit.s                        0x00000000   Number         0  libinit2.o ABSOLUTE
    ../clib/libinit.s                        0x00000000   Number         0  libshutdown2.o ABSOLUTE
    ../clib/libinit.s                        0x00000000   Number         0  libshutdown.o ABSOLUTE
    ../clib/locale.c                         0x00000000   Number         0  _wcrtomb.o ABSOLUTE
    ../clib/locale.s                         0x00000000   Number         0  lc_numeric_c.o ABSOLUTE
    ../clib/locale.s                         0x00000000   Number         0  lc_ctype_c.o ABSOLUTE
    ../clib/longlong.s                       0x00000000   Number         0  lludivv7m.o ABSOLUTE
    ../clib/longlong.s                       0x00000000   Number         0  lludiv10.o ABSOLUTE
    ../clib/memcpset.s                       0x00000000   Number         0  rt_memclr.o ABSOLUTE
    ../clib/memcpset.s                       0x00000000   Number         0  rt_memcpy_w.o ABSOLUTE
    ../clib/memcpset.s                       0x00000000   Number         0  rt_memclr_w.o ABSOLUTE
    ../clib/memcpset.s                       0x00000000   Number         0  strcmpv7m.o ABSOLUTE
    ../clib/memcpset.s                       0x00000000   Number         0  rt_memcpy_v6.o ABSOLUTE
    ../clib/misc.s                           0x00000000   Number         0  printf_stubs.o ABSOLUTE
    ../clib/printf.c                         0x00000000   Number         0  _printf_dec.o ABSOLUTE
    ../clib/printf.c                         0x00000000   Number         0  _printf_charcount.o ABSOLUTE
    ../clib/printf.c                         0x00000000   Number         0  _printf_char_common.o ABSOLUTE
    ../clib/printf.c                         0x00000000   Number         0  __printf_flags_ss_wp.o ABSOLUTE
    ../clib/printf.c                         0x00000000   Number         0  __printf_ss_wp.o ABSOLUTE
    ../clib/printf.c                         0x00000000   Number         0  __printf_flags_wp.o ABSOLUTE
    ../clib/printf.c                         0x00000000   Number         0  __printf_flags.o ABSOLUTE
    ../clib/printf.c                         0x00000000   Number         0  __printf_ss.o ABSOLUTE
    ../clib/printf.c                         0x00000000   Number         0  _sputc.o ABSOLUTE
    ../clib/printf.c                         0x00000000   Number         0  _snputc.o ABSOLUTE
    ../clib/printf.c                         0x00000000   Number         0  __printf_flags_ss.o ABSOLUTE
    ../clib/printf.c                         0x00000000   Number         0  _printf_wctomb.o ABSOLUTE
    ../clib/printf.c                         0x00000000   Number         0  _printf_longlong_dec.o ABSOLUTE
    ../clib/printf.c                         0x00000000   Number         0  _printf_oct_ll.o ABSOLUTE
    ../clib/printf.c                         0x00000000   Number         0  _printf_oct_int.o ABSOLUTE
    ../clib/printf.c                         0x00000000   Number         0  _printf_oct_int_ll.o ABSOLUTE
    ../clib/printf.c                         0x00000000   Number         0  _printf_hex_ll.o ABSOLUTE
    ../clib/printf.c                         0x00000000   Number         0  _printf_hex_int.o ABSOLUTE
    ../clib/printf.c                         0x00000000   Number         0  _printf_hex_int_ll.o ABSOLUTE
    ../clib/printf.c                         0x00000000   Number         0  _printf_hex_ptr.o ABSOLUTE
    ../clib/printf.c                         0x00000000   Number         0  _printf_hex_int_ptr.o ABSOLUTE
    ../clib/printf.c                         0x00000000   Number         0  _printf_hex_ll_ptr.o ABSOLUTE
    ../clib/printf.c                         0x00000000   Number         0  _printf_fp_infnan.o ABSOLUTE
    ../clib/printf.c                         0x00000000   Number         0  _printf_wchar.o ABSOLUTE
    ../clib/printf.c                         0x00000000   Number         0  _printf_char.o ABSOLUTE
    ../clib/printf.c                         0x00000000   Number         0  __printf_nopercent.o ABSOLUTE
    ../clib/printf.c                         0x00000000   Number         0  _printf_fp_dec.o ABSOLUTE
    ../clib/printf.c                         0x00000000   Number         0  _printf_intcommon.o ABSOLUTE
    ../clib/printf.c                         0x00000000   Number         0  _printf_hex_int_ll_ptr.o ABSOLUTE
    ../clib/printf.c                         0x00000000   Number         0  c89vsprintf.o ABSOLUTE
    ../clib/printf.c                         0x00000000   Number         0  c89vsnprintf.o ABSOLUTE
    ../clib/printf.c                         0x00000000   Number         0  _printf_truncate.o ABSOLUTE
    ../clib/printf.c                         0x00000000   Number         0  __printf_wp.o ABSOLUTE
    ../clib/printf.c                         0x00000000   Number         0  __printf.o ABSOLUTE
    ../clib/printf.c                         0x00000000   Number         0  _printf_pad.o ABSOLUTE
    ../clib/printf.c                         0x00000000   Number         0  _printf_str.o ABSOLUTE
    ../clib/printf_percent.s                 0x00000000   Number         0  _printf_ls.o ABSOLUTE
    ../clib/printf_percent.s                 0x00000000   Number         0  _printf_lld.o ABSOLUTE
    ../clib/printf_percent.s                 0x00000000   Number         0  _printf_c.o ABSOLUTE
    ../clib/printf_percent.s                 0x00000000   Number         0  _printf_n.o ABSOLUTE
    ../clib/printf_percent.s                 0x00000000   Number         0  _printf_p.o ABSOLUTE
    ../clib/printf_percent.s                 0x00000000   Number         0  _printf_l.o ABSOLUTE
    ../clib/printf_percent.s                 0x00000000   Number         0  _printf_llo.o ABSOLUTE
    ../clib/printf_percent.s                 0x00000000   Number         0  _printf_o.o ABSOLUTE
    ../clib/printf_percent.s                 0x00000000   Number         0  _printf_lli.o ABSOLUTE
    ../clib/printf_percent.s                 0x00000000   Number         0  _printf_i.o ABSOLUTE
    ../clib/printf_percent.s                 0x00000000   Number         0  _printf_llx.o ABSOLUTE
    ../clib/printf_percent.s                 0x00000000   Number         0  _printf_ll.o ABSOLUTE
    ../clib/printf_percent.s                 0x00000000   Number         0  _printf_percent_end.o ABSOLUTE
    ../clib/printf_percent.s                 0x00000000   Number         0  _printf_d.o ABSOLUTE
    ../clib/printf_percent.s                 0x00000000   Number         0  _printf_x.o ABSOLUTE
    ../clib/printf_percent.s                 0x00000000   Number         0  _printf_e.o ABSOLUTE
    ../clib/printf_percent.s                 0x00000000   Number         0  _printf_percent.o ABSOLUTE
    ../clib/printf_percent.s                 0x00000000   Number         0  _printf_u.o ABSOLUTE
    ../clib/printf_percent.s                 0x00000000   Number         0  _printf_f.o ABSOLUTE
    ../clib/printf_percent.s                 0x00000000   Number         0  _printf_lc.o ABSOLUTE
    ../clib/printf_percent.s                 0x00000000   Number         0  _printf_llu.o ABSOLUTE
    ../clib/printf_percent.s                 0x00000000   Number         0  _printf_g.o ABSOLUTE
    ../clib/printf_percent.s                 0x00000000   Number         0  _printf_a.o ABSOLUTE
    ../clib/printf_percent.s                 0x00000000   Number         0  _printf_s.o ABSOLUTE
    ../clib/signal.c                         0x00000000   Number         0  defsig_fpe_inner.o ABSOLUTE
    ../clib/signal.c                         0x00000000   Number         0  __raise.o ABSOLUTE
    ../clib/signal.c                         0x00000000   Number         0  defsig_general.o ABSOLUTE
    ../clib/signal.c                         0x00000000   Number         0  defsig_exit.o ABSOLUTE
    ../clib/signal.c                         0x00000000   Number         0  defsig_abrt_inner.o ABSOLUTE
    ../clib/signal.c                         0x00000000   Number         0  defsig_fpe_outer.o ABSOLUTE
    ../clib/signal.c                         0x00000000   Number         0  defsig_fpe_formal.o ABSOLUTE
    ../clib/signal.c                         0x00000000   Number         0  defsig_other.o ABSOLUTE
    ../clib/signal.c                         0x00000000   Number         0  defsig_segv_inner.o ABSOLUTE
    ../clib/signal.c                         0x00000000   Number         0  defsig_cppl_inner.o ABSOLUTE
    ../clib/signal.c                         0x00000000   Number         0  defsig_pvfn_inner.o ABSOLUTE
    ../clib/signal.c                         0x00000000   Number         0  defsig_stak_inner.o ABSOLUTE
    ../clib/signal.c                         0x00000000   Number         0  defsig_rtred_inner.o ABSOLUTE
    ../clib/signal.c                         0x00000000   Number         0  defsig_rtmem_inner.o ABSOLUTE
    ../clib/signal.c                         0x00000000   Number         0  defsig_abrt_formal.o ABSOLUTE
    ../clib/signal.c                         0x00000000   Number         0  defsig_abrt_outer.o ABSOLUTE
    ../clib/signal.c                         0x00000000   Number         0  defsig_rtmem_outer.o ABSOLUTE
    ../clib/signal.c                         0x00000000   Number         0  defsig_rtmem_formal.o ABSOLUTE
    ../clib/signal.s                         0x00000000   Number         0  defsig.o ABSOLUTE
    ../clib/stdlib.c                         0x00000000   Number         0  abort.o ABSOLUTE
    ../clib/stdlib.c                         0x00000000   Number         0  exit.o ABSOLUTE
    ../clib/stdlib.c                         0x00000000   Number         0  bsearchnoex.o ABSOLUTE
    ../clib/string.c                         0x00000000   Number         0  strlen.o ABSOLUTE
    ../clib/string.c                         0x00000000   Number         0  strchr.o ABSOLUTE
    ../clib/string.c                         0x00000000   Number         0  memcmp.o ABSOLUTE
    ../fplib/ddiv.s                          0x00000000   Number         0  ddiv.o ABSOLUTE
    ../fplib/dfix.s                          0x00000000   Number         0  dfix.o ABSOLUTE
    ../fplib/dfixu.s                         0x00000000   Number         0  dfixu.o ABSOLUTE
    ../fplib/dflt.s                          0x00000000   Number         0  dflt_clz.o ABSOLUTE
    ../fplib/dmul.s                          0x00000000   Number         0  dmul.o ABSOLUTE
    ../fplib/dnaninf.s                       0x00000000   Number         0  dnaninf.o ABSOLUTE
    ../fplib/dretinf.s                       0x00000000   Number         0  dretinf.o ABSOLUTE
    ../fplib/faddsub.s                       0x00000000   Number         0  faddsub_clz.o ABSOLUTE
    ../fplib/fcmpi.s                         0x00000000   Number         0  fcmpi.o ABSOLUTE
    ../fplib/fdiv.s                          0x00000000   Number         0  fdiv.o ABSOLUTE
    ../fplib/feqf.s                          0x00000000   Number         0  feqf.o ABSOLUTE
    ../fplib/ffix.s                          0x00000000   Number         0  ffix.o ABSOLUTE
    ../fplib/ffixu.s                         0x00000000   Number         0  ffixu.o ABSOLUTE
    ../fplib/fflt.s                          0x00000000   Number         0  fflt_clz.o ABSOLUTE
    ../fplib/fleqf.s                         0x00000000   Number         0  fleqf.o ABSOLUTE
    ../fplib/fmul.s                          0x00000000   Number         0  fmul.o ABSOLUTE
    ../fplib/fnaninf.s                       0x00000000   Number         0  fnaninf.o ABSOLUTE
    ../fplib/fpinit.s                        0x00000000   Number         0  fpinit.o ABSOLUTE
    ../fplib/fretinf.s                       0x00000000   Number         0  fretinf.o ABSOLUTE
    ../fplib/frleqf.s                        0x00000000   Number         0  frleqf.o ABSOLUTE
    ../fplib/fsqrt.s                         0x00000000   Number         0  fsqrt.o ABSOLUTE
    ../fplib/istatus.s                       0x00000000   Number         0  istatus.o ABSOLUTE
    ../fplib/printf1.s                       0x00000000   Number         0  printf1.o ABSOLUTE
    ../fplib/usenofp.s                       0x00000000   Number         0  usenofp.o ABSOLUTE
    ../mathlib/fpclassify.c                  0x00000000   Number         0  fpclassify.o ABSOLUTE
    ../mathlib/sqrtf.c                       0x00000000   Number         0  sqrtf_x.o ABSOLUTE
    ../mathlib/sqrtf.c                       0x00000000   Number         0  sqrtf.o ABSOLUTE
    ..\EmbSysLib\Src\MCU\STM32L1xx\Sys\Keil\RTOScontext.s 0x00000000   Number         0  rtoscontext.o ABSOLUTE
    ..\EmbSysLib\Src\MCU\STM32L1xx\Sys\Keil\startup_stm32l1xx_mdp.s 0x00000000   Number         0  startup_stm32l1xx_mdp.o ABSOLUTE
    ..\EmbSysLib\Src\Module\RTOS.cpp         0x00000000   Number         0  rtos.o ABSOLUTE
    ..\EmbSysLib\Src\Peripheral\Disp_DIP204spi.cpp 0x00000000   Number         0  disp_dip204spi.o ABSOLUTE
    ..\EmbSysLib\Src\lib.cpp                 0x00000000   Number         0  lib.o ABSOLUTE
    ..\\EmbSysLib\\Src\\Module\\RTOS.cpp     0x00000000   Number         0  rtos.o ABSOLUTE
    ..\\EmbSysLib\\Src\\Peripheral\\Disp_DIP204spi.cpp 0x00000000   Number         0  disp_dip204spi.o ABSOLUTE
    ..\\EmbSysLib\\Src\\lib.cpp              0x00000000   Number         0  lib.o ABSOLUTE
    Src\\main.cpp                            0x00000000   Number         0  main.o ABSOLUTE
    Src\main.cpp                             0x00000000   Number         0  main.o ABSOLUTE
    dc.s                                     0x00000000   Number         0  dc.o ABSOLUTE
    RESET                                    0x08000000   Section      292  startup_stm32l1xx_mdp.o(RESET)
    !!!main                                  0x08000124   Section        8  __main.o(!!!main)
    !!!scatter                               0x0800012c   Section       52  __scatter.o(!!!scatter)
    !!handler_copy                           0x08000160   Section       26  __scatter_copy.o(!!handler_copy)
    !!handler_zi                             0x0800017c   Section       28  __scatter_zi.o(!!handler_zi)
    .ARM.Collect$$_printf_percent$$00000000  0x08000198   Section        0  _printf_percent.o(.ARM.Collect$$_printf_percent$$00000000)
    .ARM.Collect$$_printf_percent$$00000001  0x08000198   Section        6  _printf_n.o(.ARM.Collect$$_printf_percent$$00000001)
    .ARM.Collect$$_printf_percent$$00000002  0x0800019e   Section        6  _printf_p.o(.ARM.Collect$$_printf_percent$$00000002)
    .ARM.Collect$$_printf_percent$$00000003  0x080001a4   Section        6  _printf_f.o(.ARM.Collect$$_printf_percent$$00000003)
    .ARM.Collect$$_printf_percent$$00000004  0x080001aa   Section        6  _printf_e.o(.ARM.Collect$$_printf_percent$$00000004)
    .ARM.Collect$$_printf_percent$$00000005  0x080001b0   Section        6  _printf_g.o(.ARM.Collect$$_printf_percent$$00000005)
    .ARM.Collect$$_printf_percent$$00000006  0x080001b6   Section        6  _printf_a.o(.ARM.Collect$$_printf_percent$$00000006)
    .ARM.Collect$$_printf_percent$$00000007  0x080001bc   Section       10  _printf_ll.o(.ARM.Collect$$_printf_percent$$00000007)
    .ARM.Collect$$_printf_percent$$00000008  0x080001c6   Section        6  _printf_i.o(.ARM.Collect$$_printf_percent$$00000008)
    .ARM.Collect$$_printf_percent$$00000009  0x080001cc   Section        6  _printf_d.o(.ARM.Collect$$_printf_percent$$00000009)
    .ARM.Collect$$_printf_percent$$0000000A  0x080001d2   Section        6  _printf_u.o(.ARM.Collect$$_printf_percent$$0000000A)
    .ARM.Collect$$_printf_percent$$0000000B  0x080001d8   Section        6  _printf_o.o(.ARM.Collect$$_printf_percent$$0000000B)
    .ARM.Collect$$_printf_percent$$0000000C  0x080001de   Section        6  _printf_x.o(.ARM.Collect$$_printf_percent$$0000000C)
    .ARM.Collect$$_printf_percent$$0000000D  0x080001e4   Section        6  _printf_lli.o(.ARM.Collect$$_printf_percent$$0000000D)
    .ARM.Collect$$_printf_percent$$0000000E  0x080001ea   Section        6  _printf_lld.o(.ARM.Collect$$_printf_percent$$0000000E)
    .ARM.Collect$$_printf_percent$$0000000F  0x080001f0   Section        6  _printf_llu.o(.ARM.Collect$$_printf_percent$$0000000F)
    .ARM.Collect$$_printf_percent$$00000010  0x080001f6   Section        6  _printf_llo.o(.ARM.Collect$$_printf_percent$$00000010)
    .ARM.Collect$$_printf_percent$$00000011  0x080001fc   Section        6  _printf_llx.o(.ARM.Collect$$_printf_percent$$00000011)
    .ARM.Collect$$_printf_percent$$00000012  0x08000202   Section       10  _printf_l.o(.ARM.Collect$$_printf_percent$$00000012)
    .ARM.Collect$$_printf_percent$$00000013  0x0800020c   Section        6  _printf_c.o(.ARM.Collect$$_printf_percent$$00000013)
    .ARM.Collect$$_printf_percent$$00000014  0x08000212   Section        6  _printf_s.o(.ARM.Collect$$_printf_percent$$00000014)
    .ARM.Collect$$_printf_percent$$00000015  0x08000218   Section        6  _printf_lc.o(.ARM.Collect$$_printf_percent$$00000015)
    .ARM.Collect$$_printf_percent$$00000016  0x0800021e   Section        6  _printf_ls.o(.ARM.Collect$$_printf_percent$$00000016)
    .ARM.Collect$$_printf_percent$$00000017  0x08000224   Section        4  _printf_percent_end.o(.ARM.Collect$$_printf_percent$$00000017)
    .ARM.Collect$$libinit$$00000000          0x08000228   Section        2  libinit.o(.ARM.Collect$$libinit$$00000000)
    .ARM.Collect$$libinit$$00000002          0x0800022a   Section        0  libinit2.o(.ARM.Collect$$libinit$$00000002)
    .ARM.Collect$$libinit$$00000004          0x0800022a   Section        0  libinit2.o(.ARM.Collect$$libinit$$00000004)
    .ARM.Collect$$libinit$$00000005          0x0800022a   Section        8  libinit2.o(.ARM.Collect$$libinit$$00000005)
    .ARM.Collect$$libinit$$0000000A          0x08000232   Section        0  libinit2.o(.ARM.Collect$$libinit$$0000000A)
    .ARM.Collect$$libinit$$0000000C          0x08000232   Section        0  libinit2.o(.ARM.Collect$$libinit$$0000000C)
    .ARM.Collect$$libinit$$0000000E          0x08000232   Section        0  libinit2.o(.ARM.Collect$$libinit$$0000000E)
    .ARM.Collect$$libinit$$0000000F          0x08000232   Section        6  libinit2.o(.ARM.Collect$$libinit$$0000000F)
    .ARM.Collect$$libinit$$00000011          0x08000238   Section        0  libinit2.o(.ARM.Collect$$libinit$$00000011)
    .ARM.Collect$$libinit$$00000012          0x08000238   Section       12  libinit2.o(.ARM.Collect$$libinit$$00000012)
    .ARM.Collect$$libinit$$00000013          0x08000244   Section        0  libinit2.o(.ARM.Collect$$libinit$$00000013)
    .ARM.Collect$$libinit$$00000015          0x08000244   Section        0  libinit2.o(.ARM.Collect$$libinit$$00000015)
    .ARM.Collect$$libinit$$00000016          0x08000244   Section       10  libinit2.o(.ARM.Collect$$libinit$$00000016)
    .ARM.Collect$$libinit$$00000017          0x0800024e   Section        0  libinit2.o(.ARM.Collect$$libinit$$00000017)
    .ARM.Collect$$libinit$$00000019          0x0800024e   Section        0  libinit2.o(.ARM.Collect$$libinit$$00000019)
    .ARM.Collect$$libinit$$0000001B          0x0800024e   Section        0  libinit2.o(.ARM.Collect$$libinit$$0000001B)
    .ARM.Collect$$libinit$$0000001D          0x0800024e   Section        0  libinit2.o(.ARM.Collect$$libinit$$0000001D)
    .ARM.Collect$$libinit$$0000001F          0x0800024e   Section        0  libinit2.o(.ARM.Collect$$libinit$$0000001F)
    .ARM.Collect$$libinit$$00000021          0x0800024e   Section        0  libinit2.o(.ARM.Collect$$libinit$$00000021)
    .ARM.Collect$$libinit$$00000023          0x0800024e   Section        0  libinit2.o(.ARM.Collect$$libinit$$00000023)
    .ARM.Collect$$libinit$$00000025          0x0800024e   Section        0  libinit2.o(.ARM.Collect$$libinit$$00000025)
    .ARM.Collect$$libinit$$0000002C          0x0800024e   Section        0  libinit2.o(.ARM.Collect$$libinit$$0000002C)
    .ARM.Collect$$libinit$$0000002E          0x0800024e   Section        0  libinit2.o(.ARM.Collect$$libinit$$0000002E)
    .ARM.Collect$$libinit$$00000030          0x0800024e   Section        0  libinit2.o(.ARM.Collect$$libinit$$00000030)
    .ARM.Collect$$libinit$$00000031          0x0800024e   Section        4  libinit2.o(.ARM.Collect$$libinit$$00000031)
    .ARM.Collect$$libinit$$00000032          0x08000252   Section        0  libinit2.o(.ARM.Collect$$libinit$$00000032)
    .ARM.Collect$$libinit$$00000033          0x08000252   Section        2  libinit2.o(.ARM.Collect$$libinit$$00000033)
    .ARM.Collect$$libshutdown$$00000000      0x08000254   Section        2  libshutdown.o(.ARM.Collect$$libshutdown$$00000000)
    .ARM.Collect$$libshutdown$$00000002      0x08000256   Section        0  libshutdown2.o(.ARM.Collect$$libshutdown$$00000002)
    .ARM.Collect$$libshutdown$$00000004      0x08000256   Section        0  libshutdown2.o(.ARM.Collect$$libshutdown$$00000004)
    .ARM.Collect$$libshutdown$$00000007      0x08000256   Section        0  libshutdown2.o(.ARM.Collect$$libshutdown$$00000007)
    .ARM.Collect$$libshutdown$$0000000A      0x08000256   Section        0  libshutdown2.o(.ARM.Collect$$libshutdown$$0000000A)
    .ARM.Collect$$libshutdown$$0000000C      0x08000256   Section        0  libshutdown2.o(.ARM.Collect$$libshutdown$$0000000C)
    .ARM.Collect$$libshutdown$$0000000F      0x08000256   Section        0  libshutdown2.o(.ARM.Collect$$libshutdown$$0000000F)
    .ARM.Collect$$libshutdown$$00000010      0x08000256   Section        2  libshutdown2.o(.ARM.Collect$$libshutdown$$00000010)
    .ARM.Collect$$rtentry$$00000000          0x08000258   Section        0  __rtentry.o(.ARM.Collect$$rtentry$$00000000)
    .ARM.Collect$$rtentry$$00000002          0x08000258   Section        0  __rtentry2.o(.ARM.Collect$$rtentry$$00000002)
    .ARM.Collect$$rtentry$$00000004          0x08000258   Section        6  __rtentry4.o(.ARM.Collect$$rtentry$$00000004)
    .ARM.Collect$$rtentry$$00000009          0x0800025e   Section        0  __rtentry2.o(.ARM.Collect$$rtentry$$00000009)
    .ARM.Collect$$rtentry$$0000000A          0x0800025e   Section        4  __rtentry2.o(.ARM.Collect$$rtentry$$0000000A)
    .ARM.Collect$$rtentry$$0000000C          0x08000262   Section        0  __rtentry2.o(.ARM.Collect$$rtentry$$0000000C)
    .ARM.Collect$$rtentry$$0000000D          0x08000262   Section        8  __rtentry2.o(.ARM.Collect$$rtentry$$0000000D)
    .ARM.Collect$$rtexit$$00000000           0x0800026a   Section        2  rtexit.o(.ARM.Collect$$rtexit$$00000000)
    .ARM.Collect$$rtexit$$00000002           0x0800026c   Section        0  rtexit2.o(.ARM.Collect$$rtexit$$00000002)
    .ARM.Collect$$rtexit$$00000003           0x0800026c   Section        4  rtexit2.o(.ARM.Collect$$rtexit$$00000003)
    .ARM.Collect$$rtexit$$00000004           0x08000270   Section        6  rtexit2.o(.ARM.Collect$$rtexit$$00000004)
    .emb_text                                0x08000278   Section        0  maybetermalloc1.o(.emb_text)
    .text                                    0x08000278   Section       64  startup_stm32l1xx_mdp.o(.text)
    .text                                    0x080002b8   Section       32  rtoscontext.o(.text)
    .text                                    0x080002d8   Section        0  h1_alloc.o(.text)
    .text                                    0x08000336   Section        0  h1_free.o(.text)
    .text                                    0x08000384   Section        0  c89vsnprintf.o(.text)
    .text                                    0x080003b8   Section        0  abort.o(.text)
    .text                                    0x080003ce   Section        0  heapauxi.o(.text)
    .text                                    0x080003d4   Section        0  init_aeabi.o(.text)
    .text                                    0x080003f8   Section        0  sys_exit.o(.text)
    .text                                    0x08000404   Section        8  rt_heap_descriptor_intlibspace.o(.text)
    .text                                    0x0800040c   Section        0  hguard.o(.text)
    .text                                    0x08000410   Section        0  init_alloc.o(.text)
    .text                                    0x0800049a   Section        0  h1_init.o(.text)
    .text                                    0x080004a8   Section        0  _printf_pad.o(.text)
    .text                                    0x080004f6   Section        0  _printf_truncate.o(.text)
    .text                                    0x0800051a   Section        0  _printf_str.o(.text)
    .text                                    0x0800056c   Section        0  _printf_dec.o(.text)
    .text                                    0x080005e4   Section        0  _printf_charcount.o(.text)
    .text                                    0x0800060c   Section        0  _printf_char_common.o(.text)
    _printf_input_char                       0x0800060d   Thumb Code    10  _printf_char_common.o(.text)
    .text                                    0x0800063c   Section        0  _sputc.o(.text)
    .text                                    0x08000646   Section        0  _snputc.o(.text)
    .text                                    0x08000658   Section        0  _printf_wctomb.o(.text)
    .text                                    0x08000714   Section        0  _printf_longlong_dec.o(.text)
    .text                                    0x08000790   Section        0  _printf_oct_int_ll.o(.text)
    _printf_longlong_oct_internal            0x08000791   Thumb Code     0  _printf_oct_int_ll.o(.text)
    .text                                    0x08000800   Section        0  _printf_hex_int_ll_ptr.o(.text)
    _printf_hex_common                       0x08000801   Thumb Code     0  _printf_hex_int_ll_ptr.o(.text)
    .text                                    0x08000894   Section        0  __printf_flags_ss_wp.o(.text)
    .text                                    0x08000a1c   Section        0  defsig_abrt_outer.o(.text)
    .text                                    0x08000a2c   Section        8  libspace.o(.text)
    .text                                    0x08000a34   Section        2  use_no_semi.o(.text)
    .text                                    0x08000a36   Section        0  h1_extend.o(.text)
    .text                                    0x08000a36   Section        0  indicate_semi.o(.text)
    .text                                    0x08000a6a   Section      138  lludiv10.o(.text)
    .text                                    0x08000af4   Section        0  _printf_intcommon.o(.text)
    .text                                    0x08000ba6   Section        0  _printf_fp_dec.o(.text)
    _fp_digits                               0x08000ba9   Thumb Code   432  _printf_fp_dec.o(.text)
    .text                                    0x08000fc4   Section        0  _printf_char.o(.text)
    .text                                    0x08000ff0   Section        0  _printf_wchar.o(.text)
    .text                                    0x0800101c   Section        0  _wcrtomb.o(.text)
    .text                                    0x0800105c   Section        0  defsig_exit.o(.text)
    .text                                    0x08001068   Section        0  defsig_abrt_inner.o(.text)
    .text                                    0x08001098   Section        0  defsig_rtmem_outer.o(.text)
    .text                                    0x080010a6   Section       74  sys_stackheap_outer.o(.text)
    .text                                    0x080010f0   Section       16  rt_ctype_table.o(.text)
    .text                                    0x08001100   Section        8  rt_locale_intlibspace.o(.text)
    .text                                    0x08001108   Section        0  _printf_fp_infnan.o(.text)
    .text                                    0x08001188   Section        0  bigflt0.o(.text)
    .text                                    0x0800126c   Section        0  exit.o(.text)
    .text                                    0x0800127e   Section        0  defsig_general.o(.text)
    .text                                    0x080012b0   Section        0  defsig_rtmem_inner.o(.text)
    .text                                    0x08001300   Section        0  sys_wrch.o(.text)
    .text                                    0x08001310   Section      128  strcmpv7m.o(.text)
    CL$$btod_d2e                             0x08001390   Section       62  btod.o(CL$$btod_d2e)
    CL$$btod_d2e_denorm_low                  0x080013ce   Section       70  btod.o(CL$$btod_d2e_denorm_low)
    CL$$btod_d2e_norm_op1                    0x08001414   Section       96  btod.o(CL$$btod_d2e_norm_op1)
    CL$$btod_div_common                      0x08001474   Section      824  btod.o(CL$$btod_div_common)
    CL$$btod_e2e                             0x080017ac   Section      220  btod.o(CL$$btod_e2e)
    CL$$btod_ediv                            0x08001888   Section       42  btod.o(CL$$btod_ediv)
    CL$$btod_emul                            0x080018b2   Section       42  btod.o(CL$$btod_emul)
    CL$$btod_mult_common                     0x080018dc   Section      580  btod.o(CL$$btod_mult_common)
    i.ADC1_IRQHandler                        0x08001b20   Section        0  lib.o(i.ADC1_IRQHandler)
    i.PendSV_Handler                         0x08001b48   Section        0  lib.o(i.PendSV_Handler)
    i.SysTick_Handler                        0x08001b74   Section        0  lib.o(i.SysTick_Handler)
    i.SystemInit                             0x08001bb0   Section        0  lib.o(i.SystemInit)
    i.TIM2_IRQHandler                        0x08001cf4   Section        0  lib.o(i.TIM2_IRQHandler)
    i.TIM3_IRQHandler                        0x08001d04   Section        0  lib.o(i.TIM3_IRQHandler)
    i.TIM4_IRQHandler                        0x08001d14   Section        0  lib.o(i.TIM4_IRQHandler)
    i.TIM5_IRQHandler                        0x08001d24   Section        0  lib.o(i.TIM5_IRQHandler)
    i.TIM6_IRQHandler                        0x08001d34   Section        0  lib.o(i.TIM6_IRQHandler)
    i.TIM7_IRQHandler                        0x08001d44   Section        0  lib.o(i.TIM7_IRQHandler)
    i.USART1_IRQHandler                      0x08001d54   Section        0  lib.o(i.USART1_IRQHandler)
    i.USART2_IRQHandler                      0x08001d64   Section        0  lib.o(i.USART2_IRQHandler)
    i.USART3_IRQHandler                      0x08001d74   Section        0  lib.o(i.USART3_IRQHandler)
    i.USB_LP_IRQHandler                      0x08001d84   Section        0  lib.o(i.USB_LP_IRQHandler)
    i._Z16__NVIC_EnableIRQ4IRQn              0x08001d94   Section        0  lib.o(i._Z16__NVIC_EnableIRQ4IRQn)
    __NVIC_EnableIRQ(IRQn)                   0x08001d95   Thumb Code    26  lib.o(i._Z16__NVIC_EnableIRQ4IRQn)
    i._ZN10cHwDisplayC2Ehh                   0x08001db0   Section        0  lib.o(i._ZN10cHwDisplayC2Ehh)
    i._ZN10cHwTimer_N3isrEv                  0x08001dc0   Section        0  lib.o(i._ZN10cHwTimer_N3isrEv)
    i._ZN10cHwTimer_NC1ENS_7TimerIdEj        0x08001dd4   Section        0  lib.o(i._ZN10cHwTimer_NC1ENS_7TimerIdEj)
    i._ZN11cDevDigital3getEv                 0x08001fac   Section        0  lib.o(i._ZN11cDevDigital3getEv)
    i._ZN11cDevDigital3setEb                 0x08001fc6   Section        0  lib.o(i._ZN11cDevDigital3setEb)
    i._ZN11cDevDigital8getEventEv            0x08001fe6   Section        0  lib.o(i._ZN11cDevDigital8getEventEv)
    i._ZN11cDevDigitalC1ER7cHwPorthNS_4ModeEb 0x08002010   Section        0  lib.o(i._ZN11cDevDigitalC1ER7cHwPorthNS_4ModeEb)
    i._ZN11cDevDisplayC2Ev                   0x08002058   Section        0  lib.o(i._ZN11cDevDisplayC2Ev)
    i._ZN12cHwPinConfig3setENS_8FunctionEj   0x08002064   Section        0  lib.o(i._ZN12cHwPinConfig3setENS_8FunctionEj)
    i._ZN12cHwPinConfig3setEP12GPIO_TypeDefhjh 0x080020ec   Section        0  lib.o(i._ZN12cHwPinConfig3setEP12GPIO_TypeDefhjh)
    i._ZN12cHwSPImaster6Device10transceiveEPht 0x080021b2   Section        0  lib.o(i._ZN12cHwSPImaster6Device10transceiveEPht)
    i._ZN12cHwSPImaster6Device4stopEv        0x080021ec   Section        0  lib.o(i._ZN12cHwSPImaster6Device4stopEv)
    i._ZN12cHwSPImaster6Device5startEv       0x080021fa   Section        0  lib.o(i._ZN12cHwSPImaster6Device5startEv)
    i._ZN12cHwSPImaster6DeviceC1ERS_R7cHwPorth 0x08002208   Section        0  main.o(i._ZN12cHwSPImaster6DeviceC1ERS_R7cHwPorth)
    i._ZN12cHwSPImasterC2Ev                  0x08002254   Section        0  lib.o(i._ZN12cHwSPImasterC2Ev)
    i._ZN14cHwSPImaster_N14transceiveByteEh  0x08002260   Section        0  lib.o(i._ZN14cHwSPImaster_N14transceiveByteEh)
    i._ZN14cHwSPImaster_NC1ENS_6SPI_IDEN12cHwSPImaster4MODEENS1_11ClockPolPhaE 0x0800229c   Section        0  lib.o(i._ZN14cHwSPImaster_NC1ENS_6SPI_IDEN12cHwSPImaster4MODEENS1_11ClockPolPhaE)
    i._ZN15cDevDisplayChar6printfEhhhPKcz    0x080023f0   Section        0  lib.o(i._ZN15cDevDisplayChar6printfEhhhPKcz)
    i._ZN15cDevDisplayChar7refreshEv         0x08002456   Section        0  lib.o(i._ZN15cDevDisplayChar7refreshEv)
    i._ZN15cDevDisplayCharC1ER10cHwDisplay   0x08002464   Section        0  lib.o(i._ZN15cDevDisplayCharC1ER10cHwDisplay)
    i._ZN17cHwDisp_DIP204spi11gotoTextPosEhh 0x08002488   Section        0  disp_dip204spi.o(i._ZN17cHwDisp_DIP204spi11gotoTextPosEhh)
    i._ZN17cHwDisp_DIP204spi4initEv          0x080024b6   Section        0  disp_dip204spi.o(i._ZN17cHwDisp_DIP204spi4initEv)
    i._ZN17cHwDisp_DIP204spi5clearEv         0x080024e4   Section        0  disp_dip204spi.o(i._ZN17cHwDisp_DIP204spi5clearEv)
    i._ZN17cHwDisp_DIP204spi7putCharEc       0x080024f2   Section        0  disp_dip204spi.o(i._ZN17cHwDisp_DIP204spi7putCharEc)
    i._ZN17cHwDisp_DIP204spi7refreshEv       0x08002514   Section        0  disp_dip204spi.o(i._ZN17cHwDisp_DIP204spi7refreshEv)
    i._ZN17cHwDisp_DIP204spi8waitBusyEv      0x08002516   Section        0  disp_dip204spi.o(i._ZN17cHwDisp_DIP204spi8waitBusyEv)
    i._ZN17cHwDisp_DIP204spi8writeCmdEh      0x08002550   Section        0  disp_dip204spi.o(i._ZN17cHwDisp_DIP204spi8writeCmdEh)
    i._ZN17cHwDisp_DIP204spi8writeDatEh      0x0800257e   Section        0  disp_dip204spi.o(i._ZN17cHwDisp_DIP204spi8writeDatEh)
    i._ZN17cHwDisp_DIP204spiC1ERN12cHwSPImaster6DeviceE 0x080025ac   Section        0  disp_dip204spi.o(i._ZN17cHwDisp_DIP204spiC1ERN12cHwSPImaster6DeviceE)
    i._ZN18cDevControlEncoder3getEv          0x080025d4   Section        0  lib.o(i._ZN18cDevControlEncoder3getEv)
    i._ZN18cDevControlEncoder6updateEv       0x08002638   Section        0  lib.o(i._ZN18cDevControlEncoder6updateEv)
    i._ZN18cDevControlEncoder7getCtrlEv      0x080026be   Section        0  lib.o(i._ZN18cDevControlEncoder7getCtrlEv)
    i._ZN18cDevControlEncoderC2EP11cDevDigitalP8cHwTimer 0x080026e4   Section        0  lib.o(i._ZN18cDevControlEncoderC2EP11cDevDigitalP8cHwTimer)
    i._ZN28cDevControlEncoderRotaryKnob12getIncrementEv 0x0800273c   Section        0  lib.o(i._ZN28cDevControlEncoderRotaryKnob12getIncrementEv)
    i._ZN28cDevControlEncoderRotaryKnobC1EP11cDevDigitalS1_S1_P8cHwTimer 0x080027b0   Section        0  lib.o(i._ZN28cDevControlEncoderRotaryKnobC1EP11cDevDigitalS1_S1_P8cHwTimer)
    i._ZN5cList3addEPNS_4ItemE               0x080027e0   Section        0  lib.o(i._ZN5cList3addEPNS_4ItemE)
    i._ZN5cList4Item6updateEv                0x0800280c   Section        0  lib.o(i._ZN5cList4Item6updateEv)
    i._ZN5cList4ItemC1EPS_                   0x08002810   Section        0  lib.o(i._ZN5cList4ItemC1EPS_)
    i._ZN5cList9updateAllEv                  0x08002830   Section        0  lib.o(i._ZN5cList9updateAllEv)
    i._ZN5cListC1Ev                          0x08002848   Section        0  lib.o(i._ZN5cListC1Ev)
    i._ZN6cHwADC3getEh                       0x0800284e   Section        0  lib.o(i._ZN6cHwADC3getEh)
    i._ZN6cHwADC3isrEv                       0x08002876   Section        0  lib.o(i._ZN6cHwADC3isrEv)
    i._ZN6cHwADC6enableEhh                   0x080028ce   Section        0  lib.o(i._ZN6cHwADC6enableEhh)
    i._ZN6cHwADC6updateEv                    0x08002938   Section        0  lib.o(i._ZN6cHwADC6updateEv)
    i._ZN6cHwADCC2EhP8cHwTimer               0x0800296c   Section        0  lib.o(i._ZN6cHwADCC2EhP8cHwTimer)
    i._ZN6cHwDACC2Eh                         0x080029c0   Section        0  lib.o(i._ZN6cHwDACC2Eh)
    i._ZN7cHwPort3Pin3clrEv                  0x080029cc   Section        0  lib.o(i._ZN7cHwPort3Pin3clrEv)
    i._ZN7cHwPort3Pin3getEv                  0x080029dc   Section        0  lib.o(i._ZN7cHwPort3Pin3getEv)
    i._ZN7cHwPort3Pin3setEb                  0x080029f6   Section        0  lib.o(i._ZN7cHwPort3Pin3setEb)
    i._ZN7cHwPort3Pin3setEv                  0x08002a16   Section        0  lib.o(i._ZN7cHwPort3Pin3setEv)
    i._ZN7cHwPort3Pin7setModeENS_4ModeE      0x08002a26   Section        0  lib.o(i._ZN7cHwPort3Pin7setModeENS_4ModeE)
    i._ZN7cHwPort3PinC1ERS_h                 0x08002a3c   Section        0  lib.o(i._ZN7cHwPort3PinC1ERS_h)
    i._ZN7cSystem15disableWatchdogEv         0x08002a54   Section        0  lib.o(i._ZN7cSystem15disableWatchdogEv)
    i._ZN7cSystem15enableInterruptEv         0x08002a58   Section        0  lib.o(i._ZN7cSystem15enableInterruptEv)
    i._ZN7cSystem16disableInterruptEv        0x08002a80   Section        0  lib.o(i._ZN7cSystem16disableInterruptEv)
    i._ZN7cSystemC1Eh                        0x08002a98   Section        0  lib.o(i._ZN7cSystemC1Eh)
    i._ZN8cHwADC_07startChEh                 0x08002aac   Section        0  lib.o(i._ZN8cHwADC_07startChEh)
    i._ZN8cHwADC_08configChEhh               0x08002acc   Section        0  lib.o(i._ZN8cHwADC_08configChEhh)
    i._ZN8cHwADC_09getResultEv               0x08002b44   Section        0  lib.o(i._ZN8cHwADC_09getResultEv)
    i._ZN8cHwADC_0C1EP8cHwTimer              0x08002b54   Section        0  lib.o(i._ZN8cHwADC_0C1EP8cHwTimer)
    i._ZN8cHwDAC_03setEth                    0x08002bc0   Section        0  lib.o(i._ZN8cHwDAC_03setEth)
    i._ZN8cHwDAC_06enableEh                  0x08002bec   Section        0  lib.o(i._ZN8cHwDAC_06enableEh)
    i._ZN8cHwDAC_0C1Ev                       0x08002c30   Section        0  lib.o(i._ZN8cHwDAC_0C1Ev)
    i._ZN8cHwTimer10isrHandlerEv             0x08002c5c   Section        0  lib.o(i._ZN8cHwTimer10isrHandlerEv)
    i._ZN8cHwTimer3addEPN5cList4ItemE        0x08002c6a   Section        0  lib.o(i._ZN8cHwTimer3addEPN5cList4ItemE)
    i._ZN8cHwUSB_03isrEv                     0x08002c7c   Section        0  lib.o(i._ZN8cHwUSB_03isrEv)
    i._ZN8cHwUSB_08EPconfig9clrCTR_RXEv      0x08002d2c   Section        0  lib.o(i._ZN8cHwUSB_08EPconfig9clrCTR_RXEv)
    i._ZN8cHwUSB_08EPconfig9clrCTR_TXEv      0x08002d38   Section        0  lib.o(i._ZN8cHwUSB_08EPconfig9clrCTR_TXEv)
    i._ZN9cHwPort_N10setPinModeEhN7cHwPort4ModeE 0x08002d44   Section        0  lib.o(i._ZN9cHwPort_N10setPinModeEhN7cHwPort4ModeE)
    i._ZN9cHwPort_N3clrEj                    0x08002dcc   Section        0  lib.o(i._ZN9cHwPort_N3clrEj)
    i._ZN9cHwPort_N3getEv                    0x08002dd2   Section        0  lib.o(i._ZN9cHwPort_N3getEv)
    i._ZN9cHwPort_N3setEj                    0x08002dda   Section        0  lib.o(i._ZN9cHwPort_N3setEj)
    i._ZN9cHwPort_NC1ENS_6PortIdE            0x08002de0   Section        0  lib.o(i._ZN9cHwPort_NC1ENS_6PortIdE)
    i._ZN9cHwUART_N3isrEv                    0x08002ebc   Section        0  lib.o(i._ZN9cHwUART_N3isrEv)
    i._Znaj                                  0x08002eee   Section        0  lib.o(i._Znaj)
    i.__ARM_fpclassify                       0x08002efa   Section        0  fpclassify.o(i.__ARM_fpclassify)
    i.__cxa_pure_virtual                     0x08002f22   Section        0  lib.o(i.__cxa_pure_virtual)
    i.__sti___8_main_cpp_sys                 0x08002f28   Section        0  main.o(i.__sti___8_main_cpp_sys)
    __sti___8_main_cpp_sys                   0x08002f29   Thumb Code   250  main.o(i.__sti___8_main_cpp_sys)
    i._is_digit                              0x08003078   Section        0  __printf_wp.o(i._is_digit)
    i.main                                   0x08003088   Section        0  main.o(i.main)
    locale$$code                             0x08003234   Section       44  lc_numeric_c.o(locale$$code)
    locale$$code                             0x08003260   Section       44  lc_ctype_c.o(locale$$code)
    t._ZN5cFifoIN18cDevControlEncoder6tEventEE6isFullEv 0x0800328c   Section        0  lib.o(t._ZN5cFifoIN18cDevControlEncoder6tEventEE6isFullEv)
    t._ZN5cFifoIN18cDevControlEncoder6tEventEElsERKS1_ 0x080032ac   Section        0  lib.o(t._ZN5cFifoIN18cDevControlEncoder6tEventEElsERKS1_)
    x$fpl$ddiv                               0x080032ec   Section      688  ddiv.o(x$fpl$ddiv)
    ddiv_entry                               0x080032f3   Thumb Code     0  ddiv.o(x$fpl$ddiv)
    x$fpl$dfixu                              0x0800359c   Section       90  dfixu.o(x$fpl$dfixu)
    x$fpl$dfltu                              0x080035f6   Section       38  dflt_clz.o(x$fpl$dfltu)
    x$fpl$dmul                               0x0800361c   Section      340  dmul.o(x$fpl$dmul)
    x$fpl$dnaninf                            0x08003770   Section      156  dnaninf.o(x$fpl$dnaninf)
    x$fpl$dretinf                            0x0800380c   Section       12  dretinf.o(x$fpl$dretinf)
    x$fpl$fcmpinf                            0x08003818   Section       24  fcmpi.o(x$fpl$fcmpinf)
    x$fpl$fdiv                               0x08003830   Section      388  fdiv.o(x$fpl$fdiv)
    _fdiv1                                   0x08003831   Thumb Code     0  fdiv.o(x$fpl$fdiv)
    x$fpl$ffixu                              0x080039b4   Section       62  ffixu.o(x$fpl$ffixu)
    x$fpl$ffltu                              0x080039f4   Section       38  fflt_clz.o(x$fpl$ffltu)
    x$fpl$fleqf                              0x08003a1c   Section      104  fleqf.o(x$fpl$fleqf)
    x$fpl$fmul                               0x08003a84   Section      258  fmul.o(x$fpl$fmul)
    x$fpl$fnaninf                            0x08003b86   Section      140  fnaninf.o(x$fpl$fnaninf)
    x$fpl$fretinf                            0x08003c12   Section       10  fretinf.o(x$fpl$fretinf)
    x$fpl$frleqf                             0x08003c1c   Section       98  frleqf.o(x$fpl$frleqf)
    x$fpl$printf1                            0x08003c7e   Section        4  printf1.o(x$fpl$printf1)
    x$fpl$usenofp                            0x08003c82   Section        0  usenofp.o(x$fpl$usenofp)
    .constdata                               0x08003c84   Section        8  _printf_wctomb.o(.constdata)
    initial_mbstate                          0x08003c84   Data           8  _printf_wctomb.o(.constdata)
    .constdata                               0x08003c8c   Section       40  _printf_hex_int_ll_ptr.o(.constdata)
    uc_hextab                                0x08003c8c   Data          20  _printf_hex_int_ll_ptr.o(.constdata)
    lc_hextab                                0x08003ca0   Data          20  _printf_hex_int_ll_ptr.o(.constdata)
    .constdata                               0x08003cb4   Section       17  __printf_flags_ss_wp.o(.constdata)
    maptable                                 0x08003cb4   Data          17  __printf_flags_ss_wp.o(.constdata)
    .constdata                               0x08003cc8   Section      148  bigflt0.o(.constdata)
    tenpwrs_x                                0x08003cc8   Data          60  bigflt0.o(.constdata)
    tenpwrs_i                                0x08003d04   Data          64  bigflt0.o(.constdata)
    .constdata__ZTV10cHwDisplay              0x08003d5c   Section       32  lib.o(.constdata__ZTV10cHwDisplay)
    .constdata__ZTV10cHwTimer_N              0x08003d7c   Section       28  lib.o(.constdata__ZTV10cHwTimer_N)
    .constdata__ZTV11cDevDigital             0x08003d98   Section       48  lib.o(.constdata__ZTV11cDevDigital)
    .constdata__ZTV11cDevDisplay             0x08003dc8   Section       20  lib.o(.constdata__ZTV11cDevDisplay)
    .constdata__ZTV12cHwSPImaster            0x08003ddc   Section       16  lib.o(.constdata__ZTV12cHwSPImaster)
    .constdata__ZTV14cHwSPImaster_N          0x08003dec   Section       16  lib.o(.constdata__ZTV14cHwSPImaster_N)
    .constdata__ZTV15cDevDisplayChar         0x08003dfc   Section       24  lib.o(.constdata__ZTV15cDevDisplayChar)
    .constdata__ZTV17cHwDisp_DIP204spi       0x08003e14   Section       32  disp_dip204spi.o(.constdata__ZTV17cHwDisp_DIP204spi)
    .constdata__ZTV18cDevControlEncoder      0x08003e34   Section       20  lib.o(.constdata__ZTV18cDevControlEncoder)
    .constdata__ZTV28cDevControlEncoderRotaryKnob 0x08003e48   Section       20  lib.o(.constdata__ZTV28cDevControlEncoderRotaryKnob)
    .constdata__ZTV6cHwADC                   0x08003e5c   Section       40  lib.o(.constdata__ZTV6cHwADC)
    .constdata__ZTV6cHwDAC                   0x08003e84   Section       20  lib.o(.constdata__ZTV6cHwDAC)
    .constdata__ZTV7cHwPort                  0x08003e98   Section       32  lib.o(.constdata__ZTV7cHwPort)
    .constdata__ZTV8cHwADC_0                 0x08003eb8   Section       40  lib.o(.constdata__ZTV8cHwADC_0)
    .constdata__ZTV8cHwDAC_0                 0x08003ee0   Section       20  lib.o(.constdata__ZTV8cHwDAC_0)
    .constdata__ZTV8cHwTimer                 0x08003ef4   Section       28  lib.o(.constdata__ZTV8cHwTimer)
    .constdata__ZTV9cHwPort_N                0x08003f10   Section       32  lib.o(.constdata__ZTV9cHwPort_N)
    .constdata__ZTVN12cHwSPImaster6DeviceE   0x08003f30   Section       44  lib.o(.constdata__ZTVN12cHwSPImaster6DeviceE)
    .constdata__ZTVN5cList4ItemE             0x08003f5c   Section       12  lib.o(.constdata__ZTVN5cList4ItemE)
    .constdata__ZTVN7cHwPort3PinE            0x08003f68   Section       28  lib.o(.constdata__ZTVN7cHwPort3PinE)
    locale$$data                             0x08003fa4   Section       28  lc_numeric_c.o(locale$$data)
    __lcnum_c_name                           0x08003fa8   Data           2  lc_numeric_c.o(locale$$data)
    __lcnum_c_start                          0x08003fb0   Data           0  lc_numeric_c.o(locale$$data)
    __lcnum_c_point                          0x08003fbc   Data           0  lc_numeric_c.o(locale$$data)
    __lcnum_c_thousands                      0x08003fbe   Data           0  lc_numeric_c.o(locale$$data)
    __lcnum_c_grouping                       0x08003fbf   Data           0  lc_numeric_c.o(locale$$data)
    locale$$data                             0x08003fc0   Section      272  lc_ctype_c.o(locale$$data)
    __lcnum_c_end                            0x08003fc0   Data           0  lc_numeric_c.o(locale$$data)
    __lcctype_c_name                         0x08003fc4   Data           2  lc_ctype_c.o(locale$$data)
    __lcctype_c_start                        0x08003fcc   Data           0  lc_ctype_c.o(locale$$data)
    .init_array                              0x080040d0   Section        4  main.o(.init_array)
    __lcctype_c_end                          0x080040d0   Data           0  lc_ctype_c.o(locale$$data)
    .init_array                              0x080040d4   Section        0  init_aeabi.o(.init_array)
    .data                                    0x20000000   Section      164  main.o(.data)
    .data                                    0x200000a4   Section       80  lib.o(.data)
    stackPointer                             0x200000e4   Data           4  lib.o(.data)
    stackPointer                             0x200000e8   Data           4  lib.o(.data)
    _ZGVret                                  0x200000ec   Data           4  lib.o(.data)
    ret                                      0x200000f0   Data           4  lib.o(.data)
    .bss                                     0x200000f4   Section      316  main.o(.bss)
    .bss                                     0x20000230   Section       96  libspace.o(.bss)
    HEAP                                     0x20000290   Section     3072  startup_stm32l1xx_mdp.o(HEAP)
    Heap_Mem                                 0x20000290   Data        3072  startup_stm32l1xx_mdp.o(HEAP)
    STACK                                    0x20000e90   Section     3072  startup_stm32l1xx_mdp.o(STACK)
    Stack_Mem                                0x20000e90   Data        3072  startup_stm32l1xx_mdp.o(STACK)
    __initial_sp                             0x20001a90   Data           0  startup_stm32l1xx_mdp.o(STACK)

    Global Symbols

    Symbol Name                              Value     Ov Type        Size  Object(Section)

    BuildAttributes$$THM_ISAv4$P$D$K$B$S$PE$A:L22UL41UL21$X:L11$S22US41US21$IEEE1$IW$USESV6$~STKCKD$USESV7$~SHL$OTIME$ROPI$IEEEJ$EBA8$UX$STANDARDLIB$REQ8$PRES8$EABIv2 0x00000000   Number         0  anon$$obj.o ABSOLUTE
    __ARM_use_no_argv                        0x00000000   Number         0  main.o ABSOLUTE
    _printf_flags                            0x00000000   Number         0  printf_stubs.o ABSOLUTE
    _printf_return_value                     0x00000000   Number         0  printf_stubs.o ABSOLUTE
    _printf_sizespec                         0x00000000   Number         0  printf_stubs.o ABSOLUTE
    _printf_widthprec                        0x00000000   Number         0  printf_stubs.o ABSOLUTE
    SHT$$ARM_EXIDX$$Base                      - Undefined Reference
    SHT$$ARM_EXIDX$$Limit                     - Undefined Reference
    __ARM::default_unexpected_handler()       - Undefined Weak Reference
    __ARM_exceptions_buffer_required          - Undefined Weak Reference
    __ARM_exceptions_init                     - Undefined Weak Reference
    __aeabi_unwind_cpp_pr1                    - Undefined Weak Reference
    __aeabi_unwind_cpp_pr2                    - Undefined Weak Reference
    __alloca_initialize                       - Undefined Weak Reference
    __arm_preinit_                            - Undefined Weak Reference
    __cxa_begin_cleanup                       - Undefined Weak Reference
    __cxa_call_unexpected                     - Undefined Weak Reference
    __cxa_finalize                            - Undefined Weak Reference
    __cxa_type_match                          - Undefined Weak Reference
    __sigvec_lookup                           - Undefined Weak Reference
    __user_heap_extent                        - Undefined Weak Reference
    _atexit_init                              - Undefined Weak Reference
    _call_atexit_fns                          - Undefined Weak Reference
    _clock_init                               - Undefined Weak Reference
    _fp_trap_init                             - Undefined Weak Reference
    _fp_trap_shutdown                         - Undefined Weak Reference
    _get_lc_collate                           - Undefined Weak Reference
    _get_lc_monetary                          - Undefined Weak Reference
    _get_lc_time                              - Undefined Weak Reference
    _getenv_init                              - Undefined Weak Reference
    _handle_redirection                       - Undefined Weak Reference
    _initio                                   - Undefined Weak Reference
    _mutex_acquire                            - Undefined Weak Reference
    _mutex_free                               - Undefined Weak Reference
    _mutex_release                            - Undefined Weak Reference
    _printf_fp_hex                            - Undefined Weak Reference
    _printf_mbtowc                            - Undefined Weak Reference
    _printf_wc                                - Undefined Weak Reference
    _rand_init                                - Undefined Weak Reference
    _signal_finish                            - Undefined Weak Reference
    _signal_init                              - Undefined Weak Reference
    _terminateio                              - Undefined Weak Reference
    __Vectors_Size                           0x00000124   Number         0  startup_stm32l1xx_mdp.o ABSOLUTE
    __Vectors                                0x08000000   Data           4  startup_stm32l1xx_mdp.o(RESET)
    __Vectors_End                            0x08000124   Data           0  startup_stm32l1xx_mdp.o(RESET)
    __main                                   0x08000125   Thumb Code     8  __main.o(!!!main)
    __scatterload                            0x0800012d   Thumb Code     0  __scatter.o(!!!scatter)
    __scatterload_rt2                        0x0800012d   Thumb Code    44  __scatter.o(!!!scatter)
    __scatterload_rt2_thumb_only             0x0800012d   Thumb Code     0  __scatter.o(!!!scatter)
    __scatterload_null                       0x0800013b   Thumb Code     0  __scatter.o(!!!scatter)
    __scatterload_copy                       0x08000161   Thumb Code    26  __scatter_copy.o(!!handler_copy)
    __scatterload_zeroinit                   0x0800017d   Thumb Code    28  __scatter_zi.o(!!handler_zi)
    _printf_n                                0x08000199   Thumb Code     0  _printf_n.o(.ARM.Collect$$_printf_percent$$00000001)
    _printf_percent                          0x08000199   Thumb Code     0  _printf_percent.o(.ARM.Collect$$_printf_percent$$00000000)
    _printf_p                                0x0800019f   Thumb Code     0  _printf_p.o(.ARM.Collect$$_printf_percent$$00000002)
    _printf_f                                0x080001a5   Thumb Code     0  _printf_f.o(.ARM.Collect$$_printf_percent$$00000003)
    _printf_e                                0x080001ab   Thumb Code     0  _printf_e.o(.ARM.Collect$$_printf_percent$$00000004)
    _printf_g                                0x080001b1   Thumb Code     0  _printf_g.o(.ARM.Collect$$_printf_percent$$00000005)
    _printf_a                                0x080001b7   Thumb Code     0  _printf_a.o(.ARM.Collect$$_printf_percent$$00000006)
    _printf_ll                               0x080001bd   Thumb Code     0  _printf_ll.o(.ARM.Collect$$_printf_percent$$00000007)
    _printf_i                                0x080001c7   Thumb Code     0  _printf_i.o(.ARM.Collect$$_printf_percent$$00000008)
    _printf_d                                0x080001cd   Thumb Code     0  _printf_d.o(.ARM.Collect$$_printf_percent$$00000009)
    _printf_u                                0x080001d3   Thumb Code     0  _printf_u.o(.ARM.Collect$$_printf_percent$$0000000A)
    _printf_o                                0x080001d9   Thumb Code     0  _printf_o.o(.ARM.Collect$$_printf_percent$$0000000B)
    _printf_x                                0x080001df   Thumb Code     0  _printf_x.o(.ARM.Collect$$_printf_percent$$0000000C)
    _printf_lli                              0x080001e5   Thumb Code     0  _printf_lli.o(.ARM.Collect$$_printf_percent$$0000000D)
    _printf_lld                              0x080001eb   Thumb Code     0  _printf_lld.o(.ARM.Collect$$_printf_percent$$0000000E)
    _printf_llu                              0x080001f1   Thumb Code     0  _printf_llu.o(.ARM.Collect$$_printf_percent$$0000000F)
    _printf_llo                              0x080001f7   Thumb Code     0  _printf_llo.o(.ARM.Collect$$_printf_percent$$00000010)
    _printf_llx                              0x080001fd   Thumb Code     0  _printf_llx.o(.ARM.Collect$$_printf_percent$$00000011)
    _printf_l                                0x08000203   Thumb Code     0  _printf_l.o(.ARM.Collect$$_printf_percent$$00000012)
    _printf_c                                0x0800020d   Thumb Code     0  _printf_c.o(.ARM.Collect$$_printf_percent$$00000013)
    _printf_s                                0x08000213   Thumb Code     0  _printf_s.o(.ARM.Collect$$_printf_percent$$00000014)
    _printf_lc                               0x08000219   Thumb Code     0  _printf_lc.o(.ARM.Collect$$_printf_percent$$00000015)
    _printf_ls                               0x0800021f   Thumb Code     0  _printf_ls.o(.ARM.Collect$$_printf_percent$$00000016)
    _printf_percent_end                      0x08000225   Thumb Code     0  _printf_percent_end.o(.ARM.Collect$$_printf_percent$$00000017)
    __rt_lib_init                            0x08000229   Thumb Code     0  libinit.o(.ARM.Collect$$libinit$$00000000)
    __rt_lib_init_fp_1                       0x0800022b   Thumb Code     0  libinit2.o(.ARM.Collect$$libinit$$00000002)
    __rt_lib_init_heap_2                     0x0800022b   Thumb Code     0  libinit2.o(.ARM.Collect$$libinit$$00000005)
    __rt_lib_init_preinit_1                  0x0800022b   Thumb Code     0  libinit2.o(.ARM.Collect$$libinit$$00000004)
    __rt_lib_init_heap_1                     0x08000233   Thumb Code     0  libinit2.o(.ARM.Collect$$libinit$$0000000A)
    __rt_lib_init_lc_common                  0x08000233   Thumb Code     0  libinit2.o(.ARM.Collect$$libinit$$0000000F)
    __rt_lib_init_rand_1                     0x08000233   Thumb Code     0  libinit2.o(.ARM.Collect$$libinit$$0000000E)
    __rt_lib_init_user_alloc_1               0x08000233   Thumb Code     0  libinit2.o(.ARM.Collect$$libinit$$0000000C)
    __rt_lib_init_lc_collate_1               0x08000239   Thumb Code     0  libinit2.o(.ARM.Collect$$libinit$$00000011)
    __rt_lib_init_lc_ctype_2                 0x08000239   Thumb Code     0  libinit2.o(.ARM.Collect$$libinit$$00000012)
    __rt_lib_init_lc_ctype_1                 0x08000245   Thumb Code     0  libinit2.o(.ARM.Collect$$libinit$$00000013)
    __rt_lib_init_lc_monetary_1              0x08000245   Thumb Code     0  libinit2.o(.ARM.Collect$$libinit$$00000015)
    __rt_lib_init_lc_numeric_2               0x08000245   Thumb Code     0  libinit2.o(.ARM.Collect$$libinit$$00000016)
    __rt_lib_init_alloca_1                   0x0800024f   Thumb Code     0  libinit2.o(.ARM.Collect$$libinit$$0000002E)
    __rt_lib_init_argv_1                     0x0800024f   Thumb Code     0  libinit2.o(.ARM.Collect$$libinit$$0000002C)
    __rt_lib_init_atexit_1                   0x0800024f   Thumb Code     0  libinit2.o(.ARM.Collect$$libinit$$0000001B)
    __rt_lib_init_clock_1                    0x0800024f   Thumb Code     0  libinit2.o(.ARM.Collect$$libinit$$00000021)
    __rt_lib_init_cpp_2                      0x0800024f   Thumb Code     0  libinit2.o(.ARM.Collect$$libinit$$00000031)
    __rt_lib_init_exceptions_1               0x0800024f   Thumb Code     0  libinit2.o(.ARM.Collect$$libinit$$00000030)
    __rt_lib_init_fp_trap_1                  0x0800024f   Thumb Code     0  libinit2.o(.ARM.Collect$$libinit$$0000001F)
    __rt_lib_init_getenv_1                   0x0800024f   Thumb Code     0  libinit2.o(.ARM.Collect$$libinit$$00000023)
    __rt_lib_init_lc_numeric_1               0x0800024f   Thumb Code     0  libinit2.o(.ARM.Collect$$libinit$$00000017)
    __rt_lib_init_lc_time_1                  0x0800024f   Thumb Code     0  libinit2.o(.ARM.Collect$$libinit$$00000019)
    __rt_lib_init_signal_1                   0x0800024f   Thumb Code     0  libinit2.o(.ARM.Collect$$libinit$$0000001D)
    __rt_lib_init_stdio_1                    0x0800024f   Thumb Code     0  libinit2.o(.ARM.Collect$$libinit$$00000025)
    __rt_lib_init_cpp_1                      0x08000253   Thumb Code     0  libinit2.o(.ARM.Collect$$libinit$$00000032)
    __rt_lib_init_return                     0x08000253   Thumb Code     0  libinit2.o(.ARM.Collect$$libinit$$00000033)
    __rt_lib_shutdown                        0x08000255   Thumb Code     0  libshutdown.o(.ARM.Collect$$libshutdown$$00000000)
    __rt_lib_shutdown_cpp_1                  0x08000257   Thumb Code     0  libshutdown2.o(.ARM.Collect$$libshutdown$$00000002)
    __rt_lib_shutdown_fp_trap_1              0x08000257   Thumb Code     0  libshutdown2.o(.ARM.Collect$$libshutdown$$00000007)
    __rt_lib_shutdown_heap_1                 0x08000257   Thumb Code     0  libshutdown2.o(.ARM.Collect$$libshutdown$$0000000F)
    __rt_lib_shutdown_return                 0x08000257   Thumb Code     0  libshutdown2.o(.ARM.Collect$$libshutdown$$00000010)
    __rt_lib_shutdown_signal_1               0x08000257   Thumb Code     0  libshutdown2.o(.ARM.Collect$$libshutdown$$0000000A)
    __rt_lib_shutdown_stdio_1                0x08000257   Thumb Code     0  libshutdown2.o(.ARM.Collect$$libshutdown$$00000004)
    __rt_lib_shutdown_user_alloc_1           0x08000257   Thumb Code     0  libshutdown2.o(.ARM.Collect$$libshutdown$$0000000C)
    __rt_entry                               0x08000259   Thumb Code     0  __rtentry.o(.ARM.Collect$$rtentry$$00000000)
    __rt_entry_presh_1                       0x08000259   Thumb Code     0  __rtentry2.o(.ARM.Collect$$rtentry$$00000002)
    __rt_entry_sh                            0x08000259   Thumb Code     0  __rtentry4.o(.ARM.Collect$$rtentry$$00000004)
    __rt_entry_li                            0x0800025f   Thumb Code     0  __rtentry2.o(.ARM.Collect$$rtentry$$0000000A)
    __rt_entry_postsh_1                      0x0800025f   Thumb Code     0  __rtentry2.o(.ARM.Collect$$rtentry$$00000009)
    __rt_entry_main                          0x08000263   Thumb Code     0  __rtentry2.o(.ARM.Collect$$rtentry$$0000000D)
    __rt_entry_postli_1                      0x08000263   Thumb Code     0  __rtentry2.o(.ARM.Collect$$rtentry$$0000000C)
    __rt_exit                                0x0800026b   Thumb Code     0  rtexit.o(.ARM.Collect$$rtexit$$00000000)
    __rt_exit_ls                             0x0800026d   Thumb Code     0  rtexit2.o(.ARM.Collect$$rtexit$$00000003)
    __rt_exit_prels_1                        0x0800026d   Thumb Code     0  rtexit2.o(.ARM.Collect$$rtexit$$00000002)
    __rt_exit_exit                           0x08000271   Thumb Code     0  rtexit2.o(.ARM.Collect$$rtexit$$00000004)
    Reset_Handler                            0x08000279   Thumb Code     8  startup_stm32l1xx_mdp.o(.text)
    _maybe_terminate_alloc                   0x08000279   Thumb Code     0  maybetermalloc1.o(.emb_text)
    NMI_Handler                              0x08000281   Thumb Code     2  startup_stm32l1xx_mdp.o(.text)
    HardFault_Handler                        0x08000283   Thumb Code     2  startup_stm32l1xx_mdp.o(.text)
    MemManage_Handler                        0x08000285   Thumb Code     2  startup_stm32l1xx_mdp.o(.text)
    BusFault_Handler                         0x08000287   Thumb Code     2  startup_stm32l1xx_mdp.o(.text)
    UsageFault_Handler                       0x08000289   Thumb Code     2  startup_stm32l1xx_mdp.o(.text)
    SVC_Handler                              0x0800028b   Thumb Code     2  startup_stm32l1xx_mdp.o(.text)
    DebugMon_Handler                         0x0800028d   Thumb Code     2  startup_stm32l1xx_mdp.o(.text)
    AES_IRQHandler                           0x08000293   Thumb Code     0  startup_stm32l1xx_mdp.o(.text)
    COMP_ACQ_IRQHandler                      0x08000293   Thumb Code     0  startup_stm32l1xx_mdp.o(.text)
    COMP_IRQHandler                          0x08000293   Thumb Code     0  startup_stm32l1xx_mdp.o(.text)
    DAC_IRQHandler                           0x08000293   Thumb Code     0  startup_stm32l1xx_mdp.o(.text)
    DMA1_Channel1_IRQHandler                 0x08000293   Thumb Code     0  startup_stm32l1xx_mdp.o(.text)
    DMA1_Channel2_IRQHandler                 0x08000293   Thumb Code     0  startup_stm32l1xx_mdp.o(.text)
    DMA1_Channel3_IRQHandler                 0x08000293   Thumb Code     0  startup_stm32l1xx_mdp.o(.text)
    DMA1_Channel4_IRQHandler                 0x08000293   Thumb Code     0  startup_stm32l1xx_mdp.o(.text)
    DMA1_Channel5_IRQHandler                 0x08000293   Thumb Code     0  startup_stm32l1xx_mdp.o(.text)
    DMA1_Channel6_IRQHandler                 0x08000293   Thumb Code     0  startup_stm32l1xx_mdp.o(.text)
    DMA1_Channel7_IRQHandler                 0x08000293   Thumb Code     0  startup_stm32l1xx_mdp.o(.text)
    DMA2_Channel1_IRQHandler                 0x08000293   Thumb Code     0  startup_stm32l1xx_mdp.o(.text)
    DMA2_Channel2_IRQHandler                 0x08000293   Thumb Code     0  startup_stm32l1xx_mdp.o(.text)
    DMA2_Channel3_IRQHandler                 0x08000293   Thumb Code     0  startup_stm32l1xx_mdp.o(.text)
    DMA2_Channel4_IRQHandler                 0x08000293   Thumb Code     0  startup_stm32l1xx_mdp.o(.text)
    DMA2_Channel5_IRQHandler                 0x08000293   Thumb Code     0  startup_stm32l1xx_mdp.o(.text)
    EXTI0_IRQHandler                         0x08000293   Thumb Code     0  startup_stm32l1xx_mdp.o(.text)
    EXTI15_10_IRQHandler                     0x08000293   Thumb Code     0  startup_stm32l1xx_mdp.o(.text)
    EXTI1_IRQHandler                         0x08000293   Thumb Code     0  startup_stm32l1xx_mdp.o(.text)
    EXTI2_IRQHandler                         0x08000293   Thumb Code     0  startup_stm32l1xx_mdp.o(.text)
    EXTI3_IRQHandler                         0x08000293   Thumb Code     0  startup_stm32l1xx_mdp.o(.text)
    EXTI4_IRQHandler                         0x08000293   Thumb Code     0  startup_stm32l1xx_mdp.o(.text)
    EXTI9_5_IRQHandler                       0x08000293   Thumb Code     0  startup_stm32l1xx_mdp.o(.text)
    FLASH_IRQHandler                         0x08000293   Thumb Code     0  startup_stm32l1xx_mdp.o(.text)
    I2C1_ER_IRQHandler                       0x08000293   Thumb Code     0  startup_stm32l1xx_mdp.o(.text)
    I2C1_EV_IRQHandler                       0x08000293   Thumb Code     0  startup_stm32l1xx_mdp.o(.text)
    I2C2_ER_IRQHandler                       0x08000293   Thumb Code     0  startup_stm32l1xx_mdp.o(.text)
    I2C2_EV_IRQHandler                       0x08000293   Thumb Code     0  startup_stm32l1xx_mdp.o(.text)
    LCD_IRQHandler                           0x08000293   Thumb Code     0  startup_stm32l1xx_mdp.o(.text)
    PVD_IRQHandler                           0x08000293   Thumb Code     0  startup_stm32l1xx_mdp.o(.text)
    RCC_IRQHandler                           0x08000293   Thumb Code     0  startup_stm32l1xx_mdp.o(.text)
    RTC_Alarm_IRQHandler                     0x08000293   Thumb Code     0  startup_stm32l1xx_mdp.o(.text)
    RTC_WKUP_IRQHandler                      0x08000293   Thumb Code     0  startup_stm32l1xx_mdp.o(.text)
    SPI1_IRQHandler                          0x08000293   Thumb Code     0  startup_stm32l1xx_mdp.o(.text)
    SPI2_IRQHandler                          0x08000293   Thumb Code     0  startup_stm32l1xx_mdp.o(.text)
    SPI3_IRQHandler                          0x08000293   Thumb Code     0  startup_stm32l1xx_mdp.o(.text)
    TAMPER_STAMP_IRQHandler                  0x08000293   Thumb Code     0  startup_stm32l1xx_mdp.o(.text)
    TIM10_IRQHandler                         0x08000293   Thumb Code     0  startup_stm32l1xx_mdp.o(.text)
    TIM11_IRQHandler                         0x08000293   Thumb Code     0  startup_stm32l1xx_mdp.o(.text)
    TIM9_IRQHandler                          0x08000293   Thumb Code     0  startup_stm32l1xx_mdp.o(.text)
    USB_FS_WKUP_IRQHandler                   0x08000293   Thumb Code     0  startup_stm32l1xx_mdp.o(.text)
    USB_HP_IRQHandler                        0x08000293   Thumb Code     0  startup_stm32l1xx_mdp.o(.text)
    WWDG_IRQHandler                          0x08000293   Thumb Code     0  startup_stm32l1xx_mdp.o(.text)
    __user_initial_stackheap                 0x08000295   Thumb Code     0  startup_stm32l1xx_mdp.o(.text)
    save_context                             0x080002b9   Thumb Code    14  rtoscontext.o(.text)
    load_context                             0x080002c7   Thumb Code    18  rtoscontext.o(.text)
    malloc                                   0x080002d9   Thumb Code    94  h1_alloc.o(.text)
    free                                     0x08000337   Thumb Code    78  h1_free.o(.text)
    __c89vsnprintf                           0x08000385   Thumb Code    48  c89vsnprintf.o(.text)
    abort                                    0x080003b9   Thumb Code    22  abort.o(.text)
    __use_two_region_memory                  0x080003cf   Thumb Code     2  heapauxi.o(.text)
    __rt_heap_escrow                         0x080003d1   Thumb Code     2  heapauxi.o(.text)
    __rt_heap_expand                         0x080003d3   Thumb Code     2  heapauxi.o(.text)
    __cpp_initialize__aeabi_                 0x080003d5   Thumb Code    26  init_aeabi.o(.text)
    _sys_exit                                0x080003f9   Thumb Code     8  sys_exit.o(.text)
    __rt_heap_descriptor                     0x08000405   Thumb Code     8  rt_heap_descriptor_intlibspace.o(.text)
    __use_no_heap                            0x0800040d   Thumb Code     2  hguard.o(.text)
    __heap$guard                             0x0800040f   Thumb Code     2  hguard.o(.text)
    _terminate_user_alloc                    0x08000411   Thumb Code     2  init_alloc.o(.text)
    _init_user_alloc                         0x08000413   Thumb Code     2  init_alloc.o(.text)
    __Heap_Full                              0x08000415   Thumb Code    34  init_alloc.o(.text)
    __Heap_Broken                            0x08000437   Thumb Code     6  init_alloc.o(.text)
    _init_alloc                              0x0800043d   Thumb Code    94  init_alloc.o(.text)
    __Heap_Initialize                        0x0800049b   Thumb Code    10  h1_init.o(.text)
    __Heap_DescSize                          0x080004a5   Thumb Code     4  h1_init.o(.text)
    _printf_pre_padding                      0x080004a9   Thumb Code    44  _printf_pad.o(.text)
    _printf_post_padding                     0x080004d5   Thumb Code    34  _printf_pad.o(.text)
    _printf_truncate_signed                  0x080004f7   Thumb Code    18  _printf_truncate.o(.text)
    _printf_truncate_unsigned                0x08000509   Thumb Code    18  _printf_truncate.o(.text)
    _printf_str                              0x0800051b   Thumb Code    82  _printf_str.o(.text)
    _printf_int_dec                          0x0800056d   Thumb Code   104  _printf_dec.o(.text)
    _printf_charcount                        0x080005e5   Thumb Code    40  _printf_charcount.o(.text)
    _printf_char_common                      0x08000617   Thumb Code    32  _printf_char_common.o(.text)
    _sputc                                   0x0800063d   Thumb Code    10  _sputc.o(.text)
    _snputc                                  0x08000647   Thumb Code    16  _snputc.o(.text)
    _printf_wctomb                           0x08000659   Thumb Code   182  _printf_wctomb.o(.text)
    _printf_longlong_dec                     0x08000715   Thumb Code   108  _printf_longlong_dec.o(.text)
    _printf_longlong_oct                     0x08000791   Thumb Code    66  _printf_oct_int_ll.o(.text)
    _printf_int_oct                          0x080007d3   Thumb Code    24  _printf_oct_int_ll.o(.text)
    _printf_ll_oct                           0x080007eb   Thumb Code    12  _printf_oct_int_ll.o(.text)
    _printf_longlong_hex                     0x08000801   Thumb Code    86  _printf_hex_int_ll_ptr.o(.text)
    _printf_int_hex                          0x08000857   Thumb Code    28  _printf_hex_int_ll_ptr.o(.text)
    _printf_ll_hex                           0x08000873   Thumb Code    12  _printf_hex_int_ll_ptr.o(.text)
    _printf_hex_ptr                          0x0800087f   Thumb Code    18  _printf_hex_int_ll_ptr.o(.text)
    __printf                                 0x08000895   Thumb Code   388  __printf_flags_ss_wp.o(.text)
    __rt_SIGABRT                             0x08000a1d   Thumb Code    14  defsig_abrt_outer.o(.text)
    __user_libspace                          0x08000a2d   Thumb Code     8  libspace.o(.text)
    __user_perproc_libspace                  0x08000a2d   Thumb Code     0  libspace.o(.text)
    __user_perthread_libspace                0x08000a2d   Thumb Code     0  libspace.o(.text)
    __I$use$semihosting                      0x08000a35   Thumb Code     0  use_no_semi.o(.text)
    __use_no_semihosting_swi                 0x08000a35   Thumb Code     2  use_no_semi.o(.text)
    __Heap_ProvideMemory                     0x08000a37   Thumb Code    52  h1_extend.o(.text)
    __semihosting_library_function           0x08000a37   Thumb Code     0  indicate_semi.o(.text)
    _ll_udiv10                               0x08000a6b   Thumb Code   138  lludiv10.o(.text)
    _printf_int_common                       0x08000af5   Thumb Code   178  _printf_intcommon.o(.text)
    __lib_sel_fp_printf                      0x08000ba7   Thumb Code     2  _printf_fp_dec.o(.text)
    _printf_fp_dec_real                      0x08000d59   Thumb Code   620  _printf_fp_dec.o(.text)
    _printf_cs_common                        0x08000fc5   Thumb Code    20  _printf_char.o(.text)
    _printf_char                             0x08000fd9   Thumb Code    16  _printf_char.o(.text)
    _printf_string                           0x08000fe9   Thumb Code     8  _printf_char.o(.text)
    _printf_lcs_common                       0x08000ff1   Thumb Code    20  _printf_wchar.o(.text)
    _printf_wchar                            0x08001005   Thumb Code    16  _printf_wchar.o(.text)
    _printf_wstring                          0x08001015   Thumb Code     8  _printf_wchar.o(.text)
    _wcrtomb                                 0x0800101d   Thumb Code    64  _wcrtomb.o(.text)
    __sig_exit                               0x0800105d   Thumb Code    10  defsig_exit.o(.text)
    __rt_SIGABRT_inner                       0x08001069   Thumb Code    14  defsig_abrt_inner.o(.text)
    __rt_SIGRTMEM                            0x08001099   Thumb Code    14  defsig_rtmem_outer.o(.text)
    __user_setup_stackheap                   0x080010a7   Thumb Code    74  sys_stackheap_outer.o(.text)
    __rt_ctype_table                         0x080010f1   Thumb Code    16  rt_ctype_table.o(.text)
    __rt_locale                              0x08001101   Thumb Code     8  rt_locale_intlibspace.o(.text)
    _printf_fp_infnan                        0x08001109   Thumb Code   112  _printf_fp_infnan.o(.text)
    _btod_etento                             0x08001189   Thumb Code   224  bigflt0.o(.text)
    exit                                     0x0800126d   Thumb Code    18  exit.o(.text)
    __default_signal_display                 0x0800127f   Thumb Code    50  defsig_general.o(.text)
    __rt_SIGRTMEM_inner                      0x080012b1   Thumb Code    22  defsig_rtmem_inner.o(.text)
    _ttywrch                                 0x08001301   Thumb Code    14  sys_wrch.o(.text)
    strcmp                                   0x08001311   Thumb Code   128  strcmpv7m.o(.text)
    _btod_d2e                                0x08001391   Thumb Code    62  btod.o(CL$$btod_d2e)
    _d2e_denorm_low                          0x080013cf   Thumb Code    70  btod.o(CL$$btod_d2e_denorm_low)
    _d2e_norm_op1                            0x08001415   Thumb Code    96  btod.o(CL$$btod_d2e_norm_op1)
    __btod_div_common                        0x08001475   Thumb Code   696  btod.o(CL$$btod_div_common)
    _e2e                                     0x080017ad   Thumb Code   220  btod.o(CL$$btod_e2e)
    _btod_ediv                               0x08001889   Thumb Code    42  btod.o(CL$$btod_ediv)
    _btod_emul                               0x080018b3   Thumb Code    42  btod.o(CL$$btod_emul)
    __btod_mult_common                       0x080018dd   Thumb Code   580  btod.o(CL$$btod_mult_common)
    ADC1_IRQHandler                          0x08001b21   Thumb Code    30  lib.o(i.ADC1_IRQHandler)
    PendSV_Handler                           0x08001b49   Thumb Code    36  lib.o(i.PendSV_Handler)
    SysTick_Handler                          0x08001b75   Thumb Code    46  lib.o(i.SysTick_Handler)
    SystemInit                               0x08001bb1   Thumb Code   300  lib.o(i.SystemInit)
    TIM2_IRQHandler                          0x08001cf5   Thumb Code    12  lib.o(i.TIM2_IRQHandler)
    TIM3_IRQHandler                          0x08001d05   Thumb Code    12  lib.o(i.TIM3_IRQHandler)
    TIM4_IRQHandler                          0x08001d15   Thumb Code    12  lib.o(i.TIM4_IRQHandler)
    TIM5_IRQHandler                          0x08001d25   Thumb Code    12  lib.o(i.TIM5_IRQHandler)
    TIM6_IRQHandler                          0x08001d35   Thumb Code    12  lib.o(i.TIM6_IRQHandler)
    TIM7_IRQHandler                          0x08001d45   Thumb Code    12  lib.o(i.TIM7_IRQHandler)
    USART1_IRQHandler                        0x08001d55   Thumb Code    12  lib.o(i.USART1_IRQHandler)
    USART2_IRQHandler                        0x08001d65   Thumb Code    12  lib.o(i.USART2_IRQHandler)
    USART3_IRQHandler                        0x08001d75   Thumb Code    12  lib.o(i.USART3_IRQHandler)
    USB_LP_IRQHandler                        0x08001d85   Thumb Code    12  lib.o(i.USB_LP_IRQHandler)
    cHwDisplay::cHwDisplay__sub_object(unsigned char, unsigned char) 0x08001db1   Thumb Code    10  lib.o(i._ZN10cHwDisplayC2Ehh)
    cHwTimer_N::isr()                        0x08001dc1   Thumb Code    20  lib.o(i._ZN10cHwTimer_N3isrEv)
    cHwTimer_N::cHwTimer_N(cHwTimer_N::TimerId, unsigned) 0x08001dd5   Thumb Code   390  lib.o(i._ZN10cHwTimer_NC1ENS_7TimerIdEj)
    cHwTimer_N::cHwTimer_N__sub_object(cHwTimer_N::TimerId, unsigned) 0x08001dd5   Thumb Code     0  lib.o(i._ZN10cHwTimer_NC1ENS_7TimerIdEj)
    cDevDigital::get()                       0x08001fad   Thumb Code    26  lib.o(i._ZN11cDevDigital3getEv)
    cDevDigital::set(bool)                   0x08001fc7   Thumb Code    32  lib.o(i._ZN11cDevDigital3setEb)
    cDevDigital::getEvent()                  0x08001fe7   Thumb Code    40  lib.o(i._ZN11cDevDigital8getEventEv)
    cDevDigital::cDevDigital(cHwPort&, unsigned char, cDevDigital::Mode, bool) 0x08002011   Thumb Code    68  lib.o(i._ZN11cDevDigitalC1ER7cHwPorthNS_4ModeEb)
    cDevDigital::cDevDigital__sub_object(cHwPort&, unsigned char, cDevDigital::Mode, bool) 0x08002011   Thumb Code     0  lib.o(i._ZN11cDevDigitalC1ER7cHwPorthNS_4ModeEb)
    cDevDisplay::cDevDisplay__sub_object()   0x08002059   Thumb Code     6  lib.o(i._ZN11cDevDisplayC2Ev)
    cHwPinConfig::set(cHwPinConfig::Function, unsigned) 0x08002065   Thumb Code   124  lib.o(i._ZN12cHwPinConfig3setENS_8FunctionEj)
    cHwPinConfig::set(GPIO_TypeDef*, unsigned char, unsigned, unsigned char) 0x080020ed   Thumb Code   198  lib.o(i._ZN12cHwPinConfig3setEP12GPIO_TypeDefhjh)
    cHwSPImaster::Device::transceive(unsigned char*, unsigned short) 0x080021b3   Thumb Code    58  lib.o(i._ZN12cHwSPImaster6Device10transceiveEPht)
    cHwSPImaster::Device::stop()             0x080021ed   Thumb Code    14  lib.o(i._ZN12cHwSPImaster6Device4stopEv)
    cHwSPImaster::Device::start()            0x080021fb   Thumb Code    14  lib.o(i._ZN12cHwSPImaster6Device5startEv)
    cHwSPImaster::Device::Device(cHwSPImaster&, cHwPort&, unsigned char) 0x08002209   Thumb Code    72  main.o(i._ZN12cHwSPImaster6DeviceC1ERS_R7cHwPorth)
    cHwSPImaster::Device::Device__sub_object(cHwSPImaster&, cHwPort&, unsigned char) 0x08002209   Thumb Code     0  main.o(i._ZN12cHwSPImaster6DeviceC1ERS_R7cHwPorth)
    cHwSPImaster::cHwSPImaster__sub_object() 0x08002255   Thumb Code     6  lib.o(i._ZN12cHwSPImasterC2Ev)
    cHwSPImaster_N::transceiveByte(unsigned char) 0x08002261   Thumb Code    58  lib.o(i._ZN14cHwSPImaster_N14transceiveByteEh)
    cHwSPImaster_N::cHwSPImaster_N(cHwSPImaster_N::SPI_ID, cHwSPImaster::MODE, cHwSPImaster::ClockPolPha) 0x0800229d   Thumb Code   318  lib.o(i._ZN14cHwSPImaster_NC1ENS_6SPI_IDEN12cHwSPImaster4MODEENS1_11ClockPolPhaE)
    cHwSPImaster_N::cHwSPImaster_N__sub_object(cHwSPImaster_N::SPI_ID, cHwSPImaster::MODE, cHwSPImaster::ClockPolPha) 0x0800229d   Thumb Code     0  lib.o(i._ZN14cHwSPImaster_NC1ENS_6SPI_IDEN12cHwSPImaster4MODEENS1_11ClockPolPhaE)
    cDevDisplayChar::printf(unsigned char, unsigned char, unsigned char, const char*, ...) 0x080023f1   Thumb Code   102  lib.o(i._ZN15cDevDisplayChar6printfEhhhPKcz)
    cDevDisplayChar::refresh()               0x08002457   Thumb Code    14  lib.o(i._ZN15cDevDisplayChar7refreshEv)
    cDevDisplayChar::cDevDisplayChar(cHwDisplay&) 0x08002465   Thumb Code    32  lib.o(i._ZN15cDevDisplayCharC1ER10cHwDisplay)
    cDevDisplayChar::cDevDisplayChar__sub_object(cHwDisplay&) 0x08002465   Thumb Code     0  lib.o(i._ZN15cDevDisplayCharC1ER10cHwDisplay)
    cHwDisp_DIP204spi::gotoTextPos(unsigned char, unsigned char) 0x08002489   Thumb Code    46  disp_dip204spi.o(i._ZN17cHwDisp_DIP204spi11gotoTextPosEhh)
    cHwDisp_DIP204spi::init()                0x080024b7   Thumb Code    46  disp_dip204spi.o(i._ZN17cHwDisp_DIP204spi4initEv)
    cHwDisp_DIP204spi::clear()               0x080024e5   Thumb Code    14  disp_dip204spi.o(i._ZN17cHwDisp_DIP204spi5clearEv)
    cHwDisp_DIP204spi::putChar(char)         0x080024f3   Thumb Code    34  disp_dip204spi.o(i._ZN17cHwDisp_DIP204spi7putCharEc)
    cHwDisp_DIP204spi::refresh()             0x08002515   Thumb Code     2  disp_dip204spi.o(i._ZN17cHwDisp_DIP204spi7refreshEv)
    cHwDisp_DIP204spi::waitBusy()            0x08002517   Thumb Code    58  disp_dip204spi.o(i._ZN17cHwDisp_DIP204spi8waitBusyEv)
    cHwDisp_DIP204spi::writeCmd(unsigned char) 0x08002551   Thumb Code    46  disp_dip204spi.o(i._ZN17cHwDisp_DIP204spi8writeCmdEh)
    cHwDisp_DIP204spi::writeDat(unsigned char) 0x0800257f   Thumb Code    46  disp_dip204spi.o(i._ZN17cHwDisp_DIP204spi8writeDatEh)
    cHwDisp_DIP204spi::cHwDisp_DIP204spi(cHwSPImaster::Device&) 0x080025ad   Thumb Code    34  disp_dip204spi.o(i._ZN17cHwDisp_DIP204spiC1ERN12cHwSPImaster6DeviceE)
    cHwDisp_DIP204spi::cHwDisp_DIP204spi__sub_object(cHwSPImaster::Device&) 0x080025ad   Thumb Code     0  disp_dip204spi.o(i._ZN17cHwDisp_DIP204spiC1ERN12cHwSPImaster6DeviceE)
    cDevControlEncoder::get()                0x080025d5   Thumb Code   100  lib.o(i._ZN18cDevControlEncoder3getEv)
    cDevControlEncoder::update()             0x08002639   Thumb Code   134  lib.o(i._ZN18cDevControlEncoder6updateEv)
    cDevControlEncoder::getCtrl()            0x080026bf   Thumb Code    38  lib.o(i._ZN18cDevControlEncoder7getCtrlEv)
    cDevControlEncoder::cDevControlEncoder__sub_object(cDevDigital*, cHwTimer*) 0x080026e5   Thumb Code    84  lib.o(i._ZN18cDevControlEncoderC2EP11cDevDigitalP8cHwTimer)
    cDevControlEncoderRotaryKnob::getIncrement() 0x0800273d   Thumb Code   116  lib.o(i._ZN28cDevControlEncoderRotaryKnob12getIncrementEv)
    cDevControlEncoderRotaryKnob::cDevControlEncoderRotaryKnob(cDevDigital*, cDevDigital*, cDevDigital*, cHwTimer*) 0x080027b1   Thumb Code    42  lib.o(i._ZN28cDevControlEncoderRotaryKnobC1EP11cDevDigitalS1_S1_P8cHwTimer)
    cDevControlEncoderRotaryKnob::cDevControlEncoderRotaryKnob__sub_object(cDevDigital*, cDevDigital*, cDevDigital*, cHwTimer*) 0x080027b1   Thumb Code     0  lib.o(i._ZN28cDevControlEncoderRotaryKnobC1EP11cDevDigitalS1_S1_P8cHwTimer)
    cList::add(cList::Item*)                 0x080027e1   Thumb Code    44  lib.o(i._ZN5cList3addEPNS_4ItemE)
    cList::Item::update()                    0x0800280d   Thumb Code     2  lib.o(i._ZN5cList4Item6updateEv)
    cList::Item::Item(cList*)                0x08002811   Thumb Code    28  lib.o(i._ZN5cList4ItemC1EPS_)
    cList::Item::Item__sub_object(cList*)    0x08002811   Thumb Code     0  lib.o(i._ZN5cList4ItemC1EPS_)
    cList::updateAll()                       0x08002831   Thumb Code    24  lib.o(i._ZN5cList9updateAllEv)
    cList::cList()                           0x08002849   Thumb Code     6  lib.o(i._ZN5cListC1Ev)
    cList::cList__sub_object()               0x08002849   Thumb Code     0  lib.o(i._ZN5cListC1Ev)
    cHwADC::get(unsigned char)               0x0800284f   Thumb Code    40  lib.o(i._ZN6cHwADC3getEh)
    cHwADC::isr()                            0x08002877   Thumb Code    88  lib.o(i._ZN6cHwADC3isrEv)
    cHwADC::enable(unsigned char, unsigned char) 0x080028cf   Thumb Code   106  lib.o(i._ZN6cHwADC6enableEhh)
    cHwADC::update()                         0x08002939   Thumb Code    52  lib.o(i._ZN6cHwADC6updateEv)
    cHwADC::cHwADC__sub_object(unsigned char, cHwTimer*) 0x0800296d   Thumb Code    78  lib.o(i._ZN6cHwADCC2EhP8cHwTimer)
    cHwDAC::cHwDAC__sub_object(unsigned char) 0x080029c1   Thumb Code     8  lib.o(i._ZN6cHwDACC2Eh)
    cHwPort::Pin::clr()                      0x080029cd   Thumb Code    16  lib.o(i._ZN7cHwPort3Pin3clrEv)
    cHwPort::Pin::get()                      0x080029dd   Thumb Code    26  lib.o(i._ZN7cHwPort3Pin3getEv)
    cHwPort::Pin::set(bool)                  0x080029f7   Thumb Code    32  lib.o(i._ZN7cHwPort3Pin3setEb)
    cHwPort::Pin::set()                      0x08002a17   Thumb Code    16  lib.o(i._ZN7cHwPort3Pin3setEv)
    cHwPort::Pin::setMode(cHwPort::Mode)     0x08002a27   Thumb Code    20  lib.o(i._ZN7cHwPort3Pin7setModeENS_4ModeE)
    cHwPort::Pin::Pin(cHwPort&, unsigned char) 0x08002a3d   Thumb Code    20  lib.o(i._ZN7cHwPort3PinC1ERS_h)
    cHwPort::Pin::Pin__sub_object(cHwPort&, unsigned char) 0x08002a3d   Thumb Code     0  lib.o(i._ZN7cHwPort3PinC1ERS_h)
    cSystem::disableWatchdog()               0x08002a55   Thumb Code     2  lib.o(i._ZN7cSystem15disableWatchdogEv)
    cSystem::enableInterrupt()               0x08002a59   Thumb Code    36  lib.o(i._ZN7cSystem15enableInterruptEv)
    cSystem::disableInterrupt()              0x08002a81   Thumb Code    20  lib.o(i._ZN7cSystem16disableInterruptEv)
    cSystem::cSystem(unsigned char)          0x08002a99   Thumb Code    20  lib.o(i._ZN7cSystemC1Eh)
    cSystem::cSystem__sub_object(unsigned char) 0x08002a99   Thumb Code     0  lib.o(i._ZN7cSystemC1Eh)
    cHwADC_0::startCh(unsigned char)         0x08002aad   Thumb Code    26  lib.o(i._ZN8cHwADC_07startChEh)
    cHwADC_0::configCh(unsigned char, unsigned char) 0x08002acd   Thumb Code   118  lib.o(i._ZN8cHwADC_08configChEhh)
    cHwADC_0::getResult()                    0x08002b45   Thumb Code    10  lib.o(i._ZN8cHwADC_09getResultEv)
    cHwADC_0::cHwADC_0(cHwTimer*)            0x08002b55   Thumb Code    90  lib.o(i._ZN8cHwADC_0C1EP8cHwTimer)
    cHwADC_0::cHwADC_0__sub_object(cHwTimer*) 0x08002b55   Thumb Code     0  lib.o(i._ZN8cHwADC_0C1EP8cHwTimer)
    cHwDAC_0::set(unsigned short, unsigned char) 0x08002bc1   Thumb Code    40  lib.o(i._ZN8cHwDAC_03setEth)
    cHwDAC_0::enable(unsigned char)          0x08002bed   Thumb Code    62  lib.o(i._ZN8cHwDAC_06enableEh)
    cHwDAC_0::cHwDAC_0()                     0x08002c31   Thumb Code    34  lib.o(i._ZN8cHwDAC_0C1Ev)
    cHwDAC_0::cHwDAC_0__sub_object()         0x08002c31   Thumb Code     0  lib.o(i._ZN8cHwDAC_0C1Ev)
    cHwTimer::isrHandler()                   0x08002c5d   Thumb Code    14  lib.o(i._ZN8cHwTimer10isrHandlerEv)
    cHwTimer::add(cList::Item*)              0x08002c6b   Thumb Code    18  lib.o(i._ZN8cHwTimer3addEPN5cList4ItemE)
    cHwUSB_0::isr()                          0x08002c7d   Thumb Code   166  lib.o(i._ZN8cHwUSB_03isrEv)
    cHwUSB_0::EPconfig::clrCTR_RX()          0x08002d2d   Thumb Code    12  lib.o(i._ZN8cHwUSB_08EPconfig9clrCTR_RXEv)
    cHwUSB_0::EPconfig::clrCTR_TX()          0x08002d39   Thumb Code    12  lib.o(i._ZN8cHwUSB_08EPconfig9clrCTR_TXEv)
    cHwPort_N::setPinMode(unsigned char, cHwPort::Mode) 0x08002d45   Thumb Code   136  lib.o(i._ZN9cHwPort_N10setPinModeEhN7cHwPort4ModeE)
    cHwPort_N::clr(unsigned)                 0x08002dcd   Thumb Code     6  lib.o(i._ZN9cHwPort_N3clrEj)
    cHwPort_N::get()                         0x08002dd3   Thumb Code     8  lib.o(i._ZN9cHwPort_N3getEv)
    cHwPort_N::set(unsigned)                 0x08002ddb   Thumb Code     6  lib.o(i._ZN9cHwPort_N3setEj)
    cHwPort_N::cHwPort_N(cHwPort_N::PortId)  0x08002de1   Thumb Code   176  lib.o(i._ZN9cHwPort_NC1ENS_6PortIdE)
    cHwPort_N::cHwPort_N__sub_object(cHwPort_N::PortId) 0x08002de1   Thumb Code     0  lib.o(i._ZN9cHwPort_NC1ENS_6PortIdE)
    cHwUART_N::isr()                         0x08002ebd   Thumb Code    50  lib.o(i._ZN9cHwUART_N3isrEv)
    operator new[] (unsigned)                0x08002eef   Thumb Code    12  lib.o(i._Znaj)
    __ARM_fpclassify                         0x08002efb   Thumb Code    40  fpclassify.o(i.__ARM_fpclassify)
    __cxa_pure_virtual                       0x08002f23   Thumb Code     4  lib.o(i.__cxa_pure_virtual)
    _is_digit                                0x08003079   Thumb Code    14  __printf_wp.o(i._is_digit)
    main                                     0x08003089   Thumb Code   322  main.o(i.main)
    _get_lc_numeric                          0x08003235   Thumb Code    44  lc_numeric_c.o(locale$$code)
    _get_lc_ctype                            0x08003261   Thumb Code    44  lc_ctype_c.o(locale$$code)
    cFifo<cDevControlEncoder::tEvent>::isFull() 0x0800328d   Thumb Code    32  lib.o(t._ZN5cFifoIN18cDevControlEncoder6tEventEE6isFullEv)
    cFifo<cDevControlEncoder::tEvent>::operator <<(const cDevControlEncoder::tEvent&) 0x080032ad   Thumb Code    64  lib.o(t._ZN5cFifoIN18cDevControlEncoder6tEventEElsERKS1_)
    __aeabi_ddiv                             0x080032ed   Thumb Code     0  ddiv.o(x$fpl$ddiv)
    _ddiv                                    0x080032ed   Thumb Code   552  ddiv.o(x$fpl$ddiv)
    __aeabi_d2uiz                            0x0800359d   Thumb Code     0  dfixu.o(x$fpl$dfixu)
    _dfixu                                   0x0800359d   Thumb Code    90  dfixu.o(x$fpl$dfixu)
    __aeabi_ui2d                             0x080035f7   Thumb Code     0  dflt_clz.o(x$fpl$dfltu)
    _dfltu                                   0x080035f7   Thumb Code    38  dflt_clz.o(x$fpl$dfltu)
    __aeabi_dmul                             0x0800361d   Thumb Code     0  dmul.o(x$fpl$dmul)
    _dmul                                    0x0800361d   Thumb Code   332  dmul.o(x$fpl$dmul)
    __fpl_dnaninf                            0x08003771   Thumb Code   156  dnaninf.o(x$fpl$dnaninf)
    __fpl_dretinf                            0x0800380d   Thumb Code    12  dretinf.o(x$fpl$dretinf)
    __fpl_fcmp_Inf                           0x08003819   Thumb Code    24  fcmpi.o(x$fpl$fcmpinf)
    __aeabi_fdiv                             0x08003831   Thumb Code     0  fdiv.o(x$fpl$fdiv)
    _fdiv                                    0x08003831   Thumb Code   384  fdiv.o(x$fpl$fdiv)
    __aeabi_f2uiz                            0x080039b5   Thumb Code     0  ffixu.o(x$fpl$ffixu)
    _ffixu                                   0x080039b5   Thumb Code    62  ffixu.o(x$fpl$ffixu)
    __aeabi_ui2f                             0x080039f5   Thumb Code     0  fflt_clz.o(x$fpl$ffltu)
    _ffltu                                   0x080039f5   Thumb Code    38  fflt_clz.o(x$fpl$ffltu)
    __aeabi_cfcmple                          0x08003a1d   Thumb Code     0  fleqf.o(x$fpl$fleqf)
    _fcmple                                  0x08003a1d   Thumb Code   104  fleqf.o(x$fpl$fleqf)
    __fpl_fcmple_InfNaN                      0x08003a6f   Thumb Code     0  fleqf.o(x$fpl$fleqf)
    __aeabi_fmul                             0x08003a85   Thumb Code     0  fmul.o(x$fpl$fmul)
    _fmul                                    0x08003a85   Thumb Code   258  fmul.o(x$fpl$fmul)
    __fpl_fnaninf                            0x08003b87   Thumb Code   140  fnaninf.o(x$fpl$fnaninf)
    __fpl_fretinf                            0x08003c13   Thumb Code    10  fretinf.o(x$fpl$fretinf)
    __aeabi_cfrcmple                         0x08003c1d   Thumb Code     0  frleqf.o(x$fpl$frleqf)
    _frcmple                                 0x08003c1d   Thumb Code    98  frleqf.o(x$fpl$frleqf)
    _printf_fp_dec                           0x08003c7f   Thumb Code     4  printf1.o(x$fpl$printf1)
    __I$use$fp                               0x08003c82   Number         0  usenofp.o(x$fpl$usenofp)
    vtable for cHwDisplay                    0x08003d5c   Data          32  lib.o(.constdata__ZTV10cHwDisplay)
    vtable for cHwTimer_N                    0x08003d7c   Data          28  lib.o(.constdata__ZTV10cHwTimer_N)
    vtable for cDevDigital                   0x08003d98   Data          48  lib.o(.constdata__ZTV11cDevDigital)
    vtable for cDevDisplay                   0x08003dc8   Data          20  lib.o(.constdata__ZTV11cDevDisplay)
    vtable for cHwSPImaster                  0x08003ddc   Data          16  lib.o(.constdata__ZTV12cHwSPImaster)
    vtable for cHwSPImaster_N                0x08003dec   Data          16  lib.o(.constdata__ZTV14cHwSPImaster_N)
    vtable for cDevDisplayChar               0x08003dfc   Data          24  lib.o(.constdata__ZTV15cDevDisplayChar)
    vtable for cHwDisp_DIP204spi             0x08003e14   Data          32  disp_dip204spi.o(.constdata__ZTV17cHwDisp_DIP204spi)
    vtable for cDevControlEncoder            0x08003e34   Data          20  lib.o(.constdata__ZTV18cDevControlEncoder)
    vtable for cDevControlEncoderRotaryKnob  0x08003e48   Data          20  lib.o(.constdata__ZTV28cDevControlEncoderRotaryKnob)
    vtable for cHwADC                        0x08003e5c   Data          40  lib.o(.constdata__ZTV6cHwADC)
    vtable for cHwDAC                        0x08003e84   Data          20  lib.o(.constdata__ZTV6cHwDAC)
    vtable for cHwPort                       0x08003e98   Data          32  lib.o(.constdata__ZTV7cHwPort)
    vtable for cHwADC_0                      0x08003eb8   Data          40  lib.o(.constdata__ZTV8cHwADC_0)
    vtable for cHwDAC_0                      0x08003ee0   Data          20  lib.o(.constdata__ZTV8cHwDAC_0)
    vtable for cHwTimer                      0x08003ef4   Data          28  lib.o(.constdata__ZTV8cHwTimer)
    vtable for cHwPort_N                     0x08003f10   Data          32  lib.o(.constdata__ZTV9cHwPort_N)
    vtable for cHwSPImaster::Device          0x08003f30   Data          44  lib.o(.constdata__ZTVN12cHwSPImaster6DeviceE)
    vtable for cList::Item                   0x08003f5c   Data          12  lib.o(.constdata__ZTVN5cList4ItemE)
    vtable for cHwPort::Pin                  0x08003f68   Data          28  lib.o(.constdata__ZTVN7cHwPort3PinE)
    Region$$Table$$Base                      0x08003f84   Number         0  anon$$obj.o(Region$$Table)
    Region$$Table$$Limit                     0x08003fa4   Number         0  anon$$obj.o(Region$$Table)
    __ctype                                  0x08003fcd   Data           0  lc_ctype_c.o(locale$$data)
    SHT$$INIT_ARRAY$$Base                    0x080040d0   Number         0  main.o(.init_array)
    SHT$$INIT_ARRAY$$Limit                   0x080040d4   Number         0  init_aeabi.o(.init_array)
    sys                                      0x20000000   Data           1  main.o(.data)
    portA                                    0x20000004   Data           8  main.o(.data)
    portB                                    0x2000000c   Data           8  main.o(.data)
    portC                                    0x20000014   Data           8  main.o(.data)
    portD                                    0x2000001c   Data           8  main.o(.data)
    adc                                      0x20000024   Data           4  main.o(.data)
    dac0                                     0x20000028   Data           8  main.o(.data)
    dac                                      0x20000030   Data           4  main.o(.data)
    spi2                                     0x20000034   Data           8  main.o(.data)
    disp                                     0x2000003c   Data           8  main.o(.data)
    cHwPinConfig::table                      0x20000044   Data          96  main.o(.data)
    cSystem::cntInterrupt                    0x200000a4   Data           1  lib.o(.data)
    cHwRTOS_MCU::schedule                    0x200000a8   Data           4  lib.o(.data)
    cHwRTOS_MCU::sysTic                      0x200000ac   Data           4  lib.o(.data)
    cHwRTOS_MCU::sysTicTime                  0x200000b0   Data           4  lib.o(.data)
    cHwADC_0::adcPtr                         0x200000b4   Data           4  lib.o(.data)
    cHwTimer_N::timerPtr_2                   0x200000b8   Data           4  lib.o(.data)
    cHwTimer_N::timerPtr_3                   0x200000bc   Data           4  lib.o(.data)
    cHwTimer_N::timerPtr_4                   0x200000c0   Data           4  lib.o(.data)
    cHwTimer_N::timerPtr_5                   0x200000c4   Data           4  lib.o(.data)
    cHwTimer_N::timerPtr_6                   0x200000c8   Data           4  lib.o(.data)
    cHwTimer_N::timerPtr_7                   0x200000cc   Data           4  lib.o(.data)
    cHwUART_N::uartPtr_1                     0x200000d0   Data           4  lib.o(.data)
    cHwUART_N::uartPtr_2                     0x200000d4   Data           4  lib.o(.data)
    cHwUART_N::uartPtr_3                     0x200000d8   Data           4  lib.o(.data)
    cHwUSB_0::usbPtr                         0x200000dc   Data           4  lib.o(.data)
    cHwUSB_0::EPconfig::offset               0x200000e0   Data           2  lib.o(.data)
    timerFast                                0x200000f4   Data          24  main.o(.bss)
    timerSlow                                0x2000010c   Data          24  main.o(.bss)
    adc0                                     0x20000124   Data          32  main.o(.bss)
    spiDisplay                               0x20000144   Data          24  main.o(.bss)
    dispHw                                   0x2000015c   Data          16  main.o(.bss)
    btnLeft                                  0x2000016c   Data          24  main.o(.bss)
    btnCtrl                                  0x20000184   Data          24  main.o(.bss)
    btnRight                                 0x2000019c   Data          24  main.o(.bss)
    enc                                      0x200001b4   Data          28  main.o(.bss)
    switch0                                  0x200001d0   Data          24  main.o(.bss)
    btnPlus                                  0x200001e8   Data          24  main.o(.bss)
    btnMinus                                 0x20000200   Data          24  main.o(.bss)
    led0                                     0x20000218   Data          24  main.o(.bss)
    __libspace_start                         0x20000230   Data          96  libspace.o(.bss)
    __temporary_stack_top$libspace           0x20000290   Data           0  libspace.o(.bss)



==============================================================================

Memory Map of the image

  Image Entry point : 0x08000125

  Load Region LR_IROM1 (Base: 0x08000000, Size: 0x000041c8, Max: 0x00040000, ABSOLUTE)

    Execution Region ER_IROM1 (Exec base: 0x08000000, Load base: 0x08000000, Size: 0x000040d4, Max: 0x00040000, ABSOLUTE)

    Exec Addr    Load Addr    Size         Type   Attr      Idx    E Section Name        Object

    0x08000000   0x08000000   0x00000124   Data   RO         4329    RESET               startup_stm32l1xx_mdp.o
    0x08000124   0x08000124   0x00000008   Code   RO         4953  * !!!main             c_w.l(__main.o)
    0x0800012c   0x0800012c   0x00000034   Code   RO         5578    !!!scatter          c_w.l(__scatter.o)
    0x08000160   0x08000160   0x0000001a   Code   RO         5580    !!handler_copy      c_w.l(__scatter_copy.o)
    0x0800017a   0x0800017a   0x00000002   PAD
    0x0800017c   0x0800017c   0x0000001c   Code   RO         5582    !!handler_zi        c_w.l(__scatter_zi.o)
    0x08000198   0x08000198   0x00000000   Code   RO         5255    .ARM.Collect$$_printf_percent$$00000000  c_w.l(_printf_percent.o)
    0x08000198   0x08000198   0x00000006   Code   RO         5244    .ARM.Collect$$_printf_percent$$00000001  c_w.l(_printf_n.o)
    0x0800019e   0x0800019e   0x00000006   Code   RO         5246    .ARM.Collect$$_printf_percent$$00000002  c_w.l(_printf_p.o)
    0x080001a4   0x080001a4   0x00000006   Code   RO         5251    .ARM.Collect$$_printf_percent$$00000003  c_w.l(_printf_f.o)
    0x080001aa   0x080001aa   0x00000006   Code   RO         5252    .ARM.Collect$$_printf_percent$$00000004  c_w.l(_printf_e.o)
    0x080001b0   0x080001b0   0x00000006   Code   RO         5253    .ARM.Collect$$_printf_percent$$00000005  c_w.l(_printf_g.o)
    0x080001b6   0x080001b6   0x00000006   Code   RO         5254    .ARM.Collect$$_printf_percent$$00000006  c_w.l(_printf_a.o)
    0x080001bc   0x080001bc   0x0000000a   Code   RO         5259    .ARM.Collect$$_printf_percent$$00000007  c_w.l(_printf_ll.o)
    0x080001c6   0x080001c6   0x00000006   Code   RO         5248    .ARM.Collect$$_printf_percent$$00000008  c_w.l(_printf_i.o)
    0x080001cc   0x080001cc   0x00000006   Code   RO         5249    .ARM.Collect$$_printf_percent$$00000009  c_w.l(_printf_d.o)
    0x080001d2   0x080001d2   0x00000006   Code   RO         5250    .ARM.Collect$$_printf_percent$$0000000A  c_w.l(_printf_u.o)
    0x080001d8   0x080001d8   0x00000006   Code   RO         5247    .ARM.Collect$$_printf_percent$$0000000B  c_w.l(_printf_o.o)
    0x080001de   0x080001de   0x00000006   Code   RO         5245    .ARM.Collect$$_printf_percent$$0000000C  c_w.l(_printf_x.o)
    0x080001e4   0x080001e4   0x00000006   Code   RO         5256    .ARM.Collect$$_printf_percent$$0000000D  c_w.l(_printf_lli.o)
    0x080001ea   0x080001ea   0x00000006   Code   RO         5257    .ARM.Collect$$_printf_percent$$0000000E  c_w.l(_printf_lld.o)
    0x080001f0   0x080001f0   0x00000006   Code   RO         5258    .ARM.Collect$$_printf_percent$$0000000F  c_w.l(_printf_llu.o)
    0x080001f6   0x080001f6   0x00000006   Code   RO         5263    .ARM.Collect$$_printf_percent$$00000010  c_w.l(_printf_llo.o)
    0x080001fc   0x080001fc   0x00000006   Code   RO         5264    .ARM.Collect$$_printf_percent$$00000011  c_w.l(_printf_llx.o)
    0x08000202   0x08000202   0x0000000a   Code   RO         5260    .ARM.Collect$$_printf_percent$$00000012  c_w.l(_printf_l.o)
    0x0800020c   0x0800020c   0x00000006   Code   RO         5242    .ARM.Collect$$_printf_percent$$00000013  c_w.l(_printf_c.o)
    0x08000212   0x08000212   0x00000006   Code   RO         5243    .ARM.Collect$$_printf_percent$$00000014  c_w.l(_printf_s.o)
    0x08000218   0x08000218   0x00000006   Code   RO         5261    .ARM.Collect$$_printf_percent$$00000015  c_w.l(_printf_lc.o)
    0x0800021e   0x0800021e   0x00000006   Code   RO         5262    .ARM.Collect$$_printf_percent$$00000016  c_w.l(_printf_ls.o)
    0x08000224   0x08000224   0x00000004   Code   RO         5403    .ARM.Collect$$_printf_percent$$00000017  c_w.l(_printf_percent_end.o)
    0x08000228   0x08000228   0x00000002   Code   RO         5504    .ARM.Collect$$libinit$$00000000  c_w.l(libinit.o)
    0x0800022a   0x0800022a   0x00000000   Code   RO         5276    .ARM.Collect$$libinit$$00000002  c_w.l(libinit2.o)
    0x0800022a   0x0800022a   0x00000000   Code   RO         5278    .ARM.Collect$$libinit$$00000004  c_w.l(libinit2.o)
    0x0800022a   0x0800022a   0x00000008   Code   RO         5279    .ARM.Collect$$libinit$$00000005  c_w.l(libinit2.o)
    0x08000232   0x08000232   0x00000000   Code   RO         5281    .ARM.Collect$$libinit$$0000000A  c_w.l(libinit2.o)
    0x08000232   0x08000232   0x00000000   Code   RO         5283    .ARM.Collect$$libinit$$0000000C  c_w.l(libinit2.o)
    0x08000232   0x08000232   0x00000000   Code   RO         5285    .ARM.Collect$$libinit$$0000000E  c_w.l(libinit2.o)
    0x08000232   0x08000232   0x00000006   Code   RO         5286    .ARM.Collect$$libinit$$0000000F  c_w.l(libinit2.o)
    0x08000238   0x08000238   0x00000000   Code   RO         5288    .ARM.Collect$$libinit$$00000011  c_w.l(libinit2.o)
    0x08000238   0x08000238   0x0000000c   Code   RO         5289    .ARM.Collect$$libinit$$00000012  c_w.l(libinit2.o)
    0x08000244   0x08000244   0x00000000   Code   RO         5290    .ARM.Collect$$libinit$$00000013  c_w.l(libinit2.o)
    0x08000244   0x08000244   0x00000000   Code   RO         5292    .ARM.Collect$$libinit$$00000015  c_w.l(libinit2.o)
    0x08000244   0x08000244   0x0000000a   Code   RO         5293    .ARM.Collect$$libinit$$00000016  c_w.l(libinit2.o)
    0x0800024e   0x0800024e   0x00000000   Code   RO         5294    .ARM.Collect$$libinit$$00000017  c_w.l(libinit2.o)
    0x0800024e   0x0800024e   0x00000000   Code   RO         5296    .ARM.Collect$$libinit$$00000019  c_w.l(libinit2.o)
    0x0800024e   0x0800024e   0x00000000   Code   RO         5298    .ARM.Collect$$libinit$$0000001B  c_w.l(libinit2.o)
    0x0800024e   0x0800024e   0x00000000   Code   RO         5300    .ARM.Collect$$libinit$$0000001D  c_w.l(libinit2.o)
    0x0800024e   0x0800024e   0x00000000   Code   RO         5302    .ARM.Collect$$libinit$$0000001F  c_w.l(libinit2.o)
    0x0800024e   0x0800024e   0x00000000   Code   RO         5304    .ARM.Collect$$libinit$$00000021  c_w.l(libinit2.o)
    0x0800024e   0x0800024e   0x00000000   Code   RO         5306    .ARM.Collect$$libinit$$00000023  c_w.l(libinit2.o)
    0x0800024e   0x0800024e   0x00000000   Code   RO         5308    .ARM.Collect$$libinit$$00000025  c_w.l(libinit2.o)
    0x0800024e   0x0800024e   0x00000000   Code   RO         5312    .ARM.Collect$$libinit$$0000002C  c_w.l(libinit2.o)
    0x0800024e   0x0800024e   0x00000000   Code   RO         5314    .ARM.Collect$$libinit$$0000002E  c_w.l(libinit2.o)
    0x0800024e   0x0800024e   0x00000000   Code   RO         5316    .ARM.Collect$$libinit$$00000030  c_w.l(libinit2.o)
    0x0800024e   0x0800024e   0x00000004   Code   RO         5317    .ARM.Collect$$libinit$$00000031  c_w.l(libinit2.o)
    0x08000252   0x08000252   0x00000000   Code   RO         5318    .ARM.Collect$$libinit$$00000032  c_w.l(libinit2.o)
    0x08000252   0x08000252   0x00000002   Code   RO         5319    .ARM.Collect$$libinit$$00000033  c_w.l(libinit2.o)
    0x08000254   0x08000254   0x00000002   Code   RO         5575    .ARM.Collect$$libshutdown$$00000000  c_w.l(libshutdown.o)
    0x08000256   0x08000256   0x00000000   Code   RO         5539    .ARM.Collect$$libshutdown$$00000002  c_w.l(libshutdown2.o)
    0x08000256   0x08000256   0x00000000   Code   RO         5541    .ARM.Collect$$libshutdown$$00000004  c_w.l(libshutdown2.o)
    0x08000256   0x08000256   0x00000000   Code   RO         5544    .ARM.Collect$$libshutdown$$00000007  c_w.l(libshutdown2.o)
    0x08000256   0x08000256   0x00000000   Code   RO         5547    .ARM.Collect$$libshutdown$$0000000A  c_w.l(libshutdown2.o)
    0x08000256   0x08000256   0x00000000   Code   RO         5549    .ARM.Collect$$libshutdown$$0000000C  c_w.l(libshutdown2.o)
    0x08000256   0x08000256   0x00000000   Code   RO         5552    .ARM.Collect$$libshutdown$$0000000F  c_w.l(libshutdown2.o)
    0x08000256   0x08000256   0x00000002   Code   RO         5553    .ARM.Collect$$libshutdown$$00000010  c_w.l(libshutdown2.o)
    0x08000258   0x08000258   0x00000000   Code   RO         5140    .ARM.Collect$$rtentry$$00000000  c_w.l(__rtentry.o)
    0x08000258   0x08000258   0x00000000   Code   RO         5360    .ARM.Collect$$rtentry$$00000002  c_w.l(__rtentry2.o)
    0x08000258   0x08000258   0x00000006   Code   RO         5372    .ARM.Collect$$rtentry$$00000004  c_w.l(__rtentry4.o)
    0x0800025e   0x0800025e   0x00000000   Code   RO         5362    .ARM.Collect$$rtentry$$00000009  c_w.l(__rtentry2.o)
    0x0800025e   0x0800025e   0x00000004   Code   RO         5363    .ARM.Collect$$rtentry$$0000000A  c_w.l(__rtentry2.o)
    0x08000262   0x08000262   0x00000000   Code   RO         5365    .ARM.Collect$$rtentry$$0000000C  c_w.l(__rtentry2.o)
    0x08000262   0x08000262   0x00000008   Code   RO         5366    .ARM.Collect$$rtentry$$0000000D  c_w.l(__rtentry2.o)
    0x0800026a   0x0800026a   0x00000002   Code   RO         5521    .ARM.Collect$$rtexit$$00000000  c_w.l(rtexit.o)
    0x0800026c   0x0800026c   0x00000000   Code   RO         5555    .ARM.Collect$$rtexit$$00000002  c_w.l(rtexit2.o)
    0x0800026c   0x0800026c   0x00000004   Code   RO         5556    .ARM.Collect$$rtexit$$00000003  c_w.l(rtexit2.o)
    0x08000270   0x08000270   0x00000006   Code   RO         5557    .ARM.Collect$$rtexit$$00000004  c_w.l(rtexit2.o)
    0x08000276   0x08000276   0x00000002   PAD
    0x08000278   0x08000278   0x00000000   Code   RO         5385    .emb_text           c_w.l(maybetermalloc1.o)
    0x08000278   0x08000278   0x00000040   Code   RO         4330    .text               startup_stm32l1xx_mdp.o
    0x080002b8   0x080002b8   0x00000020   Code   RO         4334    .text               rtoscontext.o
    0x080002d8   0x080002d8   0x0000005e   Code   RO         4875    .text               c_w.l(h1_alloc.o)
    0x08000336   0x08000336   0x0000004e   Code   RO         4877    .text               c_w.l(h1_free.o)
    0x08000384   0x08000384   0x00000034   Code   RO         4937    .text               c_w.l(c89vsnprintf.o)
    0x080003b8   0x080003b8   0x00000016   Code   RO         4939    .text               c_w.l(abort.o)
    0x080003ce   0x080003ce   0x00000006   Code   RO         4951    .text               c_w.l(heapauxi.o)
    0x080003d4   0x080003d4   0x00000024   Code   RO         4958    .text               c_w.l(init_aeabi.o)
    0x080003f8   0x080003f8   0x0000000c   Code   RO         5136    .text               c_w.l(sys_exit.o)
    0x08000404   0x08000404   0x00000008   Code   RO         5148    .text               c_w.l(rt_heap_descriptor_intlibspace.o)
    0x0800040c   0x0800040c   0x00000004   Code   RO         5150    .text               c_w.l(hguard.o)
    0x08000410   0x08000410   0x0000008a   Code   RO         5152    .text               c_w.l(init_alloc.o)
    0x0800049a   0x0800049a   0x0000000e   Code   RO         5156    .text               c_w.l(h1_init.o)
    0x080004a8   0x080004a8   0x0000004e   Code   RO         5174    .text               c_w.l(_printf_pad.o)
    0x080004f6   0x080004f6   0x00000024   Code   RO         5176    .text               c_w.l(_printf_truncate.o)
    0x0800051a   0x0800051a   0x00000052   Code   RO         5178    .text               c_w.l(_printf_str.o)
    0x0800056c   0x0800056c   0x00000078   Code   RO         5180    .text               c_w.l(_printf_dec.o)
    0x080005e4   0x080005e4   0x00000028   Code   RO         5182    .text               c_w.l(_printf_charcount.o)
    0x0800060c   0x0800060c   0x00000030   Code   RO         5184    .text               c_w.l(_printf_char_common.o)
    0x0800063c   0x0800063c   0x0000000a   Code   RO         5186    .text               c_w.l(_sputc.o)
    0x08000646   0x08000646   0x00000010   Code   RO         5188    .text               c_w.l(_snputc.o)
    0x08000656   0x08000656   0x00000002   PAD
    0x08000658   0x08000658   0x000000bc   Code   RO         5190    .text               c_w.l(_printf_wctomb.o)
    0x08000714   0x08000714   0x0000007c   Code   RO         5193    .text               c_w.l(_printf_longlong_dec.o)
    0x08000790   0x08000790   0x00000070   Code   RO         5199    .text               c_w.l(_printf_oct_int_ll.o)
    0x08000800   0x08000800   0x00000094   Code   RO         5219    .text               c_w.l(_printf_hex_int_ll_ptr.o)
    0x08000894   0x08000894   0x00000188   Code   RO         5239    .text               c_w.l(__printf_flags_ss_wp.o)
    0x08000a1c   0x08000a1c   0x0000000e   Code   RO         5265    .text               c_w.l(defsig_abrt_outer.o)
    0x08000a2a   0x08000a2a   0x00000002   PAD
    0x08000a2c   0x08000a2c   0x00000008   Code   RO         5353    .text               c_w.l(libspace.o)
    0x08000a34   0x08000a34   0x00000002   Code   RO         5356    .text               c_w.l(use_no_semi.o)
    0x08000a36   0x08000a36   0x00000000   Code   RO         5358    .text               c_w.l(indicate_semi.o)
    0x08000a36   0x08000a36   0x00000034   Code   RO         5387    .text               c_w.l(h1_extend.o)
    0x08000a6a   0x08000a6a   0x0000008a   Code   RO         5391    .text               c_w.l(lludiv10.o)
    0x08000af4   0x08000af4   0x000000b2   Code   RO         5393    .text               c_w.l(_printf_intcommon.o)
    0x08000ba6   0x08000ba6   0x0000041e   Code   RO         5395    .text               c_w.l(_printf_fp_dec.o)
    0x08000fc4   0x08000fc4   0x0000002c   Code   RO         5399    .text               c_w.l(_printf_char.o)
    0x08000ff0   0x08000ff0   0x0000002c   Code   RO         5401    .text               c_w.l(_printf_wchar.o)
    0x0800101c   0x0800101c   0x00000040   Code   RO         5404    .text               c_w.l(_wcrtomb.o)
    0x0800105c   0x0800105c   0x0000000a   Code   RO         5406    .text               c_w.l(defsig_exit.o)
    0x08001066   0x08001066   0x00000002   PAD
    0x08001068   0x08001068   0x00000030   Code   RO         5408    .text               c_w.l(defsig_abrt_inner.o)
    0x08001098   0x08001098   0x0000000e   Code   RO         5410    .text               c_w.l(defsig_rtmem_outer.o)
    0x080010a6   0x080010a6   0x0000004a   Code   RO         5437    .text               c_w.l(sys_stackheap_outer.o)
    0x080010f0   0x080010f0   0x00000010   Code   RO         5439    .text               c_w.l(rt_ctype_table.o)
    0x08001100   0x08001100   0x00000008   Code   RO         5444    .text               c_w.l(rt_locale_intlibspace.o)
    0x08001108   0x08001108   0x00000080   Code   RO         5453    .text               c_w.l(_printf_fp_infnan.o)
    0x08001188   0x08001188   0x000000e4   Code   RO         5455    .text               c_w.l(bigflt0.o)
    0x0800126c   0x0800126c   0x00000012   Code   RO         5483    .text               c_w.l(exit.o)
    0x0800127e   0x0800127e   0x00000032   Code   RO         5487    .text               c_w.l(defsig_general.o)
    0x080012b0   0x080012b0   0x00000050   Code   RO         5493    .text               c_w.l(defsig_rtmem_inner.o)
    0x08001300   0x08001300   0x0000000e   Code   RO         5519    .text               c_w.l(sys_wrch.o)
    0x0800130e   0x0800130e   0x00000002   PAD
    0x08001310   0x08001310   0x00000080   Code   RO         5536    .text               c_w.l(strcmpv7m.o)
    0x08001390   0x08001390   0x0000003e   Code   RO         5458    CL$$btod_d2e        c_w.l(btod.o)
    0x080013ce   0x080013ce   0x00000046   Code   RO         5460    CL$$btod_d2e_denorm_low  c_w.l(btod.o)
    0x08001414   0x08001414   0x00000060   Code   RO         5459    CL$$btod_d2e_norm_op1  c_w.l(btod.o)
    0x08001474   0x08001474   0x00000338   Code   RO         5468    CL$$btod_div_common  c_w.l(btod.o)
    0x080017ac   0x080017ac   0x000000dc   Code   RO         5465    CL$$btod_e2e        c_w.l(btod.o)
    0x08001888   0x08001888   0x0000002a   Code   RO         5462    CL$$btod_ediv       c_w.l(btod.o)
    0x080018b2   0x080018b2   0x0000002a   Code   RO         5461    CL$$btod_emul       c_w.l(btod.o)
    0x080018dc   0x080018dc   0x00000244   Code   RO         5467    CL$$btod_mult_common  c_w.l(btod.o)
    0x08001b20   0x08001b20   0x00000028   Code   RO          338    i.ADC1_IRQHandler   lib.o
    0x08001b48   0x08001b48   0x0000002c   Code   RO          339    i.PendSV_Handler    lib.o
    0x08001b74   0x08001b74   0x0000003c   Code   RO          340    i.SysTick_Handler   lib.o
    0x08001bb0   0x08001bb0   0x00000144   Code   RO          341    i.SystemInit        lib.o
    0x08001cf4   0x08001cf4   0x00000010   Code   RO          342    i.TIM2_IRQHandler   lib.o
    0x08001d04   0x08001d04   0x00000010   Code   RO          343    i.TIM3_IRQHandler   lib.o
    0x08001d14   0x08001d14   0x00000010   Code   RO          344    i.TIM4_IRQHandler   lib.o
    0x08001d24   0x08001d24   0x00000010   Code   RO          345    i.TIM5_IRQHandler   lib.o
    0x08001d34   0x08001d34   0x00000010   Code   RO          346    i.TIM6_IRQHandler   lib.o
    0x08001d44   0x08001d44   0x00000010   Code   RO          347    i.TIM7_IRQHandler   lib.o
    0x08001d54   0x08001d54   0x00000010   Code   RO          348    i.USART1_IRQHandler  lib.o
    0x08001d64   0x08001d64   0x00000010   Code   RO          349    i.USART2_IRQHandler  lib.o
    0x08001d74   0x08001d74   0x00000010   Code   RO          350    i.USART3_IRQHandler  lib.o
    0x08001d84   0x08001d84   0x00000010   Code   RO          351    i.USB_LP_IRQHandler  lib.o
    0x08001d94   0x08001d94   0x0000001a   Code   RO          352    i._Z16__NVIC_EnableIRQ4IRQn  lib.o
    0x08001dae   0x08001dae   0x00000002   PAD
    0x08001db0   0x08001db0   0x00000010   Code   RO          369    i._ZN10cHwDisplayC2Ehh  lib.o
    0x08001dc0   0x08001dc0   0x00000014   Code   RO          370    i._ZN10cHwTimer_N3isrEv  lib.o
    0x08001dd4   0x08001dd4   0x000001d8   Code   RO          373    i._ZN10cHwTimer_NC1ENS_7TimerIdEj  lib.o
    0x08001fac   0x08001fac   0x0000001a   Code   RO          387    i._ZN11cDevDigital3getEv  lib.o
    0x08001fc6   0x08001fc6   0x00000020   Code   RO          388    i._ZN11cDevDigital3setEb  lib.o
    0x08001fe6   0x08001fe6   0x00000028   Code   RO         3284    i._ZN11cDevDigital8getEventEv  lib.o
    0x0800200e   0x0800200e   0x00000002   PAD
    0x08002010   0x08002010   0x00000048   Code   RO          390    i._ZN11cDevDigitalC1ER7cHwPorthNS_4ModeEb  lib.o
    0x08002058   0x08002058   0x0000000c   Code   RO          391    i._ZN11cDevDisplayC2Ev  lib.o
    0x08002064   0x08002064   0x00000088   Code   RO          421    i._ZN12cHwPinConfig3setENS_8FunctionEj  lib.o
    0x080020ec   0x080020ec   0x000000c6   Code   RO          422    i._ZN12cHwPinConfig3setEP12GPIO_TypeDefhjh  lib.o
    0x080021b2   0x080021b2   0x0000003a   Code   RO          423    i._ZN12cHwSPImaster6Device10transceiveEPht  lib.o
    0x080021ec   0x080021ec   0x0000000e   Code   RO         2946    i._ZN12cHwSPImaster6Device4stopEv  lib.o
    0x080021fa   0x080021fa   0x0000000e   Code   RO         2940    i._ZN12cHwSPImaster6Device5startEv  lib.o
    0x08002208   0x08002208   0x0000004c   Code   RO           33    i._ZN12cHwSPImaster6DeviceC1ERS_R7cHwPorth  main.o
    0x08002254   0x08002254   0x0000000c   Code   RO          425    i._ZN12cHwSPImasterC2Ev  lib.o
    0x08002260   0x08002260   0x0000003a   Code   RO          449    i._ZN14cHwSPImaster_N14transceiveByteEh  lib.o
    0x0800229a   0x0800229a   0x00000002   PAD
    0x0800229c   0x0800229c   0x00000154   Code   RO          451    i._ZN14cHwSPImaster_NC1ENS_6SPI_IDEN12cHwSPImaster4MODEENS1_11ClockPolPhaE  lib.o
    0x080023f0   0x080023f0   0x00000066   Code   RO          473    i._ZN15cDevDisplayChar6printfEhhhPKcz  lib.o
    0x08002456   0x08002456   0x0000000e   Code   RO          474    i._ZN15cDevDisplayChar7refreshEv  lib.o
    0x08002464   0x08002464   0x00000024   Code   RO          475    i._ZN15cDevDisplayCharC1ER10cHwDisplay  lib.o
    0x08002488   0x08002488   0x0000002e   Code   RO         4744    i._ZN17cHwDisp_DIP204spi11gotoTextPosEhh  disp_dip204spi.o
    0x080024b6   0x080024b6   0x0000002e   Code   RO         4745    i._ZN17cHwDisp_DIP204spi4initEv  disp_dip204spi.o
    0x080024e4   0x080024e4   0x0000000e   Code   RO         4746    i._ZN17cHwDisp_DIP204spi5clearEv  disp_dip204spi.o
    0x080024f2   0x080024f2   0x00000022   Code   RO         4747    i._ZN17cHwDisp_DIP204spi7putCharEc  disp_dip204spi.o
    0x08002514   0x08002514   0x00000002   Code   RO         4809    i._ZN17cHwDisp_DIP204spi7refreshEv  disp_dip204spi.o
    0x08002516   0x08002516   0x0000003a   Code   RO         4748    i._ZN17cHwDisp_DIP204spi8waitBusyEv  disp_dip204spi.o
    0x08002550   0x08002550   0x0000002e   Code   RO         4749    i._ZN17cHwDisp_DIP204spi8writeCmdEh  disp_dip204spi.o
    0x0800257e   0x0800257e   0x0000002e   Code   RO         4750    i._ZN17cHwDisp_DIP204spi8writeDatEh  disp_dip204spi.o
    0x080025ac   0x080025ac   0x00000028   Code   RO         4751    i._ZN17cHwDisp_DIP204spiC1ERN12cHwSPImaster6DeviceE  disp_dip204spi.o
    0x080025d4   0x080025d4   0x00000064   Code   RO          513    i._ZN18cDevControlEncoder3getEv  lib.o
    0x08002638   0x08002638   0x00000086   Code   RO          514    i._ZN18cDevControlEncoder6updateEv  lib.o
    0x080026be   0x080026be   0x00000026   Code   RO          515    i._ZN18cDevControlEncoder7getCtrlEv  lib.o
    0x080026e4   0x080026e4   0x00000058   Code   RO          516    i._ZN18cDevControlEncoderC2EP11cDevDigitalP8cHwTimer  lib.o
    0x0800273c   0x0800273c   0x00000074   Code   RO          543    i._ZN28cDevControlEncoderRotaryKnob12getIncrementEv  lib.o
    0x080027b0   0x080027b0   0x00000030   Code   RO          544    i._ZN28cDevControlEncoderRotaryKnobC1EP11cDevDigitalS1_S1_P8cHwTimer  lib.o
    0x080027e0   0x080027e0   0x0000002c   Code   RO          549    i._ZN5cList3addEPNS_4ItemE  lib.o
    0x0800280c   0x0800280c   0x00000002   Code   RO         3577    i._ZN5cList4Item6updateEv  lib.o
    0x0800280e   0x0800280e   0x00000002   PAD
    0x08002810   0x08002810   0x00000020   Code   RO          552    i._ZN5cList4ItemC1EPS_  lib.o
    0x08002830   0x08002830   0x00000018   Code   RO          554    i._ZN5cList9updateAllEv  lib.o
    0x08002848   0x08002848   0x00000006   Code   RO          555    i._ZN5cListC1Ev     lib.o
    0x0800284e   0x0800284e   0x00000028   Code   RO         2833    i._ZN6cHwADC3getEh  lib.o
    0x08002876   0x08002876   0x00000058   Code   RO         2852    i._ZN6cHwADC3isrEv  lib.o
    0x080028ce   0x080028ce   0x0000006a   Code   RO          557    i._ZN6cHwADC6enableEhh  lib.o
    0x08002938   0x08002938   0x00000034   Code   RO         2845    i._ZN6cHwADC6updateEv  lib.o
    0x0800296c   0x0800296c   0x00000054   Code   RO          558    i._ZN6cHwADCC2EhP8cHwTimer  lib.o
    0x080029c0   0x080029c0   0x0000000c   Code   RO          559    i._ZN6cHwDACC2Eh    lib.o
    0x080029cc   0x080029cc   0x00000010   Code   RO         3394    i._ZN7cHwPort3Pin3clrEv  lib.o
    0x080029dc   0x080029dc   0x0000001a   Code   RO         2672    i._ZN7cHwPort3Pin3getEv  lib.o
    0x080029f6   0x080029f6   0x00000020   Code   RO         2665    i._ZN7cHwPort3Pin3setEb  lib.o
    0x08002a16   0x08002a16   0x00000010   Code   RO         3387    i._ZN7cHwPort3Pin3setEv  lib.o
    0x08002a26   0x08002a26   0x00000014   Code   RO         2658    i._ZN7cHwPort3Pin7setModeENS_4ModeE  lib.o
    0x08002a3a   0x08002a3a   0x00000002   PAD
    0x08002a3c   0x08002a3c   0x00000018   Code   RO          575    i._ZN7cHwPort3PinC1ERS_h  lib.o
    0x08002a54   0x08002a54   0x00000002   Code   RO          627    i._ZN7cSystem15disableWatchdogEv  lib.o
    0x08002a56   0x08002a56   0x00000002   PAD
    0x08002a58   0x08002a58   0x00000028   Code   RO          628    i._ZN7cSystem15enableInterruptEv  lib.o
    0x08002a80   0x08002a80   0x00000018   Code   RO          629    i._ZN7cSystem16disableInterruptEv  lib.o
    0x08002a98   0x08002a98   0x00000014   Code   RO          634    i._ZN7cSystemC1Eh   lib.o
    0x08002aac   0x08002aac   0x00000020   Code   RO         2865    i._ZN8cHwADC_07startChEh  lib.o
    0x08002acc   0x08002acc   0x00000076   Code   RO          635    i._ZN8cHwADC_08configChEhh  lib.o
    0x08002b42   0x08002b42   0x00000002   PAD
    0x08002b44   0x08002b44   0x00000010   Code   RO         2859    i._ZN8cHwADC_09getResultEv  lib.o
    0x08002b54   0x08002b54   0x0000006c   Code   RO          636    i._ZN8cHwADC_0C1EP8cHwTimer  lib.o
    0x08002bc0   0x08002bc0   0x0000002c   Code   RO         3589    i._ZN8cHwDAC_03setEth  lib.o
    0x08002bec   0x08002bec   0x00000044   Code   RO         3595    i._ZN8cHwDAC_06enableEh  lib.o
    0x08002c30   0x08002c30   0x0000002c   Code   RO          637    i._ZN8cHwDAC_0C1Ev  lib.o
    0x08002c5c   0x08002c5c   0x0000000e   Code   RO         2827    i._ZN8cHwTimer10isrHandlerEv  lib.o
    0x08002c6a   0x08002c6a   0x00000012   Code   RO          642    i._ZN8cHwTimer3addEPN5cList4ItemE  lib.o
    0x08002c7c   0x08002c7c   0x000000b0   Code   RO         2814    i._ZN8cHwUSB_03isrEv  lib.o
    0x08002d2c   0x08002d2c   0x0000000c   Code   RO          655    i._ZN8cHwUSB_08EPconfig9clrCTR_RXEv  lib.o
    0x08002d38   0x08002d38   0x0000000c   Code   RO          656    i._ZN8cHwUSB_08EPconfig9clrCTR_TXEv  lib.o
    0x08002d44   0x08002d44   0x00000088   Code   RO          669    i._ZN9cHwPort_N10setPinModeEhN7cHwPort4ModeE  lib.o
    0x08002dcc   0x08002dcc   0x00000006   Code   RO         2928    i._ZN9cHwPort_N3clrEj  lib.o
    0x08002dd2   0x08002dd2   0x00000008   Code   RO         2934    i._ZN9cHwPort_N3getEv  lib.o
    0x08002dda   0x08002dda   0x00000006   Code   RO         2916    i._ZN9cHwPort_N3setEj  lib.o
    0x08002de0   0x08002de0   0x000000dc   Code   RO          671    i._ZN9cHwPort_NC1ENS_6PortIdE  lib.o
    0x08002ebc   0x08002ebc   0x00000032   Code   RO          672    i._ZN9cHwUART_N3isrEv  lib.o
    0x08002eee   0x08002eee   0x0000000c   Code   RO         2808    i._Znaj             lib.o
    0x08002efa   0x08002efa   0x00000028   Code   RO         5517    i.__ARM_fpclassify  m_ws.l(fpclassify.o)
    0x08002f22   0x08002f22   0x00000004   Code   RO          677    i.__cxa_pure_virtual  lib.o
    0x08002f26   0x08002f26   0x00000002   PAD
    0x08002f28   0x08002f28   0x00000150   Code   RO            4    i.__sti___8_main_cpp_sys  main.o
    0x08003078   0x08003078   0x0000000e   Code   RO         5232    i._is_digit         c_w.l(__printf_wp.o)
    0x08003086   0x08003086   0x00000002   PAD
    0x08003088   0x08003088   0x000001ac   Code   RO            5    i.main              main.o
    0x08003234   0x08003234   0x0000002c   Code   RO         5481    locale$$code        c_w.l(lc_numeric_c.o)
    0x08003260   0x08003260   0x0000002c   Code   RO         5528    locale$$code        c_w.l(lc_ctype_c.o)
    0x0800328c   0x0800328c   0x00000020   Code   RO         2796    t._ZN5cFifoIN18cDevControlEncoder6tEventEE6isFullEv  lib.o
    0x080032ac   0x080032ac   0x00000040   Code   RO         2802    t._ZN5cFifoIN18cDevControlEncoder6tEventEElsERKS1_  lib.o
    0x080032ec   0x080032ec   0x000002b0   Code   RO         5077    x$fpl$ddiv          fz_ws.l(ddiv.o)
    0x0800359c   0x0800359c   0x0000005a   Code   RO         5084    x$fpl$dfixu         fz_ws.l(dfixu.o)
    0x080035f6   0x080035f6   0x00000026   Code   RO         5088    x$fpl$dfltu         fz_ws.l(dflt_clz.o)
    0x0800361c   0x0800361c   0x00000154   Code   RO         5094    x$fpl$dmul          fz_ws.l(dmul.o)
    0x08003770   0x08003770   0x0000009c   Code   RO         5336    x$fpl$dnaninf       fz_ws.l(dnaninf.o)
    0x0800380c   0x0800380c   0x0000000c   Code   RO         5338    x$fpl$dretinf       fz_ws.l(dretinf.o)
    0x08003818   0x08003818   0x00000018   Code   RO         5340    x$fpl$fcmpinf       fz_ws.l(fcmpi.o)
    0x08003830   0x08003830   0x00000184   Code   RO         5103    x$fpl$fdiv          fz_ws.l(fdiv.o)
    0x080039b4   0x080039b4   0x0000003e   Code   RO         5112    x$fpl$ffixu         fz_ws.l(ffixu.o)
    0x080039f2   0x080039f2   0x00000002   PAD
    0x080039f4   0x080039f4   0x00000026   Code   RO         5116    x$fpl$ffltu         fz_ws.l(fflt_clz.o)
    0x08003a1a   0x08003a1a   0x00000002   PAD
    0x08003a1c   0x08003a1c   0x00000068   Code   RO         5122    x$fpl$fleqf         fz_ws.l(fleqf.o)
    0x08003a84   0x08003a84   0x00000102   Code   RO         5124    x$fpl$fmul          fz_ws.l(fmul.o)
    0x08003b86   0x08003b86   0x0000008c   Code   RO         5342    x$fpl$fnaninf       fz_ws.l(fnaninf.o)
    0x08003c12   0x08003c12   0x0000000a   Code   RO         5344    x$fpl$fretinf       fz_ws.l(fretinf.o)
    0x08003c1c   0x08003c1c   0x00000062   Code   RO         5126    x$fpl$frleqf        fz_ws.l(frleqf.o)
    0x08003c7e   0x08003c7e   0x00000004   Code   RO         5348    x$fpl$printf1       fz_ws.l(printf1.o)
    0x08003c82   0x08003c82   0x00000000   Code   RO         5350    x$fpl$usenofp       fz_ws.l(usenofp.o)
    0x08003c82   0x08003c82   0x00000002   PAD
    0x08003c84   0x08003c84   0x00000008   Data   RO         5191    .constdata          c_w.l(_printf_wctomb.o)
    0x08003c8c   0x08003c8c   0x00000028   Data   RO         5220    .constdata          c_w.l(_printf_hex_int_ll_ptr.o)
    0x08003cb4   0x08003cb4   0x00000011   Data   RO         5240    .constdata          c_w.l(__printf_flags_ss_wp.o)
    0x08003cc5   0x08003cc5   0x00000003   PAD
    0x08003cc8   0x08003cc8   0x00000094   Data   RO         5456    .constdata          c_w.l(bigflt0.o)
    0x08003d5c   0x08003d5c   0x00000020   Data   RO         3421    .constdata__ZTV10cHwDisplay  lib.o
    0x08003d7c   0x08003d7c   0x0000001c   Data   RO         2612    .constdata__ZTV10cHwTimer_N  lib.o
    0x08003d98   0x08003d98   0x00000030   Data   RO         2586    .constdata__ZTV11cDevDigital  lib.o
    0x08003dc8   0x08003dc8   0x00000014   Data   RO         3423    .constdata__ZTV11cDevDisplay  lib.o
    0x08003ddc   0x08003ddc   0x00000010   Data   RO         3437    .constdata__ZTV12cHwSPImaster  lib.o
    0x08003dec   0x08003dec   0x00000010   Data   RO         2610    .constdata__ZTV14cHwSPImaster_N  lib.o
    0x08003dfc   0x08003dfc   0x00000018   Data   RO         2636    .constdata__ZTV15cDevDisplayChar  lib.o
    0x08003e14   0x08003e14   0x00000020   Data   RO         4808    .constdata__ZTV17cHwDisp_DIP204spi  disp_dip204spi.o
    0x08003e34   0x08003e34   0x00000014   Data   RO         2640    .constdata__ZTV18cDevControlEncoder  lib.o
    0x08003e48   0x08003e48   0x00000014   Data   RO         2644    .constdata__ZTV28cDevControlEncoderRotaryKnob  lib.o
    0x08003e5c   0x08003e5c   0x00000028   Data   RO         2594    .constdata__ZTV6cHwADC  lib.o
    0x08003e84   0x08003e84   0x00000014   Data   RO         3429    .constdata__ZTV6cHwDAC  lib.o
    0x08003e98   0x08003e98   0x00000020   Data   RO         3406    .constdata__ZTV7cHwPort  lib.o
    0x08003eb8   0x08003eb8   0x00000028   Data   RO         2596    .constdata__ZTV8cHwADC_0  lib.o
    0x08003ee0   0x08003ee0   0x00000014   Data   RO         3431    .constdata__ZTV8cHwDAC_0  lib.o
    0x08003ef4   0x08003ef4   0x0000001c   Data   RO         2562    .constdata__ZTV8cHwTimer  lib.o
    0x08003f10   0x08003f10   0x00000020   Data   RO         2566    .constdata__ZTV9cHwPort_N  lib.o
    0x08003f30   0x08003f30   0x0000002c   Data   RO         2568    .constdata__ZTVN12cHwSPImaster6DeviceE  lib.o
    0x08003f5c   0x08003f5c   0x0000000c   Data   RO         3402    .constdata__ZTVN5cList4ItemE  lib.o
    0x08003f68   0x08003f68   0x0000001c   Data   RO         3404    .constdata__ZTVN7cHwPort3PinE  lib.o
    0x08003f84   0x08003f84   0x00000020   Data   RO         5576    Region$$Table       anon$$obj.o
    0x08003fa4   0x08003fa4   0x0000001c   Data   RO         5480    locale$$data        c_w.l(lc_numeric_c.o)
    0x08003fc0   0x08003fc0   0x00000110   Data   RO         5527    locale$$data        c_w.l(lc_ctype_c.o)
    0x080040d0   0x080040d0   0x00000004   Data   RO           10    .init_array         main.o
    0x080040d4   0x080040d0   0x00000000   Data   RO         4956    .init_array         c_w.l(init_aeabi.o)


    Execution Region RW_IRAM1 (Exec base: 0x20000000, Load base: 0x080040d4, Size: 0x00001a90, Max: 0x00004000, ABSOLUTE)

    Exec Addr    Load Addr    Size         Type   Attr      Idx    E Section Name        Object

    0x20000000   0x080040d4   0x000000a4   Data   RW            9    .data               main.o
    0x200000a4   0x08004178   0x00000050   Data   RW         1019    .data               lib.o
    0x200000f4        -       0x0000013c   Zero   RW            8    .bss                main.o
    0x20000230        -       0x00000060   Zero   RW         5354    .bss                c_w.l(libspace.o)
    0x20000290        -       0x00000c00   Zero   RW         4328    HEAP                startup_stm32l1xx_mdp.o
    0x20000e90        -       0x00000c00   Zero   RW         4327    STACK               startup_stm32l1xx_mdp.o


==============================================================================

Image component sizes


      Code (inc. data)   RO Data    RW Data    ZI Data      Debug   Object Name

       332          6         32          0          0       9088   disp_dip204spi.o
      4760        412        520         80          0     298231   lib.o
       840        196          4        164        316     203418   main.o
        32          0          0          0          0        420   rtoscontext.o
        64         26        292          0       6144        836   startup_stm32l1xx_mdp.o

    ----------------------------------------------------------------------
      6044        640        880        244       6460     511993   Object Totals
         0          0         32          0          0          0   (incl. Generated)
        16          0          0          0          0          0   (incl. Padding)

    ----------------------------------------------------------------------

      Code (inc. data)   RO Data    RW Data    ZI Data      Debug   Library Member Name

         8          0          0          0          0         68   __main.o
       392          4         17          0          0         92   __printf_flags_ss_wp.o
        14          0          0          0          0         68   __printf_wp.o
         0          0          0          0          0          0   __rtentry.o
        12          0          0          0          0          0   __rtentry2.o
         6          0          0          0          0          0   __rtentry4.o
        52          8          0          0          0          0   __scatter.o
        26          0          0          0          0          0   __scatter_copy.o
        28          0          0          0          0          0   __scatter_zi.o
         6          0          0          0          0          0   _printf_a.o
         6          0          0          0          0          0   _printf_c.o
        44          0          0          0          0        108   _printf_char.o
        48          6          0          0          0         96   _printf_char_common.o
        40          0          0          0          0         68   _printf_charcount.o
         6          0          0          0          0          0   _printf_d.o
       120         16          0          0          0         92   _printf_dec.o
         6          0          0          0          0          0   _printf_e.o
         6          0          0          0          0          0   _printf_f.o
      1054          0          0          0          0        216   _printf_fp_dec.o
       128         16          0          0          0         84   _printf_fp_infnan.o
         6          0          0          0          0          0   _printf_g.o
       148          4         40          0          0        160   _printf_hex_int_ll_ptr.o
         6          0          0          0          0          0   _printf_i.o
       178          0          0          0          0         88   _printf_intcommon.o
        10          0          0          0          0          0   _printf_l.o
         6          0          0          0          0          0   _printf_lc.o
        10          0          0          0          0          0   _printf_ll.o
         6          0          0          0          0          0   _printf_lld.o
         6          0          0          0          0          0   _printf_lli.o
         6          0          0          0          0          0   _printf_llo.o
         6          0          0          0          0          0   _printf_llu.o
         6          0          0          0          0          0   _printf_llx.o
